
build/compilers/GC/2.0/mwcceppc.exe:	file format coff-i386

Disassembly of section .text:

00401000 <.text>:
  4a1080: 53                           	push	ebx
  4a1081: 56                           	push	esi
  4a1082: 57                           	push	edi
  4a1083: 55                           	push	ebp
  4a1084: 83 ec 20                     	sub	esp, 0x20
  4a1087: 8b 74 24 38                  	mov	esi, dword ptr [esp + 0x38]
  4a108b: c6 44 24 18 00               	mov	byte ptr [esp + 0x18], 0x0
  4a1090: 8b 6e 14                     	mov	ebp, dword ptr [esi + 0x14]
  4a1093: 8b 45 24                     	mov	eax, dword ptr [ebp + 0x24]
  4a1096: 89 44 24 08                  	mov	dword ptr [esp + 0x8], eax
  4a109a: 50                           	push	eax
  4a109b: e8 f0 91 fc ff               	call	0x46a290 <.text+0x69290>
  4a10a0: 59                           	pop	ecx
  4a10a1: 84 c0                        	test	al, al
  4a10a3: 74 2a                        	je	0x4a10cf <.text+0xa00cf>
  4a10a5: ff 35 94 0c 5b 00            	push	dword ptr [0x5b0c94]
  4a10ab: ff 35 90 0c 5b 00            	push	dword ptr [0x5b0c90]
  4a10b1: 8b 44 24 10                  	mov	eax, dword ptr [esp + 0x10]
  4a10b5: 8b 40 20                     	mov	eax, dword ptr [eax + 0x20]
  4a10b8: ff 70 12                     	push	dword ptr [eax + 0x12]
  4a10bb: ff 70 0e                     	push	dword ptr [eax + 0xe]
  4a10be: e8 ad 25 02 00               	call	0x4c3670 <.text+0xc2670>
  4a10c3: 83 c4 10                     	add	esp, 0x10
  4a10c6: 84 c0                        	test	al, al
  4a10c8: 74 05                        	je	0x4a10cf <.text+0xa00cf>
  4a10ca: c6 44 24 18 01               	mov	byte ptr [esp + 0x18], 0x1
  4a10cf: 80 7c 24 18 00               	cmp	byte ptr [esp + 0x18], 0x0
  4a10d4: 75 13                        	jne	0x4a10e9 <.text+0xa00e9>
  4a10d6: ff 74 24 34                  	push	dword ptr [esp + 0x34]
  4a10da: ff 74 24 0c                  	push	dword ptr [esp + 0xc]
  4a10de: e8 ad 7b fc ff               	call	0x468c90 <.text+0x67c90>
  4a10e3: 59                           	pop	ecx
  4a10e4: 59                           	pop	ecx
  4a10e5: 89 44 24 08                  	mov	dword ptr [esp + 0x8], eax
  4a10e9: 8b 06                        	mov	eax, dword ptr [esi]
  4a10eb: 83 e0 01                     	and	eax, 0x1
  4a10ee: 74 21                        	je	0x4a1111 <.text+0xa0111>
  4a10f0: ff 74 24 34                  	push	dword ptr [esp + 0x34]
  4a10f4: 8b 56 18                     	mov	edx, dword ptr [esi + 0x18]
  4a10f7: 8b 42 24                     	mov	eax, dword ptr [edx + 0x24]
  4a10fa: 50                           	push	eax
  4a10fb: e8 90 7b fc ff               	call	0x468c90 <.text+0x67c90>
  4a1100: 59                           	pop	ecx
  4a1101: 59                           	pop	ecx
  4a1102: 89 44 24 0c                  	mov	dword ptr [esp + 0xc], eax
  4a1106: 8b 46 18                     	mov	eax, dword ptr [esi + 0x18]
  4a1109: 8b 78 24                     	mov	edi, dword ptr [eax + 0x24]
  4a110c: 8b 47 0e                     	mov	eax, dword ptr [edi + 0xe]
  4a110f: eb 1f                        	jmp	0x4a1130 <.text+0xa0130>
  4a1111: ff 74 24 34                  	push	dword ptr [esp + 0x34]
  4a1115: 8b 5e 18                     	mov	ebx, dword ptr [esi + 0x18]
  4a1118: 8b 43 20                     	mov	eax, dword ptr [ebx + 0x20]
  4a111b: 50                           	push	eax
  4a111c: e8 6f 7b fc ff               	call	0x468c90 <.text+0x67c90>
  4a1121: 59                           	pop	ecx
  4a1122: 59                           	pop	ecx
  4a1123: 89 44 24 0c                  	mov	dword ptr [esp + 0xc], eax
  4a1127: 8b 46 18                     	mov	eax, dword ptr [esi + 0x18]
  4a112a: 8b 48 20                     	mov	ecx, dword ptr [eax + 0x20]
  4a112d: 8b 41 0e                     	mov	eax, dword ptr [ecx + 0xe]
  4a1130: 89 44 24 04                  	mov	dword ptr [esp + 0x4], eax
  4a1134: 83 7e 1c 00                  	cmp	dword ptr [esi + 0x1c], 0x0
  4a1138: 75 11                        	jne	0x4a114b <.text+0xa014b>
  4a113a: 68 6c 0b 00 00               	push	0xb6c
  4a113f: 68 20 e5 5a 00               	push	0x5ae520
  4a1144: e8 17 26 fc ff               	call	0x463760 <.text+0x62760>
  4a1149: 59                           	pop	ecx
  4a114a: 59                           	pop	ecx
  4a114b: 8b 46 1c                     	mov	eax, dword ptr [esi + 0x1c]
  4a114e: 83 78 0e 00                  	cmp	dword ptr [eax + 0xe], 0x0
  4a1152: 75 11                        	jne	0x4a1165 <.text+0xa0165>
  4a1154: 68 71 0b 00 00               	push	0xb71
  4a1159: 68 20 e5 5a 00               	push	0x5ae520
  4a115e: e8 fd 25 fc ff               	call	0x463760 <.text+0x62760>
  4a1163: 59                           	pop	ecx
  4a1164: 59                           	pop	ecx
  4a1165: 6a 01                        	push	0x1
  4a1167: e8 04 e8 fc ff               	call	0x46f970 <.text+0x6e970>
  4a116c: 59                           	pop	ecx
  4a116d: 89 c5                        	mov	ebp, eax
  4a116f: ff 05 00 90 5e 00            	inc	dword ptr [0x5e9000]
  4a1175: 66 a1 00 90 5e 00            	mov	ax, word ptr [0x5e9000]
  4a117b: 66 89 45 08                  	mov	word ptr [ebp + 0x8], ax
  4a117f: 8b 44 24 04                  	mov	eax, dword ptr [esp + 0x4]
  4a1183: 89 45 0e                     	mov	dword ptr [ebp + 0xe], eax
  4a1186: 6a 32                        	push	0x32
  4a1188: e8 83 bb fc ff               	call	0x46cd10 <.text+0x6bd10>
  4a118d: 59                           	pop	ecx
  4a118e: 8b 4c 24 04                  	mov	ecx, dword ptr [esp + 0x4]
  4a1192: 89 48 06                     	mov	dword ptr [eax + 0x6], ecx
  4a1195: 8b 56 1c                     	mov	edx, dword ptr [esi + 0x1c]
  4a1198: 8b 5a 0e                     	mov	ebx, dword ptr [edx + 0xe]
  4a119b: 89 58 12                     	mov	dword ptr [eax + 0x12], ebx
  4a119e: 85 db                        	test	ebx, ebx
  4a11a0: 7d 05                        	jge	0x4a11a7 <.text+0xa01a7>
  4a11a2: 83 c9 ff                     	or	ecx, -0x1
  4a11a5: eb 02                        	jmp	0x4a11a9 <.text+0xa01a9>
  4a11a7: 31 c9                        	xor	ecx, ecx
  4a11a9: 89 48 0e                     	mov	dword ptr [eax + 0xe], ecx
  4a11ac: 89 45 20                     	mov	dword ptr [ebp + 0x20], eax
  4a11af: 80 7c 24 18 00               	cmp	byte ptr [esp + 0x18], 0x0
  4a11b4: 74 0a                        	je	0x4a11c0 <.text+0xa01c0>
  4a11b6: 8b 7c 24 0c                  	mov	edi, dword ptr [esp + 0xc]
  4a11ba: eb 43                        	jmp	0x4a11ff <.text+0xa01ff>
  4a11bc: 8d 44 20 00                  	lea	eax, [eax + eiz]
  4a11c0: 6a 03                        	push	0x3
  4a11c2: e8 a9 e7 fc ff               	call	0x46f970 <.text+0x6e970>
  4a11c7: 59                           	pop	ecx
  4a11c8: 89 c7                        	mov	edi, eax
  4a11ca: ff 05 00 90 5e 00            	inc	dword ptr [0x5e9000]
  4a11d0: 66 a1 00 90 5e 00            	mov	ax, word ptr [0x5e9000]
  4a11d6: 66 89 47 08                  	mov	word ptr [edi + 0x8], ax
  4a11da: c6 47 01 10                  	mov	byte ptr [edi + 0x1], 0x10
  4a11de: 8b 44 24 0c                  	mov	eax, dword ptr [esp + 0xc]
  4a11e2: 89 47 20                     	mov	dword ptr [edi + 0x20], eax
  4a11e5: 8b 44 24 08                  	mov	eax, dword ptr [esp + 0x8]
  4a11e9: 89 47 24                     	mov	dword ptr [edi + 0x24], eax
  4a11ec: 8b 44 24 04                  	mov	eax, dword ptr [esp + 0x4]
  4a11f0: 89 47 0e                     	mov	dword ptr [edi + 0xe], eax
  4a11f3: ff 74 24 34                  	push	dword ptr [esp + 0x34]
  4a11f7: 57                           	push	edi
  4a11f8: e8 c3 7c fc ff               	call	0x468ec0 <.text+0x67ec0>
  4a11fd: 59                           	pop	ecx
  4a11fe: 59                           	pop	ecx
  4a11ff: ff 74 24 34                  	push	dword ptr [esp + 0x34]
  4a1203: 55                           	push	ebp
  4a1204: e8 87 7a fc ff               	call	0x468c90 <.text+0x67c90>
  4a1209: 59                           	pop	ecx
  4a120a: 59                           	pop	ecx
  4a120b: 89 44 24 14                  	mov	dword ptr [esp + 0x14], eax
  4a120f: 6a 03                        	push	0x3
  4a1211: e8 5a e7 fc ff               	call	0x46f970 <.text+0x6e970>
  4a1216: 59                           	pop	ecx
  4a1217: 89 c3                        	mov	ebx, eax
  4a1219: ff 05 00 90 5e 00            	inc	dword ptr [0x5e9000]
  4a121f: 66 a1 00 90 5e 00            	mov	ax, word ptr [0x5e9000]
  4a1225: 66 89 43 08                  	mov	word ptr [ebx + 0x8], ax
  4a1229: c6 43 01 0f                  	mov	byte ptr [ebx + 0x1], 0xf
  4a122d: 89 7b 20                     	mov	dword ptr [ebx + 0x20], edi
  4a1230: 8b 44 24 14                  	mov	eax, dword ptr [esp + 0x14]
  4a1234: 89 43 24                     	mov	dword ptr [ebx + 0x24], eax
  4a1237: 8b 44 24 04                  	mov	eax, dword ptr [esp + 0x4]
  4a123b: 89 43 0e                     	mov	dword ptr [ebx + 0xe], eax
  4a123e: ff 74 24 34                  	push	dword ptr [esp + 0x34]
  4a1242: 53                           	push	ebx
  4a1243: e8 78 7c fc ff               	call	0x468ec0 <.text+0x67ec0>
  4a1248: 59                           	pop	ecx
  4a1249: 59                           	pop	ecx
  4a124a: 8b 46 18                     	mov	eax, dword ptr [esi + 0x18]
  4a124d: 80 38 03                     	cmp	byte ptr [eax], 0x3
  4a1250: 0f 85 8a 00 00 00            	jne	0x4a12e0 <.text+0xa02e0>
  4a1256: 80 78 01 13                  	cmp	byte ptr [eax + 0x1], 0x13
  4a125a: 0f 85 80 00 00 00            	jne	0x4a12e0 <.text+0xa02e0>
  4a1260: 89 de                        	mov	esi, ebx
  4a1262: 6a 01                        	push	0x1
  4a1264: e8 07 e7 fc ff               	call	0x46f970 <.text+0x6e970>
  4a1269: 59                           	pop	ecx
  4a126a: 89 c7                        	mov	edi, eax
  4a126c: ff 05 00 90 5e 00            	inc	dword ptr [0x5e9000]
  4a1272: 66 a1 00 90 5e 00            	mov	ax, word ptr [0x5e9000]
  4a1278: 66 89 47 08                  	mov	word ptr [edi + 0x8], ax
  4a127c: 8b 44 24 04                  	mov	eax, dword ptr [esp + 0x4]
  4a1280: 89 47 0e                     	mov	dword ptr [edi + 0xe], eax
  4a1283: 6a 32                        	push	0x32
  4a1285: e8 86 ba fc ff               	call	0x46cd10 <.text+0x6bd10>
  4a128a: 59                           	pop	ecx
  4a128b: 8b 4c 24 04                  	mov	ecx, dword ptr [esp + 0x4]
  4a128f: 89 48 06                     	mov	dword ptr [eax + 0x6], ecx
  4a1292: 83 48 12 ff                  	or	dword ptr [eax + 0x12], -0x1
  4a1296: 83 48 0e ff                  	or	dword ptr [eax + 0xe], -0x1
  4a129a: 89 47 20                     	mov	dword ptr [edi + 0x20], eax
  4a129d: ff 74 24 34                  	push	dword ptr [esp + 0x34]
  4a12a1: 57                           	push	edi
  4a12a2: e8 19 7c fc ff               	call	0x468ec0 <.text+0x67ec0>
  4a12a7: 59                           	pop	ecx
  4a12a8: 59                           	pop	ecx
  4a12a9: 6a 03                        	push	0x3
  4a12ab: e8 c0 e6 fc ff               	call	0x46f970 <.text+0x6e970>
  4a12b0: 59                           	pop	ecx
  4a12b1: 89 c3                        	mov	ebx, eax
  4a12b3: ff 05 00 90 5e 00            	inc	dword ptr [0x5e9000]
  4a12b9: 66 a1 00 90 5e 00            	mov	ax, word ptr [0x5e9000]
  4a12bf: 66 89 43 08                  	mov	word ptr [ebx + 0x8], ax
  4a12c3: c6 43 01 0f                  	mov	byte ptr [ebx + 0x1], 0xf
  4a12c7: 89 73 20                     	mov	dword ptr [ebx + 0x20], esi
  4a12ca: 89 7b 24                     	mov	dword ptr [ebx + 0x24], edi
  4a12cd: 8b 44 24 04                  	mov	eax, dword ptr [esp + 0x4]
  4a12d1: 89 43 0e                     	mov	dword ptr [ebx + 0xe], eax
  4a12d4: ff 74 24 34                  	push	dword ptr [esp + 0x34]
  4a12d8: 53                           	push	ebx
  4a12d9: e8 e2 7b fc ff               	call	0x468ec0 <.text+0x67ec0>
  4a12de: 59                           	pop	ecx
  4a12df: 59                           	pop	ecx
  4a12e0: ff 35 9c 0c 5b 00            	push	dword ptr [0x5b0c9c]
  4a12e6: ff 35 98 0c 5b 00            	push	dword ptr [0x5b0c98]
  4a12ec: 8b 45 20                     	mov	eax, dword ptr [ebp + 0x20]
  4a12ef: ff 70 12                     	push	dword ptr [eax + 0x12]
  4a12f2: ff 70 0e                     	push	dword ptr [eax + 0xe]
  4a12f5: e8 76 23 02 00               	call	0x4c3670 <.text+0xc2670>
  4a12fa: 83 c4 10                     	add	esp, 0x10
  4a12fd: 84 c0                        	test	al, al
  4a12ff: 74 07                        	je	0x4a1308 <.text+0xa0308>
  4a1301: 89 df                        	mov	edi, ebx
  4a1303: e9 a2 00 00 00               	jmp	0x4a13aa <.text+0xa03aa>
  4a1308: 8b 45 0e                     	mov	eax, dword ptr [ebp + 0xe]
  4a130b: 83 78 02 04                  	cmp	dword ptr [eax + 0x2], 0x4
  4a130f: 7f 56                        	jg	0x4a1367 <.text+0xa0367>
  4a1311: 80 38 01                     	cmp	byte ptr [eax], 0x1
  4a1314: 75 51                        	jne	0x4a1367 <.text+0xa0367>
  4a1316: 8d 44 24 1c                  	lea	eax, [esp + 0x1c]
  4a131a: 50                           	push	eax
  4a131b: 55                           	push	ebp
  4a131c: e8 8f 8f fc ff               	call	0x46a2b0 <.text+0x692b0>
  4a1321: 59                           	pop	ecx
  4a1322: 59                           	pop	ecx
  4a1323: 84 c0                        	test	al, al
  4a1325: 74 40                        	je	0x4a1367 <.text+0xa0367>
  4a1327: 6a 03                        	push	0x3
  4a1329: e8 42 e6 fc ff               	call	0x46f970 <.text+0x6e970>
  4a132e: 59                           	pop	ecx
  4a132f: 89 c7                        	mov	edi, eax
  4a1331: ff 05 00 90 5e 00            	inc	dword ptr [0x5e9000]
  4a1337: 66 a1 00 90 5e 00            	mov	ax, word ptr [0x5e9000]
  4a133d: 66 89 47 08                  	mov	word ptr [edi + 0x8], ax
  4a1341: c6 47 01 11                  	mov	byte ptr [edi + 0x1], 0x11
  4a1345: 89 5f 20                     	mov	dword ptr [edi + 0x20], ebx
  4a1348: 89 6f 24                     	mov	dword ptr [edi + 0x24], ebp
  4a134b: 8b 54 24 1c                  	mov	edx, dword ptr [esp + 0x1c]
  4a134f: 8b 45 20                     	mov	eax, dword ptr [ebp + 0x20]
  4a1352: 83 c0 0e                     	add	eax, 0xe
  4a1355: 89 50 04                     	mov	dword ptr [eax + 0x4], edx
  4a1358: 85 d2                        	test	edx, edx
  4a135a: 7d 05                        	jge	0x4a1361 <.text+0xa0361>
  4a135c: 83 c9 ff                     	or	ecx, -0x1
  4a135f: eb 02                        	jmp	0x4a1363 <.text+0xa0363>
  4a1361: 31 c9                        	xor	ecx, ecx
  4a1363: 89 08                        	mov	dword ptr [eax], ecx
  4a1365: eb 24                        	jmp	0x4a138b <.text+0xa038b>
  4a1367: 6a 03                        	push	0x3
  4a1369: e8 02 e6 fc ff               	call	0x46f970 <.text+0x6e970>
  4a136e: 59                           	pop	ecx
  4a136f: 89 c7                        	mov	edi, eax
  4a1371: ff 05 00 90 5e 00            	inc	dword ptr [0x5e9000]
  4a1377: 66 a1 00 90 5e 00            	mov	ax, word ptr [0x5e9000]
  4a137d: 66 89 47 08                  	mov	word ptr [edi + 0x8], ax
  4a1381: c6 47 01 0b                  	mov	byte ptr [edi + 0x1], 0xb
  4a1385: 89 5f 20                     	mov	dword ptr [edi + 0x20], ebx
  4a1388: 89 6f 24                     	mov	dword ptr [edi + 0x24], ebp
  4a138b: 8b 44 24 04                  	mov	eax, dword ptr [esp + 0x4]
  4a138f: 89 47 0e                     	mov	dword ptr [edi + 0xe], eax
  4a1392: ff 74 24 34                  	push	dword ptr [esp + 0x34]
  4a1396: 55                           	push	ebp
  4a1397: e8 24 7b fc ff               	call	0x468ec0 <.text+0x67ec0>
  4a139c: 59                           	pop	ecx
  4a139d: 59                           	pop	ecx
  4a139e: ff 74 24 34                  	push	dword ptr [esp + 0x34]
  4a13a2: 57                           	push	edi
  4a13a3: e8 18 7b fc ff               	call	0x468ec0 <.text+0x67ec0>
  4a13a8: 59                           	pop	ecx
  4a13a9: 59                           	pop	ecx
  4a13aa: ff 74 24 04                  	push	dword ptr [esp + 0x4]
  4a13ae: e8 ed 47 05 00               	call	0x4f5ba0 <.text+0xf4ba0>
  4a13b3: 59                           	pop	ecx
  4a13b4: 89 c3                        	mov	ebx, eax
  4a13b6: 6a 01                        	push	0x1
  4a13b8: 6a 01                        	push	0x1
  4a13ba: 53                           	push	ebx
  4a13bb: e8 d0 1a fc ff               	call	0x462e90 <.text+0x61e90>
  4a13c0: 83 c4 0c                     	add	esp, 0xc
  4a13c3: 6a 03                        	push	0x3
  4a13c5: e8 a6 e5 fc ff               	call	0x46f970 <.text+0x6e970>
  4a13ca: 59                           	pop	ecx
  4a13cb: 89 c6                        	mov	esi, eax
  4a13cd: ff 05 00 90 5e 00            	inc	dword ptr [0x5e9000]
  4a13d3: 66 a1 00 90 5e 00            	mov	ax, word ptr [0x5e9000]
  4a13d9: 66 89 46 08                  	mov	word ptr [esi + 0x8], ax
  4a13dd: c6 46 01 1e                  	mov	byte ptr [esi + 0x1], 0x1e
  4a13e1: ff 74 24 34                  	push	dword ptr [esp + 0x34]
  4a13e5: 53                           	push	ebx
  4a13e6: e8 e5 77 fc ff               	call	0x468bd0 <.text+0x67bd0>
  4a13eb: 59                           	pop	ecx
  4a13ec: 59                           	pop	ecx
  4a13ed: 89 46 20                     	mov	dword ptr [esi + 0x20], eax
  4a13f0: 8b 46 20                     	mov	eax, dword ptr [esi + 0x20]
  4a13f3: 83 48 02 24                  	or	dword ptr [eax + 0x2], 0x24
  4a13f7: 8b 4e 20                     	mov	ecx, dword ptr [esi + 0x20]
  4a13fa: 8b 41 20                     	mov	eax, dword ptr [ecx + 0x20]
  4a13fd: 83 48 02 24                  	or	dword ptr [eax + 0x2], 0x24
  4a1401: 89 7e 24                     	mov	dword ptr [esi + 0x24], edi
  4a1404: 8b 46 24                     	mov	eax, dword ptr [esi + 0x24]
  4a1407: 83 48 02 02                  	or	dword ptr [eax + 0x2], 0x2
  4a140b: 8b 44 24 04                  	mov	eax, dword ptr [esp + 0x4]
  4a140f: 89 46 0e                     	mov	dword ptr [esi + 0xe], eax
  4a1412: ff 74 24 34                  	push	dword ptr [esp + 0x34]
  4a1416: 56                           	push	esi
  4a1417: e8 a4 7a fc ff               	call	0x468ec0 <.text+0x67ec0>
  4a141c: 59                           	pop	ecx
  4a141d: 59                           	pop	ecx
  4a141e: 8b 46 20                     	mov	eax, dword ptr [esi + 0x20]
  4a1421: 83 c4 20                     	add	esp, 0x20
  4a1424: 5d                           	pop	ebp
  4a1425: 5f                           	pop	edi
  4a1426: 5e                           	pop	esi
  4a1427: 5b                           	pop	ebx
  4a1428: c3                           	ret
  4a1429: 00 00                        	add	byte ptr [eax], al
  4a142b: 00 00                        	add	byte ptr [eax], al
  4a142d: 00 00                        	add	byte ptr [eax], al
  4a142f: 00 53 56                     	add	byte ptr [ebx + 0x56], dl
  4a1432: 57                           	push	edi
  4a1433: 55                           	push	ebp
  4a1434: 81 ec a0 00 00 00            	sub	esp, 0xa0
  4a143a: 8b bc 24 b4 00 00 00         	mov	edi, dword ptr [esp + 0xb4]
  4a1441: 8b b4 24 b8 00 00 00         	mov	esi, dword ptr [esp + 0xb8]
  4a1448: 8b 9c 24 c0 00 00 00         	mov	ebx, dword ptr [esp + 0xc0]
  4a144f: 8b ac 24 c4 00 00 00         	mov	ebp, dword ptr [esp + 0xc4]
  4a1456: 83 3b 00                     	cmp	dword ptr [ebx], 0x0
  4a1459: 75 11                        	jne	0x4a146c <.text+0xa046c>
  4a145b: 68 b1 0a 00 00               	push	0xab1
  4a1460: 68 20 e5 5a 00               	push	0x5ae520
  4a1465: e8 f6 22 fc ff               	call	0x463760 <.text+0x62760>
  4a146a: 59                           	pop	ecx
  4a146b: 59                           	pop	ecx
  4a146c: 8b 07                        	mov	eax, dword ptr [edi]
  4a146e: 83 e0 01                     	and	eax, 0x1
  4a1471: 74 0d                        	je	0x4a1480 <.text+0xa0480>
  4a1473: 8b 57 18                     	mov	edx, dword ptr [edi + 0x18]
  4a1476: 8b 42 24                     	mov	eax, dword ptr [edx + 0x24]
  4a1479: eb 0b                        	jmp	0x4a1486 <.text+0xa0486>
  4a147b: 89 c0                        	mov	eax, eax
  4a147d: 8d 40 00                     	lea	eax, [eax]
  4a1480: 8b 4f 18                     	mov	ecx, dword ptr [edi + 0x18]
  4a1483: 8b 41 20                     	mov	eax, dword ptr [ecx + 0x20]
  4a1486: 8b 78 0e                     	mov	edi, dword ptr [eax + 0xe]
  4a1489: 57                           	push	edi
  4a148a: e8 a1 6b 04 00               	call	0x4e8030 <.text+0xe7030>
  4a148f: 59                           	pop	ecx
  4a1490: 0f b6 c8                     	movzx	ecx, al
  4a1493: 89 4c 24 04                  	mov	dword ptr [esp + 0x4], ecx
  4a1497: 83 bc 24 bc 00 00 00 00      	cmp	dword ptr [esp + 0xbc], 0x0
  4a149f: 75 11                        	jne	0x4a14b2 <.text+0xa04b2>
  4a14a1: 68 c4 0a 00 00               	push	0xac4
  4a14a6: 68 20 e5 5a 00               	push	0x5ae520
  4a14ab: e8 b0 22 fc ff               	call	0x463760 <.text+0x62760>
  4a14b0: 59                           	pop	ecx
  4a14b1: 59                           	pop	ecx
  4a14b2: 8b 84 24 bc 00 00 00         	mov	eax, dword ptr [esp + 0xbc]
  4a14b9: 89 44 24 44                  	mov	dword ptr [esp + 0x44], eax
  4a14bd: 85 c0                        	test	eax, eax
  4a14bf: 7d 05                        	jge	0x4a14c6 <.text+0xa04c6>
  4a14c1: 83 c8 ff                     	or	eax, -0x1
  4a14c4: eb 02                        	jmp	0x4a14c8 <.text+0xa04c8>
  4a14c6: 31 c0                        	xor	eax, eax
  4a14c8: 89 44 24 40                  	mov	dword ptr [esp + 0x40], eax
  4a14cc: 89 c2                        	mov	edx, eax
  4a14ce: 8b 44 24 44                  	mov	eax, dword ptr [esp + 0x44]
  4a14d2: 89 94 24 98 00 00 00         	mov	dword ptr [esp + 0x98], edx
  4a14d9: 89 84 24 9c 00 00 00         	mov	dword ptr [esp + 0x9c], eax
  4a14e0: 83 7c 24 04 00               	cmp	dword ptr [esp + 0x4], 0x0
  4a14e5: 74 11                        	je	0x4a14f8 <.text+0xa04f8>
  4a14e7: 50                           	push	eax
  4a14e8: 52                           	push	edx
  4a14e9: ff 76 04                     	push	dword ptr [esi + 0x4]
  4a14ec: ff 36                        	push	dword ptr [esi]
  4a14ee: e8 fd 24 02 00               	call	0x4c39f0 <.text+0xc29f0>
  4a14f3: 83 c4 10                     	add	esp, 0x10
  4a14f6: eb 15                        	jmp	0x4a150d <.text+0xa050d>
  4a14f8: ff 74 24 44                  	push	dword ptr [esp + 0x44]
  4a14fc: ff 74 24 44                  	push	dword ptr [esp + 0x44]
  4a1500: ff 76 04                     	push	dword ptr [esi + 0x4]
  4a1503: ff 36                        	push	dword ptr [esi]
  4a1505: e8 36 25 02 00               	call	0x4c3a40 <.text+0xc2a40>
  4a150a: 83 c4 10                     	add	esp, 0x10
  4a150d: 84 c0                        	test	al, al
  4a150f: 74 2f                        	je	0x4a1540 <.text+0xa0540>
  4a1511: 8b 84 24 c8 00 00 00         	mov	eax, dword ptr [esp + 0xc8]
  4a1518: c7 00 01 00 00 00            	mov	dword ptr [eax], 0x1
  4a151e: 8b 84 24 cc 00 00 00         	mov	eax, dword ptr [esp + 0xcc]
  4a1525: c7 00 00 00 00 00            	mov	dword ptr [eax], 0x0
  4a152b: c7 03 00 00 00 00            	mov	dword ptr [ebx], 0x0
  4a1531: 8b 4e 04                     	mov	ecx, dword ptr [esi + 0x4]
  4a1534: 89 4d 00                     	mov	dword ptr [ebp], ecx
  4a1537: e9 87 04 00 00               	jmp	0x4a19c3 <.text+0xa09c3>
  4a153c: 8d 44 20 00                  	lea	eax, [eax + eiz]
  4a1540: 8b 94 24 bc 00 00 00         	mov	edx, dword ptr [esp + 0xbc]
  4a1547: 89 d0                        	mov	eax, edx
  4a1549: 48                           	dec	eax
  4a154a: 83 f8 0f                     	cmp	eax, 0xf
  4a154d: 0f 87 c1 00 00 00            	ja	0x4a1614 <.text+0xa0614>
  4a1553: ff 24 85 ac ec 5a 00         	jmp	dword ptr [4*eax + 0x5aecac]
  4a155a: 8b 0e                        	mov	ecx, dword ptr [esi]
  4a155c: 8b 46 04                     	mov	eax, dword ptr [esi + 0x4]
  4a155f: 89 4c 24 08                  	mov	dword ptr [esp + 0x8], ecx
  4a1563: 89 44 24 0c                  	mov	dword ptr [esp + 0xc], eax
  4a1567: e9 c5 00 00 00               	jmp	0x4a1631 <.text+0xa0631>
  4a156c: ff 35 9c 0c 5b 00            	push	dword ptr [0x5b0c9c]
  4a1572: ff 35 98 0c 5b 00            	push	dword ptr [0x5b0c98]
  4a1578: ff 76 04                     	push	dword ptr [esi + 0x4]
  4a157b: ff 36                        	push	dword ptr [esi]
  4a157d: e8 8e 25 02 00               	call	0x4c3b10 <.text+0xc2b10>
  4a1582: 83 c4 10                     	add	esp, 0x10
  4a1585: 89 44 24 08                  	mov	dword ptr [esp + 0x8], eax
  4a1589: 89 54 24 0c                  	mov	dword ptr [esp + 0xc], edx
  4a158d: e9 9f 00 00 00               	jmp	0x4a1631 <.text+0xa0631>
  4a1592: c7 44 24 4c 02 00 00 00      	mov	dword ptr [esp + 0x4c], 0x2
  4a159a: c7 44 24 48 00 00 00 00      	mov	dword ptr [esp + 0x48], 0x0
  4a15a2: ff 74 24 4c                  	push	dword ptr [esp + 0x4c]
  4a15a6: ff 74 24 4c                  	push	dword ptr [esp + 0x4c]
  4a15aa: ff 76 04                     	push	dword ptr [esi + 0x4]
  4a15ad: ff 36                        	push	dword ptr [esi]
  4a15af: e8 5c 25 02 00               	call	0x4c3b10 <.text+0xc2b10>
  4a15b4: 83 c4 10                     	add	esp, 0x10
  4a15b7: 89 44 24 08                  	mov	dword ptr [esp + 0x8], eax
  4a15bb: 89 54 24 0c                  	mov	dword ptr [esp + 0xc], edx
  4a15bf: eb 70                        	jmp	0x4a1631 <.text+0xa0631>
  4a15c1: c7 44 24 54 03 00 00 00      	mov	dword ptr [esp + 0x54], 0x3
  4a15c9: c7 44 24 50 00 00 00 00      	mov	dword ptr [esp + 0x50], 0x0
  4a15d1: ff 74 24 54                  	push	dword ptr [esp + 0x54]
  4a15d5: ff 74 24 54                  	push	dword ptr [esp + 0x54]
  4a15d9: ff 76 04                     	push	dword ptr [esi + 0x4]
  4a15dc: ff 36                        	push	dword ptr [esi]
  4a15de: e8 2d 25 02 00               	call	0x4c3b10 <.text+0xc2b10>
  4a15e3: 83 c4 10                     	add	esp, 0x10
  4a15e6: 89 44 24 08                  	mov	dword ptr [esp + 0x8], eax
  4a15ea: 89 54 24 0c                  	mov	dword ptr [esp + 0xc], edx
  4a15ee: eb 41                        	jmp	0x4a1631 <.text+0xa0631>
  4a15f0: c7 44 24 5c 04 00 00 00      	mov	dword ptr [esp + 0x5c], 0x4
  4a15f8: c7 44 24 58 00 00 00 00      	mov	dword ptr [esp + 0x58], 0x0
  4a1600: ff 74 24 5c                  	push	dword ptr [esp + 0x5c]
  4a1604: ff 74 24 5c                  	push	dword ptr [esp + 0x5c]
  4a1608: ff 76 04                     	push	dword ptr [esi + 0x4]
  4a160b: ff 36                        	push	dword ptr [esi]
  4a160d: e8 fe 24 02 00               	call	0x4c3b10 <.text+0xc2b10>
  4a1612: eb 12                        	jmp	0x4a1626 <.text+0xa0626>
  4a1614: ff 74 24 44                  	push	dword ptr [esp + 0x44]
  4a1618: ff 74 24 44                  	push	dword ptr [esp + 0x44]
  4a161c: ff 76 04                     	push	dword ptr [esi + 0x4]
  4a161f: ff 36                        	push	dword ptr [esi]
  4a1621: e8 3a 28 02 00               	call	0x4c3e60 <.text+0xc2e60>
  4a1626: 83 c4 10                     	add	esp, 0x10
  4a1629: 89 44 24 08                  	mov	dword ptr [esp + 0x8], eax
  4a162d: 89 54 24 0c                  	mov	dword ptr [esp + 0xc], edx
  4a1631: 8b 03                        	mov	eax, dword ptr [ebx]
  4a1633: 89 44 24 64                  	mov	dword ptr [esp + 0x64], eax
  4a1637: 85 c0                        	test	eax, eax
  4a1639: 7d 05                        	jge	0x4a1640 <.text+0xa0640>
  4a163b: 83 c8 ff                     	or	eax, -0x1
  4a163e: eb 02                        	jmp	0x4a1642 <.text+0xa0642>
  4a1640: 31 c0                        	xor	eax, eax
  4a1642: 89 44 24 60                  	mov	dword ptr [esp + 0x60], eax
  4a1646: ff 74 24 64                  	push	dword ptr [esp + 0x64]
  4a164a: 50                           	push	eax
  4a164b: ff 74 24 14                  	push	dword ptr [esp + 0x14]
  4a164f: ff 74 24 14                  	push	dword ptr [esp + 0x14]
  4a1653: e8 98 23 02 00               	call	0x4c39f0 <.text+0xc29f0>
  4a1658: 83 c4 10                     	add	esp, 0x10
  4a165b: 84 c0                        	test	al, al
  4a165d: 74 06                        	je	0x4a1665 <.text+0xa0665>
  4a165f: 8b 44 24 0c                  	mov	eax, dword ptr [esp + 0xc]
  4a1663: 89 03                        	mov	dword ptr [ebx], eax
  4a1665: 8b 03                        	mov	eax, dword ptr [ebx]
  4a1667: 89 44 24 24                  	mov	dword ptr [esp + 0x24], eax
  4a166b: 85 c0                        	test	eax, eax
  4a166d: 7d 05                        	jge	0x4a1674 <.text+0xa0674>
  4a166f: 83 c8 ff                     	or	eax, -0x1
  4a1672: eb 02                        	jmp	0x4a1676 <.text+0xa0676>
  4a1674: 31 c0                        	xor	eax, eax
  4a1676: 89 44 24 20                  	mov	dword ptr [esp + 0x20], eax
  4a167a: 8b 94 24 bc 00 00 00         	mov	edx, dword ptr [esp + 0xbc]
  4a1681: 89 d0                        	mov	eax, edx
  4a1683: 48                           	dec	eax
  4a1684: 83 f8 0f                     	cmp	eax, 0xf
  4a1687: 0f 87 c7 00 00 00            	ja	0x4a1754 <.text+0xa0754>
  4a168d: ff 24 85 6c ec 5a 00         	jmp	dword ptr [4*eax + 0x5aec6c]
  4a1694: 8b 0d 90 0c 5b 00            	mov	ecx, dword ptr [0x5b0c90]
  4a169a: a1 94 0c 5b 00               	mov	eax, dword ptr [0x5b0c94]
  4a169f: 89 4c 24 10                  	mov	dword ptr [esp + 0x10], ecx
  4a16a3: 89 44 24 14                  	mov	dword ptr [esp + 0x14], eax
  4a16a7: e9 c5 00 00 00               	jmp	0x4a1771 <.text+0xa0771>
  4a16ac: ff 35 9c 0c 5b 00            	push	dword ptr [0x5b0c9c]
  4a16b2: ff 35 98 0c 5b 00            	push	dword ptr [0x5b0c98]
  4a16b8: ff 76 04                     	push	dword ptr [esi + 0x4]
  4a16bb: ff 36                        	push	dword ptr [esi]
  4a16bd: e8 ce 1c 02 00               	call	0x4c3390 <.text+0xc2390>
  4a16c2: 83 c4 10                     	add	esp, 0x10
  4a16c5: 89 44 24 10                  	mov	dword ptr [esp + 0x10], eax
  4a16c9: 89 54 24 14                  	mov	dword ptr [esp + 0x14], edx
  4a16cd: e9 9f 00 00 00               	jmp	0x4a1771 <.text+0xa0771>
  4a16d2: c7 44 24 6c 03 00 00 00      	mov	dword ptr [esp + 0x6c], 0x3
  4a16da: c7 44 24 68 00 00 00 00      	mov	dword ptr [esp + 0x68], 0x0
  4a16e2: ff 74 24 6c                  	push	dword ptr [esp + 0x6c]
  4a16e6: ff 74 24 6c                  	push	dword ptr [esp + 0x6c]
  4a16ea: ff 76 04                     	push	dword ptr [esi + 0x4]
  4a16ed: ff 36                        	push	dword ptr [esi]
  4a16ef: e8 9c 1c 02 00               	call	0x4c3390 <.text+0xc2390>
  4a16f4: 83 c4 10                     	add	esp, 0x10
  4a16f7: 89 44 24 10                  	mov	dword ptr [esp + 0x10], eax
  4a16fb: 89 54 24 14                  	mov	dword ptr [esp + 0x14], edx
  4a16ff: eb 70                        	jmp	0x4a1771 <.text+0xa0771>
  4a1701: c7 44 24 74 07 00 00 00      	mov	dword ptr [esp + 0x74], 0x7
  4a1709: c7 44 24 70 00 00 00 00      	mov	dword ptr [esp + 0x70], 0x0
  4a1711: ff 74 24 74                  	push	dword ptr [esp + 0x74]
  4a1715: ff 74 24 74                  	push	dword ptr [esp + 0x74]
  4a1719: ff 76 04                     	push	dword ptr [esi + 0x4]
  4a171c: ff 36                        	push	dword ptr [esi]
  4a171e: e8 6d 1c 02 00               	call	0x4c3390 <.text+0xc2390>
  4a1723: 83 c4 10                     	add	esp, 0x10
  4a1726: 89 44 24 10                  	mov	dword ptr [esp + 0x10], eax
  4a172a: 89 54 24 14                  	mov	dword ptr [esp + 0x14], edx
  4a172e: eb 41                        	jmp	0x4a1771 <.text+0xa0771>
  4a1730: c7 44 24 7c 0f 00 00 00      	mov	dword ptr [esp + 0x7c], 0xf
  4a1738: c7 44 24 78 00 00 00 00      	mov	dword ptr [esp + 0x78], 0x0
  4a1740: ff 74 24 7c                  	push	dword ptr [esp + 0x7c]
  4a1744: ff 74 24 7c                  	push	dword ptr [esp + 0x7c]
  4a1748: ff 76 04                     	push	dword ptr [esi + 0x4]
  4a174b: ff 36                        	push	dword ptr [esi]
  4a174d: e8 3e 1c 02 00               	call	0x4c3390 <.text+0xc2390>
  4a1752: eb 12                        	jmp	0x4a1766 <.text+0xa0766>
  4a1754: ff 74 24 44                  	push	dword ptr [esp + 0x44]
  4a1758: ff 74 24 44                  	push	dword ptr [esp + 0x44]
  4a175c: ff 76 04                     	push	dword ptr [esi + 0x4]
  4a175f: ff 36                        	push	dword ptr [esi]
  4a1761: e8 1a 25 02 00               	call	0x4c3c80 <.text+0xc2c80>
  4a1766: 83 c4 10                     	add	esp, 0x10
  4a1769: 89 44 24 10                  	mov	dword ptr [esp + 0x10], eax
  4a176d: 89 54 24 14                  	mov	dword ptr [esp + 0x14], edx
  4a1771: c7 84 24 84 00 00 00 08 00 00 00     	mov	dword ptr [esp + 0x84], 0x8
  4a177c: c7 84 24 80 00 00 00 00 00 00 00     	mov	dword ptr [esp + 0x80], 0x0
  4a1787: ff b4 24 84 00 00 00         	push	dword ptr [esp + 0x84]
  4a178e: ff b4 24 84 00 00 00         	push	dword ptr [esp + 0x84]
  4a1795: ff 74 24 14                  	push	dword ptr [esp + 0x14]
  4a1799: ff 74 24 14                  	push	dword ptr [esp + 0x14]
  4a179d: e8 0e 20 02 00               	call	0x4c37b0 <.text+0xc27b0>
  4a17a2: 83 c4 10                     	add	esp, 0x10
  4a17a5: 84 c0                        	test	al, al
  4a17a7: 74 67                        	je	0x4a1810 <.text+0xa0810>
  4a17a9: 83 bc 24 bc 00 00 00 01      	cmp	dword ptr [esp + 0xbc], 0x1
  4a17b1: 0f 9f c2                     	setg	dl
  4a17b4: 83 e2 01                     	and	edx, 0x1
  4a17b7: 8b 84 24 cc 00 00 00         	mov	eax, dword ptr [esp + 0xcc]
  4a17be: 89 10                        	mov	dword ptr [eax], edx
  4a17c0: 8b 44 24 0c                  	mov	eax, dword ptr [esp + 0xc]
  4a17c4: 89 03                        	mov	dword ptr [ebx], eax
  4a17c6: 8b 4c 24 14                  	mov	ecx, dword ptr [esp + 0x14]
  4a17ca: 89 4d 00                     	mov	dword ptr [ebp], ecx
  4a17cd: 83 7d 00 00                  	cmp	dword ptr [ebp], 0x0
  4a17d1: 0f 95 c2                     	setne	dl
  4a17d4: 83 e2 01                     	and	edx, 0x1
  4a17d7: 8b 84 24 c8 00 00 00         	mov	eax, dword ptr [esp + 0xc8]
  4a17de: 89 10                        	mov	dword ptr [eax], edx
  4a17e0: 31 ff                        	xor	edi, edi
  4a17e2: 8b 84 24 c8 00 00 00         	mov	eax, dword ptr [esp + 0xc8]
  4a17e9: 39 38                        	cmp	dword ptr [eax], edi
  4a17eb: 74 0c                        	je	0x4a17f9 <.text+0xa07f9>
  4a17ed: 8b 84 24 cc 00 00 00         	mov	eax, dword ptr [esp + 0xcc]
  4a17f4: 39 38                        	cmp	dword ptr [eax], edi
  4a17f6: 74 01                        	je	0x4a17f9 <.text+0xa07f9>
  4a17f8: 47                           	inc	edi
  4a17f9: 31 c9                        	xor	ecx, ecx
  4a17fb: 85 ff                        	test	edi, edi
  4a17fd: 0f 85 b7 01 00 00            	jne	0x4a19ba <.text+0xa09ba>
  4a1803: 41                           	inc	ecx
  4a1804: e9 b1 01 00 00               	jmp	0x4a19ba <.text+0xa09ba>
  4a1809: 8d 84 20 00 00 00 00         	lea	eax, [eax + eiz]
  4a1810: c7 84 24 8c 00 00 00 ff ff ff 7f     	mov	dword ptr [esp + 0x8c], 0x7fffffff
  4a181b: c7 84 24 88 00 00 00 00 00 00 00     	mov	dword ptr [esp + 0x88], 0x0
  4a1826: 8b 94 24 88 00 00 00         	mov	edx, dword ptr [esp + 0x88]
  4a182d: 8b 84 24 8c 00 00 00         	mov	eax, dword ptr [esp + 0x8c]
  4a1834: 89 54 24 30                  	mov	dword ptr [esp + 0x30], edx
  4a1838: 89 44 24 34                  	mov	dword ptr [esp + 0x34], eax
  4a183c: c7 84 24 94 00 00 00 ff ff ff 7f     	mov	dword ptr [esp + 0x94], 0x7fffffff
  4a1847: c7 84 24 90 00 00 00 00 00 00 00     	mov	dword ptr [esp + 0x90], 0x0
  4a1852: 8b 8c 24 90 00 00 00         	mov	ecx, dword ptr [esp + 0x90]
  4a1859: 8b 84 24 94 00 00 00         	mov	eax, dword ptr [esp + 0x94]
  4a1860: 89 4c 24 38                  	mov	dword ptr [esp + 0x38], ecx
  4a1864: 89 44 24 3c                  	mov	dword ptr [esp + 0x3c], eax
  4a1868: ff 74 24 24                  	push	dword ptr [esp + 0x24]
  4a186c: ff 74 24 24                  	push	dword ptr [esp + 0x24]
  4a1870: ff 74 24 14                  	push	dword ptr [esp + 0x14]
  4a1874: ff 74 24 14                  	push	dword ptr [esp + 0x14]
  4a1878: e8 03 24 02 00               	call	0x4c3c80 <.text+0xc2c80>
  4a187d: 83 c4 10                     	add	esp, 0x10
  4a1880: 89 44 24 18                  	mov	dword ptr [esp + 0x18], eax
  4a1884: 89 54 24 1c                  	mov	dword ptr [esp + 0x1c], edx
  4a1888: ff 74 24 14                  	push	dword ptr [esp + 0x14]
  4a188c: ff 74 24 14                  	push	dword ptr [esp + 0x14]
  4a1890: ff b4 24 a4 00 00 00         	push	dword ptr [esp + 0xa4]
  4a1897: ff b4 24 a4 00 00 00         	push	dword ptr [esp + 0xa4]
  4a189e: 52                           	push	edx
  4a189f: 50                           	push	eax
  4a18a0: e8 7b 29 02 00               	call	0x4c4220 <.text+0xc3220>
  4a18a5: 83 c4 10                     	add	esp, 0x10
  4a18a8: 52                           	push	edx
  4a18a9: 50                           	push	eax
  4a18aa: e8 41 2d 02 00               	call	0x4c45f0 <.text+0xc35f0>
  4a18af: 83 c4 10                     	add	esp, 0x10
  4a18b2: 89 44 24 28                  	mov	dword ptr [esp + 0x28], eax
  4a18b6: 89 54 24 2c                  	mov	dword ptr [esp + 0x2c], edx
  4a18ba: ff 74 24 3c                  	push	dword ptr [esp + 0x3c]
  4a18be: ff 74 24 3c                  	push	dword ptr [esp + 0x3c]
  4a18c2: 52                           	push	edx
  4a18c3: 50                           	push	eax
  4a18c4: e8 77 21 02 00               	call	0x4c3a40 <.text+0xc2a40>
  4a18c9: 83 c4 10                     	add	esp, 0x10
  4a18cc: 84 c0                        	test	al, al
  4a18ce: 74 20                        	je	0x4a18f0 <.text+0xa08f0>
  4a18d0: 8b 54 24 28                  	mov	edx, dword ptr [esp + 0x28]
  4a18d4: 8b 44 24 2c                  	mov	eax, dword ptr [esp + 0x2c]
  4a18d8: 89 54 24 38                  	mov	dword ptr [esp + 0x38], edx
  4a18dc: 89 44 24 3c                  	mov	dword ptr [esp + 0x3c], eax
  4a18e0: 8b 4c 24 20                  	mov	ecx, dword ptr [esp + 0x20]
  4a18e4: 8b 44 24 24                  	mov	eax, dword ptr [esp + 0x24]
  4a18e8: 89 4c 24 30                  	mov	dword ptr [esp + 0x30], ecx
  4a18ec: 89 44 24 34                  	mov	dword ptr [esp + 0x34], eax
  4a18f0: 83 bc 24 bc 00 00 00 01      	cmp	dword ptr [esp + 0xbc], 0x1
  4a18f8: 7f 4a                        	jg	0x4a1944 <.text+0xa0944>
  4a18fa: ff 35 8c 0c 5b 00            	push	dword ptr [0x5b0c8c]
  4a1900: ff 35 88 0c 5b 00            	push	dword ptr [0x5b0c88]
  4a1906: ff 74 24 2c                  	push	dword ptr [esp + 0x2c]
  4a190a: ff 74 24 2c                  	push	dword ptr [esp + 0x2c]
  4a190e: e8 dd 2c 02 00               	call	0x4c45f0 <.text+0xc35f0>
  4a1913: 83 c4 10                     	add	esp, 0x10
  4a1916: 89 44 24 20                  	mov	dword ptr [esp + 0x20], eax
  4a191a: 89 54 24 24                  	mov	dword ptr [esp + 0x24], edx
  4a191e: ff 74 24 0c                  	push	dword ptr [esp + 0xc]
  4a1922: ff 74 24 0c                  	push	dword ptr [esp + 0xc]
  4a1926: 52                           	push	edx
  4a1927: 50                           	push	eax
  4a1928: 52                           	push	edx
  4a1929: 50                           	push	eax
  4a192a: e8 f1 28 02 00               	call	0x4c4220 <.text+0xc3220>
  4a192f: 83 c4 10                     	add	esp, 0x10
  4a1932: 52                           	push	edx
  4a1933: 50                           	push	eax
  4a1934: e8 57 1d 02 00               	call	0x4c3690 <.text+0xc2690>
  4a1939: 83 c4 10                     	add	esp, 0x10
  4a193c: 84 c0                        	test	al, al
  4a193e: 0f 85 24 ff ff ff            	jne	0x4a1868 <.text+0xa0868>
  4a1944: 8b 44 24 34                  	mov	eax, dword ptr [esp + 0x34]
  4a1948: 89 03                        	mov	dword ptr [ebx], eax
  4a194a: 8b 4c 24 3c                  	mov	ecx, dword ptr [esp + 0x3c]
  4a194e: 89 4d 00                     	mov	dword ptr [ebp], ecx
  4a1951: 83 7d 00 00                  	cmp	dword ptr [ebp], 0x0
  4a1955: 0f 95 c2                     	setne	dl
  4a1958: 83 e2 01                     	and	edx, 0x1
  4a195b: 8b 84 24 c8 00 00 00         	mov	eax, dword ptr [esp + 0xc8]
  4a1962: 89 10                        	mov	dword ptr [eax], edx
  4a1964: bf 01 00 00 00               	mov	edi, 0x1
  4a1969: ff 74 24 0c                  	push	dword ptr [esp + 0xc]
  4a196d: ff 74 24 0c                  	push	dword ptr [esp + 0xc]
  4a1971: ff 74 24 3c                  	push	dword ptr [esp + 0x3c]
  4a1975: ff 74 24 3c                  	push	dword ptr [esp + 0x3c]
  4a1979: e8 c2 20 02 00               	call	0x4c3a40 <.text+0xc2a40>
  4a197e: 83 c4 10                     	add	esp, 0x10
  4a1981: 84 c0                        	test	al, al
  4a1983: 75 0c                        	jne	0x4a1991 <.text+0xa0991>
  4a1985: 83 bc 24 bc 00 00 00 01      	cmp	dword ptr [esp + 0xbc], 0x1
  4a198d: 7f 02                        	jg	0x4a1991 <.text+0xa0991>
  4a198f: 31 ff                        	xor	edi, edi
  4a1991: 8b 84 24 cc 00 00 00         	mov	eax, dword ptr [esp + 0xcc]
  4a1998: 89 38                        	mov	dword ptr [eax], edi
  4a199a: 31 ff                        	xor	edi, edi
  4a199c: 8b 84 24 c8 00 00 00         	mov	eax, dword ptr [esp + 0xc8]
  4a19a3: 39 38                        	cmp	dword ptr [eax], edi
  4a19a5: 74 0c                        	je	0x4a19b3 <.text+0xa09b3>
  4a19a7: 8b 84 24 cc 00 00 00         	mov	eax, dword ptr [esp + 0xcc]
  4a19ae: 39 38                        	cmp	dword ptr [eax], edi
  4a19b0: 74 01                        	je	0x4a19b3 <.text+0xa09b3>
  4a19b2: 47                           	inc	edi
  4a19b3: 31 c9                        	xor	ecx, ecx
  4a19b5: 85 ff                        	test	edi, edi
  4a19b7: 75 01                        	jne	0x4a19ba <.text+0xa09ba>
  4a19b9: 41                           	inc	ecx
  4a19ba: 8b 84 24 d0 00 00 00         	mov	eax, dword ptr [esp + 0xd0]
  4a19c1: 89 08                        	mov	dword ptr [eax], ecx
  4a19c3: 8b 84 24 d0 00 00 00         	mov	eax, dword ptr [esp + 0xd0]
  4a19ca: 8b 00                        	mov	eax, dword ptr [eax]
  4a19cc: 50                           	push	eax
  4a19cd: 8b 84 24 d0 00 00 00         	mov	eax, dword ptr [esp + 0xd0]
  4a19d4: 8b 10                        	mov	edx, dword ptr [eax]
  4a19d6: 52                           	push	edx
  4a19d7: 8b 84 24 d0 00 00 00         	mov	eax, dword ptr [esp + 0xd0]
  4a19de: 8b 00                        	mov	eax, dword ptr [eax]
  4a19e0: 50                           	push	eax
  4a19e1: 8b 4d 00                     	mov	ecx, dword ptr [ebp]
  4a19e4: 51                           	push	ecx
  4a19e5: 8b 03                        	mov	eax, dword ptr [ebx]
  4a19e7: 50                           	push	eax
  4a19e8: ff b4 24 d0 00 00 00         	push	dword ptr [esp + 0xd0]
  4a19ef: 8b 46 04                     	mov	eax, dword ptr [esi + 0x4]
  4a19f2: 50                           	push	eax
  4a19f3: 68 30 e5 5a 00               	push	0x5ae530
  4a19f8: e8 93 30 fb ff               	call	0x454a90 <.text+0x53a90>
  4a19fd: 83 c4 20                     	add	esp, 0x20
  4a1a00: 81 c4 a0 00 00 00            	add	esp, 0xa0
  4a1a06: 5d                           	pop	ebp
  4a1a07: 5f                           	pop	edi
  4a1a08: 5e                           	pop	esi
  4a1a09: 5b                           	pop	ebx
  4a1a0a: c3                           	ret
  4a1a0b: 00 00                        	add	byte ptr [eax], al
  4a1a0d: 00 00                        	add	byte ptr [eax], al
  4a1a0f: 00 53 56                     	add	byte ptr [ebx + 0x56], dl
  4a1a12: 57                           	push	edi
  4a1a13: 55                           	push	ebp
  4a1a14: 83 ec 18                     	sub	esp, 0x18
  4a1a17: 8b 74 24 2c                  	mov	esi, dword ptr [esp + 0x2c]
  4a1a1b: 8b 6c 24 30                  	mov	ebp, dword ptr [esp + 0x30]
  4a1a1f: 8b 5c 24 38                  	mov	ebx, dword ptr [esp + 0x38]
  4a1a23: 66 8b 4e 04                  	mov	cx, word ptr [esi + 0x4]
  4a1a27: 66 8b 45 04                  	mov	ax, word ptr [ebp + 0x4]
  4a1a2b: 66 39 c8                     	cmp	ax, cx
  4a1a2e: 75 10                        	jne	0x4a1a40 <.text+0xa0a40>
  4a1a30: 66 85 c0                     	test	ax, ax
  4a1a33: 74 0b                        	je	0x4a1a40 <.text+0xa0a40>
  4a1a35: 31 c0                        	xor	eax, eax
  4a1a37: 83 c4 18                     	add	esp, 0x18
  4a1a3a: 5d                           	pop	ebp
  4a1a3b: 5f                           	pop	edi
  4a1a3c: 5e                           	pop	esi
  4a1a3d: 5b                           	pop	ebx
  4a1a3e: c3                           	ret
  4a1a3f: 90                           	nop
  4a1a40: 66 39 c8                     	cmp	ax, cx
  4a1a43: 74 0b                        	je	0x4a1a50 <.text+0xa0a50>
  4a1a45: 31 c0                        	xor	eax, eax
  4a1a47: 83 c4 18                     	add	esp, 0x18
  4a1a4a: 5d                           	pop	ebp
  4a1a4b: 5f                           	pop	edi
  4a1a4c: 5e                           	pop	esi
  4a1a4d: 5b                           	pop	ebx
  4a1a4e: c3                           	ret
  4a1a4f: 90                           	nop
  4a1a50: 66 8b 56 0a                  	mov	dx, word ptr [esi + 0xa]
  4a1a54: 66 8b 45 0a                  	mov	ax, word ptr [ebp + 0xa]
  4a1a58: 66 39 d0                     	cmp	ax, dx
  4a1a5b: 75 35                        	jne	0x4a1a92 <.text+0xa0a92>
  4a1a5d: 66 85 c0                     	test	ax, ax
  4a1a60: 74 30                        	je	0x4a1a92 <.text+0xa0a92>
  4a1a62: 31 ff                        	xor	edi, edi
  4a1a64: eb 22                        	jmp	0x4a1a88 <.text+0xa0a88>
  4a1a66: 8b 4d 0c                     	mov	ecx, dword ptr [ebp + 0xc]
  4a1a69: 8b 01                        	mov	eax, dword ptr [ecx]
  4a1a6b: 50                           	push	eax
  4a1a6c: 8b 56 0c                     	mov	edx, dword ptr [esi + 0xc]
  4a1a6f: 8b 02                        	mov	eax, dword ptr [edx]
  4a1a71: 50                           	push	eax
  4a1a72: e8 59 83 fc ff               	call	0x469dd0 <.text+0x68dd0>
  4a1a77: 59                           	pop	ecx
  4a1a78: 59                           	pop	ecx
  4a1a79: 84 c0                        	test	al, al
  4a1a7b: 75 0a                        	jne	0x4a1a87 <.text+0xa0a87>
  4a1a7d: 31 c0                        	xor	eax, eax
  4a1a7f: 83 c4 18                     	add	esp, 0x18
  4a1a82: 5d                           	pop	ebp
  4a1a83: 5f                           	pop	edi
  4a1a84: 5e                           	pop	esi
  4a1a85: 5b                           	pop	ebx
  4a1a86: c3                           	ret
  4a1a87: 47                           	inc	edi
  4a1a88: 0f b7 45 0a                  	movzx	eax, word ptr [ebp + 0xa]
  4a1a8c: 39 c7                        	cmp	edi, eax
  4a1a8e: 72 d6                        	jb	0x4a1a66 <.text+0xa0a66>
  4a1a90: eb 0f                        	jmp	0x4a1aa1 <.text+0xa0aa1>
  4a1a92: 66 39 d0                     	cmp	ax, dx
  4a1a95: 74 0a                        	je	0x4a1aa1 <.text+0xa0aa1>
  4a1a97: 31 c0                        	xor	eax, eax
  4a1a99: 83 c4 18                     	add	esp, 0x18
  4a1a9c: 5d                           	pop	ebp
  4a1a9d: 5f                           	pop	edi
  4a1a9e: 5e                           	pop	esi
  4a1a9f: 5b                           	pop	ebx
  4a1aa0: c3                           	ret
  4a1aa1: 8b 0d 90 0c 5b 00            	mov	ecx, dword ptr [0x5b0c90]
  4a1aa7: a1 94 0c 5b 00               	mov	eax, dword ptr [0x5b0c94]
  4a1aac: 89 0c 24                     	mov	dword ptr [esp], ecx
  4a1aaf: 89 44 24 04                  	mov	dword ptr [esp + 0x4], eax
  4a1ab3: 8b 7d 12                     	mov	edi, dword ptr [ebp + 0x12]
  4a1ab6: 85 ff                        	test	edi, edi
  4a1ab8: 74 35                        	je	0x4a1aef <.text+0xa0aef>
  4a1aba: 8d 80 00 00 00 00            	lea	eax, [eax]
  4a1ac0: 8b 0f                        	mov	ecx, dword ptr [edi]
  4a1ac2: 8b 41 20                     	mov	eax, dword ptr [ecx + 0x20]
  4a1ac5: ff 70 12                     	push	dword ptr [eax + 0x12]
  4a1ac8: ff 70 0e                     	push	dword ptr [eax + 0xe]
  4a1acb: 6a 2b                        	push	0x2b
  4a1acd: ff 74 24 10                  	push	dword ptr [esp + 0x10]
  4a1ad1: ff 74 24 10                  	push	dword ptr [esp + 0x10]
  4a1ad5: 8b 41 0e                     	mov	eax, dword ptr [ecx + 0xe]
  4a1ad8: 50                           	push	eax
  4a1ad9: e8 72 02 02 00               	call	0x4c1d50 <.text+0xc0d50>
  4a1ade: 83 c4 18                     	add	esp, 0x18
  4a1ae1: 89 04 24                     	mov	dword ptr [esp], eax
  4a1ae4: 89 54 24 04                  	mov	dword ptr [esp + 0x4], edx
  4a1ae8: 8b 7f 04                     	mov	edi, dword ptr [edi + 0x4]
  4a1aeb: 85 ff                        	test	edi, edi
  4a1aed: 75 d1                        	jne	0x4a1ac0 <.text+0xa0ac0>
  4a1aef: 8b 0d 90 0c 5b 00            	mov	ecx, dword ptr [0x5b0c90]
  4a1af5: a1 94 0c 5b 00               	mov	eax, dword ptr [0x5b0c94]
  4a1afa: 89 4c 24 08                  	mov	dword ptr [esp + 0x8], ecx
  4a1afe: 89 44 24 0c                  	mov	dword ptr [esp + 0xc], eax
  4a1b02: 8b 7e 12                     	mov	edi, dword ptr [esi + 0x12]
  4a1b05: 85 ff                        	test	edi, edi
  4a1b07: 74 37                        	je	0x4a1b40 <.text+0xa0b40>
  4a1b09: 8d 84 20 00 00 00 00         	lea	eax, [eax + eiz]
  4a1b10: 8b 2f                        	mov	ebp, dword ptr [edi]
  4a1b12: 8b 45 20                     	mov	eax, dword ptr [ebp + 0x20]
  4a1b15: ff 70 12                     	push	dword ptr [eax + 0x12]
  4a1b18: ff 70 0e                     	push	dword ptr [eax + 0xe]
  4a1b1b: 6a 2b                        	push	0x2b
  4a1b1d: ff 74 24 18                  	push	dword ptr [esp + 0x18]
  4a1b21: ff 74 24 18                  	push	dword ptr [esp + 0x18]
  4a1b25: 8b 45 0e                     	mov	eax, dword ptr [ebp + 0xe]
  4a1b28: 50                           	push	eax
  4a1b29: e8 22 02 02 00               	call	0x4c1d50 <.text+0xc0d50>
  4a1b2e: 83 c4 18                     	add	esp, 0x18
  4a1b31: 89 44 24 08                  	mov	dword ptr [esp + 0x8], eax
  4a1b35: 89 54 24 0c                  	mov	dword ptr [esp + 0xc], edx
  4a1b39: 8b 7f 04                     	mov	edi, dword ptr [edi + 0x4]
  4a1b3c: 85 ff                        	test	edi, edi
  4a1b3e: 75 d0                        	jne	0x4a1b10 <.text+0xa0b10>
  4a1b40: ff 74 24 0c                  	push	dword ptr [esp + 0xc]
  4a1b44: ff 74 24 0c                  	push	dword ptr [esp + 0xc]
  4a1b48: ff 74 24 0c                  	push	dword ptr [esp + 0xc]
  4a1b4c: ff 74 24 0c                  	push	dword ptr [esp + 0xc]
  4a1b50: e8 1b 1b 02 00               	call	0x4c3670 <.text+0xc2670>
  4a1b55: 83 c4 10                     	add	esp, 0x10
  4a1b58: 84 c0                        	test	al, al
  4a1b5a: 74 0a                        	je	0x4a1b66 <.text+0xa0b66>
  4a1b5c: 31 c0                        	xor	eax, eax
  4a1b5e: 83 c4 18                     	add	esp, 0x18
  4a1b61: 5d                           	pop	ebp
  4a1b62: 5f                           	pop	edi
  4a1b63: 5e                           	pop	esi
  4a1b64: 5b                           	pop	ebx
  4a1b65: c3                           	ret
  4a1b66: ff 74 24 0c                  	push	dword ptr [esp + 0xc]
  4a1b6a: ff 74 24 0c                  	push	dword ptr [esp + 0xc]
  4a1b6e: ff 74 24 0c                  	push	dword ptr [esp + 0xc]
  4a1b72: ff 74 24 0c                  	push	dword ptr [esp + 0xc]
  4a1b76: e8 a5 1d 02 00               	call	0x4c3920 <.text+0xc2920>
  4a1b7b: 83 c4 10                     	add	esp, 0x10
  4a1b7e: 84 c0                        	test	al, al
  4a1b80: 74 36                        	je	0x4a1bb8 <.text+0xa0bb8>
  4a1b82: ff 74 24 0c                  	push	dword ptr [esp + 0xc]
  4a1b86: ff 74 24 0c                  	push	dword ptr [esp + 0xc]
  4a1b8a: ff 74 24 0c                  	push	dword ptr [esp + 0xc]
  4a1b8e: ff 74 24 0c                  	push	dword ptr [esp + 0xc]
  4a1b92: e8 a9 29 02 00               	call	0x4c4540 <.text+0xc3540>
  4a1b97: 83 c4 10                     	add	esp, 0x10
  4a1b9a: 89 44 24 10                  	mov	dword ptr [esp + 0x10], eax
  4a1b9e: 89 54 24 14                  	mov	dword ptr [esp + 0x14], edx
  4a1ba2: 89 c1                        	mov	ecx, eax
  4a1ba4: 89 d0                        	mov	eax, edx
  4a1ba6: 89 0b                        	mov	dword ptr [ebx], ecx
  4a1ba8: 89 43 04                     	mov	dword ptr [ebx + 0x4], eax
  4a1bab: b8 01 00 00 00               	mov	eax, 0x1
  4a1bb0: 83 c4 18                     	add	esp, 0x18
  4a1bb3: 5d                           	pop	ebp
  4a1bb4: 5f                           	pop	edi
  4a1bb5: 5e                           	pop	esi
  4a1bb6: 5b                           	pop	ebx
  4a1bb7: c3                           	ret
  4a1bb8: 31 c0                        	xor	eax, eax
  4a1bba: 83 c4 18                     	add	esp, 0x18
  4a1bbd: 5d                           	pop	ebp
  4a1bbe: 5f                           	pop	edi
  4a1bbf: 5e                           	pop	esi
  4a1bc0: 5b                           	pop	ebx
  4a1bc1: c3                           	ret
		...
  4a1bce: 00 00                        	add	byte ptr [eax], al
  4a1bd0: 53                           	push	ebx
  4a1bd1: 56                           	push	esi
  4a1bd2: 57                           	push	edi
  4a1bd3: 55                           	push	ebp
  4a1bd4: 83 ec 30                     	sub	esp, 0x30
  4a1bd7: 8b 74 24 44                  	mov	esi, dword ptr [esp + 0x44]
  4a1bdb: 8b 5c 24 48                  	mov	ebx, dword ptr [esp + 0x48]
  4a1bdf: 8b 4e 14                     	mov	ecx, dword ptr [esi + 0x14]
  4a1be2: 8b 41 24                     	mov	eax, dword ptr [ecx + 0x24]
  4a1be5: 89 44 24 08                  	mov	dword ptr [esp + 0x8], eax
  4a1be9: 8b 06                        	mov	eax, dword ptr [esi]
  4a1beb: 83 e0 01                     	and	eax, 0x1
  4a1bee: 74 10                        	je	0x4a1c00 <.text+0xa0c00>
  4a1bf0: 8b 46 18                     	mov	eax, dword ptr [esi + 0x18]
  4a1bf3: 8b 78 24                     	mov	edi, dword ptr [eax + 0x24]
  4a1bf6: 89 7c 24 04                  	mov	dword ptr [esp + 0x4], edi
  4a1bfa: 8b 47 0e                     	mov	eax, dword ptr [edi + 0xe]
  4a1bfd: eb 0e                        	jmp	0x4a1c0d <.text+0xa0c0d>
  4a1bff: 90                           	nop
  4a1c00: 8b 46 18                     	mov	eax, dword ptr [esi + 0x18]
  4a1c03: 8b 68 20                     	mov	ebp, dword ptr [eax + 0x20]
  4a1c06: 89 6c 24 04                  	mov	dword ptr [esp + 0x4], ebp
  4a1c0a: 8b 45 0e                     	mov	eax, dword ptr [ebp + 0xe]
  4a1c0d: 50                           	push	eax
  4a1c0e: e8 1d 64 04 00               	call	0x4e8030 <.text+0xe7030>
  4a1c13: 59                           	pop	ecx
  4a1c14: 0f b6 c8                     	movzx	ecx, al
  4a1c17: 89 4c 24 0c                  	mov	dword ptr [esp + 0xc], ecx
  4a1c1b: ff 74 24 08                  	push	dword ptr [esp + 0x8]
  4a1c1f: e8 6c 86 fc ff               	call	0x46a290 <.text+0x69290>
  4a1c24: 59                           	pop	ecx
  4a1c25: 84 c0                        	test	al, al
  4a1c27: 0f 84 03 02 00 00            	je	0x4a1e30 <.text+0xa0e30>
  4a1c2d: ff 74 24 04                  	push	dword ptr [esp + 0x4]
  4a1c31: e8 5a 86 fc ff               	call	0x46a290 <.text+0x69290>
  4a1c36: 59                           	pop	ecx
  4a1c37: 84 c0                        	test	al, al
  4a1c39: 0f 84 f1 01 00 00            	je	0x4a1e30 <.text+0xa0e30>
  4a1c3f: 8b 44 24 08                  	mov	eax, dword ptr [esp + 0x8]
  4a1c43: 8b 50 20                     	mov	edx, dword ptr [eax + 0x20]
  4a1c46: 8b 6a 0e                     	mov	ebp, dword ptr [edx + 0xe]
  4a1c49: 8b 42 12                     	mov	eax, dword ptr [edx + 0x12]
  4a1c4c: 89 6c 24 10                  	mov	dword ptr [esp + 0x10], ebp
  4a1c50: 89 44 24 14                  	mov	dword ptr [esp + 0x14], eax
  4a1c54: 8b 44 24 04                  	mov	eax, dword ptr [esp + 0x4]
  4a1c58: 8b 78 20                     	mov	edi, dword ptr [eax + 0x20]
  4a1c5b: 8b 4f 0e                     	mov	ecx, dword ptr [edi + 0xe]
  4a1c5e: 8b 47 12                     	mov	eax, dword ptr [edi + 0x12]
  4a1c61: 89 4c 24 18                  	mov	dword ptr [esp + 0x18], ecx
  4a1c65: 89 44 24 1c                  	mov	dword ptr [esp + 0x1c], eax
  4a1c69: 83 7c 24 0c 00               	cmp	dword ptr [esp + 0xc], 0x0
  4a1c6e: 74 20                        	je	0x4a1c90 <.text+0xa0c90>
  4a1c70: ff 74 24 14                  	push	dword ptr [esp + 0x14]
  4a1c74: 55                           	push	ebp
  4a1c75: 50                           	push	eax
  4a1c76: 51                           	push	ecx
  4a1c77: e8 34 1b 02 00               	call	0x4c37b0 <.text+0xc27b0>
  4a1c7c: 83 c4 10                     	add	esp, 0x10
  4a1c7f: 84 c0                        	test	al, al
  4a1c81: 74 33                        	je	0x4a1cb6 <.text+0xa0cb6>
  4a1c83: 31 c0                        	xor	eax, eax
  4a1c85: 83 c4 30                     	add	esp, 0x30
  4a1c88: 5d                           	pop	ebp
  4a1c89: 5f                           	pop	edi
  4a1c8a: 5e                           	pop	esi
  4a1c8b: 5b                           	pop	ebx
  4a1c8c: c3                           	ret
  4a1c8d: 8d 40 00                     	lea	eax, [eax]
  4a1c90: ff 74 24 14                  	push	dword ptr [esp + 0x14]
  4a1c94: ff 74 24 14                  	push	dword ptr [esp + 0x14]
  4a1c98: ff 74 24 24                  	push	dword ptr [esp + 0x24]
  4a1c9c: ff 74 24 24                  	push	dword ptr [esp + 0x24]
  4a1ca0: e8 5b 1b 02 00               	call	0x4c3800 <.text+0xc2800>
  4a1ca5: 83 c4 10                     	add	esp, 0x10
  4a1ca8: 84 c0                        	test	al, al
  4a1caa: 74 0a                        	je	0x4a1cb6 <.text+0xa0cb6>
  4a1cac: 31 c0                        	xor	eax, eax
  4a1cae: 83 c4 30                     	add	esp, 0x30
  4a1cb1: 5d                           	pop	ebp
  4a1cb2: 5f                           	pop	edi
  4a1cb3: 5e                           	pop	esi
  4a1cb4: 5b                           	pop	ebx
  4a1cb5: c3                           	ret
  4a1cb6: 8b 46 1c                     	mov	eax, dword ptr [esi + 0x1c]
  4a1cb9: 8b 68 0e                     	mov	ebp, dword ptr [eax + 0xe]
  4a1cbc: 89 6c 24 24                  	mov	dword ptr [esp + 0x24], ebp
  4a1cc0: 85 ed                        	test	ebp, ebp
  4a1cc2: 7d 0c                        	jge	0x4a1cd0 <.text+0xa0cd0>
  4a1cc4: 83 c8 ff                     	or	eax, -0x1
  4a1cc7: eb 09                        	jmp	0x4a1cd2 <.text+0xa0cd2>
  4a1cc9: 8d 84 20 00 00 00 00         	lea	eax, [eax + eiz]
  4a1cd0: 31 c0                        	xor	eax, eax
  4a1cd2: 89 44 24 20                  	mov	dword ptr [esp + 0x20], eax
  4a1cd6: 83 4c 24 2c ff               	or	dword ptr [esp + 0x2c], -0x1
  4a1cdb: 83 4c 24 28 ff               	or	dword ptr [esp + 0x28], -0x1
  4a1ce0: ff 74 24 14                  	push	dword ptr [esp + 0x14]
  4a1ce4: ff 74 24 14                  	push	dword ptr [esp + 0x14]
  4a1ce8: ff 74 24 24                  	push	dword ptr [esp + 0x24]
  4a1cec: ff 74 24 24                  	push	dword ptr [esp + 0x24]
  4a1cf0: e8 4b 28 02 00               	call	0x4c4540 <.text+0xc3540>
  4a1cf5: 83 c4 10                     	add	esp, 0x10
  4a1cf8: 89 03                        	mov	dword ptr [ebx], eax
  4a1cfa: 89 53 04                     	mov	dword ptr [ebx + 0x4], edx
  4a1cfd: ff 74 24 24                  	push	dword ptr [esp + 0x24]
  4a1d01: ff 74 24 24                  	push	dword ptr [esp + 0x24]
  4a1d05: ff 73 04                     	push	dword ptr [ebx + 0x4]
  4a1d08: ff 33                        	push	dword ptr [ebx]
  4a1d0a: e8 e1 28 02 00               	call	0x4c45f0 <.text+0xc35f0>
  4a1d0f: 83 c4 10                     	add	esp, 0x10
  4a1d12: 89 03                        	mov	dword ptr [ebx], eax
  4a1d14: 89 53 04                     	mov	dword ptr [ebx + 0x4], edx
  4a1d17: 8b 46 18                     	mov	eax, dword ptr [esi + 0x18]
  4a1d1a: 80 38 03                     	cmp	byte ptr [eax], 0x3
  4a1d1d: 75 20                        	jne	0x4a1d3f <.text+0xa0d3f>
  4a1d1f: 80 78 01 13                  	cmp	byte ptr [eax + 0x1], 0x13
  4a1d23: 75 1a                        	jne	0x4a1d3f <.text+0xa0d3f>
  4a1d25: ff 74 24 2c                  	push	dword ptr [esp + 0x2c]
  4a1d29: ff 74 24 2c                  	push	dword ptr [esp + 0x2c]
  4a1d2d: ff 73 04                     	push	dword ptr [ebx + 0x4]
  4a1d30: ff 33                        	push	dword ptr [ebx]
  4a1d32: e8 b9 28 02 00               	call	0x4c45f0 <.text+0xc35f0>
  4a1d37: 83 c4 10                     	add	esp, 0x10
  4a1d3a: 89 03                        	mov	dword ptr [ebx], eax
  4a1d3c: 89 53 04                     	mov	dword ptr [ebx + 0x4], edx
  4a1d3f: 31 c0                        	xor	eax, eax
  4a1d41: 39 44 24 20                  	cmp	dword ptr [esp + 0x20], eax
  4a1d45: 75 07                        	jne	0x4a1d4e <.text+0xa0d4e>
  4a1d47: 39 44 24 24                  	cmp	dword ptr [esp + 0x24], eax
  4a1d4b: 75 01                        	jne	0x4a1d4e <.text+0xa0d4e>
  4a1d4d: 40                           	inc	eax
  4a1d4e: 84 c0                        	test	al, al
  4a1d50: 74 11                        	je	0x4a1d63 <.text+0xa0d63>
  4a1d52: 68 b6 09 00 00               	push	0x9b6
  4a1d57: 68 20 e5 5a 00               	push	0x5ae520
  4a1d5c: e8 ff 19 fc ff               	call	0x463760 <.text+0x62760>
  4a1d61: 59                           	pop	ecx
  4a1d62: 59                           	pop	ecx
  4a1d63: 83 7c 24 0c 00               	cmp	dword ptr [esp + 0xc], 0x0
  4a1d68: 74 16                        	je	0x4a1d80 <.text+0xa0d80>
  4a1d6a: ff 74 24 24                  	push	dword ptr [esp + 0x24]
  4a1d6e: ff 74 24 24                  	push	dword ptr [esp + 0x24]
  4a1d72: ff 73 04                     	push	dword ptr [ebx + 0x4]
  4a1d75: ff 33                        	push	dword ptr [ebx]
  4a1d77: e8 b4 20 02 00               	call	0x4c3e30 <.text+0xc2e30>
  4a1d7c: eb 14                        	jmp	0x4a1d92 <.text+0xa0d92>
  4a1d7e: 89 c0                        	mov	eax, eax
  4a1d80: ff 74 24 24                  	push	dword ptr [esp + 0x24]
  4a1d84: ff 74 24 24                  	push	dword ptr [esp + 0x24]
  4a1d88: ff 73 04                     	push	dword ptr [ebx + 0x4]
  4a1d8b: ff 33                        	push	dword ptr [ebx]
  4a1d8d: e8 ce 20 02 00               	call	0x4c3e60 <.text+0xc2e60>
  4a1d92: 83 c4 10                     	add	esp, 0x10
  4a1d95: 89 03                        	mov	dword ptr [ebx], eax
  4a1d97: 89 53 04                     	mov	dword ptr [ebx + 0x4], edx
  4a1d9a: ff 35 94 0c 5b 00            	push	dword ptr [0x5b0c94]
  4a1da0: ff 35 90 0c 5b 00            	push	dword ptr [0x5b0c90]
  4a1da6: ff 73 04                     	push	dword ptr [ebx + 0x4]
  4a1da9: ff 33                        	push	dword ptr [ebx]
  4a1dab: e8 c0 18 02 00               	call	0x4c3670 <.text+0xc2670>
  4a1db0: 83 c4 10                     	add	esp, 0x10
  4a1db3: 84 c0                        	test	al, al
  4a1db5: 74 0a                        	je	0x4a1dc1 <.text+0xa0dc1>
  4a1db7: 31 c0                        	xor	eax, eax
  4a1db9: 83 c4 30                     	add	esp, 0x30
  4a1dbc: 5d                           	pop	ebp
  4a1dbd: 5f                           	pop	edi
  4a1dbe: 5e                           	pop	esi
  4a1dbf: 5b                           	pop	ebx
  4a1dc0: c3                           	ret
  4a1dc1: 83 7c 24 0c 00               	cmp	dword ptr [esp + 0xc], 0x0
  4a1dc6: 74 28                        	je	0x4a1df0 <.text+0xa0df0>
  4a1dc8: ff 35 94 0c 5b 00            	push	dword ptr [0x5b0c94]
  4a1dce: ff 35 90 0c 5b 00            	push	dword ptr [0x5b0c90]
  4a1dd4: ff 73 04                     	push	dword ptr [ebx + 0x4]
  4a1dd7: ff 33                        	push	dword ptr [ebx]
  4a1dd9: e8 d2 19 02 00               	call	0x4c37b0 <.text+0xc27b0>
  4a1dde: 83 c4 10                     	add	esp, 0x10
  4a1de1: 84 c0                        	test	al, al
  4a1de3: 74 39                        	je	0x4a1e1e <.text+0xa0e1e>
  4a1de5: 68 cc 09 00 00               	push	0x9cc
  4a1dea: eb 26                        	jmp	0x4a1e12 <.text+0xa0e12>
  4a1dec: 8d 44 20 00                  	lea	eax, [eax + eiz]
  4a1df0: ff 35 94 0c 5b 00            	push	dword ptr [0x5b0c94]
  4a1df6: ff 35 90 0c 5b 00            	push	dword ptr [0x5b0c90]
  4a1dfc: ff 73 04                     	push	dword ptr [ebx + 0x4]
  4a1dff: ff 33                        	push	dword ptr [ebx]
  4a1e01: e8 fa 19 02 00               	call	0x4c3800 <.text+0xc2800>
  4a1e06: 83 c4 10                     	add	esp, 0x10
  4a1e09: 84 c0                        	test	al, al
  4a1e0b: 74 11                        	je	0x4a1e1e <.text+0xa0e1e>
  4a1e0d: 68 d5 09 00 00               	push	0x9d5
  4a1e12: 68 20 e5 5a 00               	push	0x5ae520
  4a1e17: e8 44 19 fc ff               	call	0x463760 <.text+0x62760>
  4a1e1c: 59                           	pop	ecx
  4a1e1d: 59                           	pop	ecx
  4a1e1e: b8 01 00 00 00               	mov	eax, 0x1
  4a1e23: 83 c4 30                     	add	esp, 0x30
  4a1e26: 5d                           	pop	ebp
  4a1e27: 5f                           	pop	edi
  4a1e28: 5e                           	pop	esi
  4a1e29: 5b                           	pop	ebx
  4a1e2a: c3                           	ret
  4a1e2b: 89 c0                        	mov	eax, eax
  4a1e2d: 8d 40 00                     	lea	eax, [eax]
  4a1e30: ff 74 24 08                  	push	dword ptr [esp + 0x8]
  4a1e34: e8 f7 64 fc ff               	call	0x468330 <.text+0x67330>
  4a1e39: 59                           	pop	ecx
  4a1e3a: 89 c5                        	mov	ebp, eax
  4a1e3c: ff 74 24 04                  	push	dword ptr [esp + 0x4]
  4a1e40: e8 eb 64 fc ff               	call	0x468330 <.text+0x67330>
  4a1e45: 59                           	pop	ecx
  4a1e46: 89 c7                        	mov	edi, eax
  4a1e48: 8b 44 24 08                  	mov	eax, dword ptr [esp + 0x8]
  4a1e4c: 80 38 03                     	cmp	byte ptr [eax], 0x3
  4a1e4f: 75 11                        	jne	0x4a1e62 <.text+0xa0e62>
  4a1e51: 80 78 01 0f                  	cmp	byte ptr [eax + 0x1], 0xf
  4a1e55: 75 0b                        	jne	0x4a1e62 <.text+0xa0e62>
  4a1e57: 55                           	push	ebp
  4a1e58: 50                           	push	eax
  4a1e59: e8 22 0a fc ff               	call	0x462880 <.text+0x61880>
  4a1e5e: 59                           	pop	ecx
  4a1e5f: 59                           	pop	ecx
  4a1e60: eb 4e                        	jmp	0x4a1eb0 <.text+0xa0eb0>
  4a1e62: ff 74 24 08                  	push	dword ptr [esp + 0x8]
  4a1e66: e8 25 84 fc ff               	call	0x46a290 <.text+0x69290>
  4a1e6b: 59                           	pop	ecx
  4a1e6c: 84 c0                        	test	al, al
  4a1e6e: 74 21                        	je	0x4a1e91 <.text+0xa0e91>
  4a1e70: 66 ff 45 10                  	inc	word ptr [ebp + 0x10]
  4a1e74: 8d 45 12                     	lea	eax, [ebp + 0x12]
  4a1e77: 50                           	push	eax
  4a1e78: ff 74 24 0c                  	push	dword ptr [esp + 0xc]
  4a1e7c: e8 7f 0b fc ff               	call	0x462a00 <.text+0x61a00>
  4a1e81: 59                           	pop	ecx
  4a1e82: 59                           	pop	ecx
  4a1e83: 66 c7 45 04 00 00            	mov	word ptr [ebp + 0x4], 0x0
  4a1e89: 66 c7 45 0a 00 00            	mov	word ptr [ebp + 0xa], 0x0
  4a1e8f: eb 1f                        	jmp	0x4a1eb0 <.text+0xa0eb0>
  4a1e91: 66 ff 45 0a                  	inc	word ptr [ebp + 0xa]
  4a1e95: 8d 45 0c                     	lea	eax, [ebp + 0xc]
  4a1e98: 50                           	push	eax
  4a1e99: ff 74 24 0c                  	push	dword ptr [esp + 0xc]
  4a1e9d: e8 5e 0b fc ff               	call	0x462a00 <.text+0x61a00>
  4a1ea2: 59                           	pop	ecx
  4a1ea3: 59                           	pop	ecx
  4a1ea4: 66 c7 45 04 00 00            	mov	word ptr [ebp + 0x4], 0x0
  4a1eaa: 66 c7 45 10 00 00            	mov	word ptr [ebp + 0x10], 0x0
  4a1eb0: 8b 44 24 04                  	mov	eax, dword ptr [esp + 0x4]
  4a1eb4: 80 38 03                     	cmp	byte ptr [eax], 0x3
  4a1eb7: 75 17                        	jne	0x4a1ed0 <.text+0xa0ed0>
  4a1eb9: 80 78 01 0f                  	cmp	byte ptr [eax + 0x1], 0xf
  4a1ebd: 75 11                        	jne	0x4a1ed0 <.text+0xa0ed0>
  4a1ebf: 57                           	push	edi
  4a1ec0: 50                           	push	eax
  4a1ec1: e8 ba 09 fc ff               	call	0x462880 <.text+0x61880>
  4a1ec6: 59                           	pop	ecx
  4a1ec7: 59                           	pop	ecx
  4a1ec8: eb 55                        	jmp	0x4a1f1f <.text+0xa0f1f>
  4a1eca: 8d 80 00 00 00 00            	lea	eax, [eax]
  4a1ed0: ff 74 24 04                  	push	dword ptr [esp + 0x4]
  4a1ed4: e8 b7 83 fc ff               	call	0x46a290 <.text+0x69290>
  4a1ed9: 59                           	pop	ecx
  4a1eda: 84 c0                        	test	al, al
  4a1edc: 74 22                        	je	0x4a1f00 <.text+0xa0f00>
  4a1ede: 66 ff 47 10                  	inc	word ptr [edi + 0x10]
  4a1ee2: 8d 47 12                     	lea	eax, [edi + 0x12]
  4a1ee5: 50                           	push	eax
  4a1ee6: ff 74 24 08                  	push	dword ptr [esp + 0x8]
  4a1eea: e8 11 0b fc ff               	call	0x462a00 <.text+0x61a00>
  4a1eef: 59                           	pop	ecx
  4a1ef0: 59                           	pop	ecx
  4a1ef1: 66 c7 47 04 00 00            	mov	word ptr [edi + 0x4], 0x0
  4a1ef7: 66 c7 47 0a 00 00            	mov	word ptr [edi + 0xa], 0x0
  4a1efd: eb 20                        	jmp	0x4a1f1f <.text+0xa0f1f>
  4a1eff: 90                           	nop
  4a1f00: 66 ff 47 0a                  	inc	word ptr [edi + 0xa]
  4a1f04: 8d 47 0c                     	lea	eax, [edi + 0xc]
  4a1f07: 50                           	push	eax
  4a1f08: ff 74 24 08                  	push	dword ptr [esp + 0x8]
  4a1f0c: e8 ef 0a fc ff               	call	0x462a00 <.text+0x61a00>
  4a1f11: 59                           	pop	ecx
  4a1f12: 59                           	pop	ecx
  4a1f13: 66 c7 47 04 00 00            	mov	word ptr [edi + 0x4], 0x0
  4a1f19: 66 c7 47 10 00 00            	mov	word ptr [edi + 0x10], 0x0
  4a1f1f: 53                           	push	ebx
  4a1f20: ff 74 24 10                  	push	dword ptr [esp + 0x10]
  4a1f24: 57                           	push	edi
  4a1f25: 55                           	push	ebp
  4a1f26: e8 e5 fa ff ff               	call	0x4a1a10 <.text+0xa0a10>
  4a1f2b: 83 c4 10                     	add	esp, 0x10
  4a1f2e: 85 c0                        	test	eax, eax
  4a1f30: 74 3e                        	je	0x4a1f70 <.text+0xa0f70>
  4a1f32: 8b 46 18                     	mov	eax, dword ptr [esi + 0x18]
  4a1f35: 80 38 03                     	cmp	byte ptr [eax], 0x3
  4a1f38: 75 24                        	jne	0x4a1f5e <.text+0xa0f5e>
  4a1f3a: 80 78 01 15                  	cmp	byte ptr [eax + 0x1], 0x15
  4a1f3e: 75 1e                        	jne	0x4a1f5e <.text+0xa0f5e>
  4a1f40: ff 35 9c 0c 5b 00            	push	dword ptr [0x5b0c9c]
  4a1f46: ff 35 98 0c 5b 00            	push	dword ptr [0x5b0c98]
  4a1f4c: ff 73 04                     	push	dword ptr [ebx + 0x4]
  4a1f4f: ff 33                        	push	dword ptr [ebx]
  4a1f51: e8 9a 26 02 00               	call	0x4c45f0 <.text+0xc35f0>
  4a1f56: 83 c4 10                     	add	esp, 0x10
  4a1f59: 89 03                        	mov	dword ptr [ebx], eax
  4a1f5b: 89 53 04                     	mov	dword ptr [ebx + 0x4], edx
  4a1f5e: b8 01 00 00 00               	mov	eax, 0x1
  4a1f63: 83 c4 30                     	add	esp, 0x30
  4a1f66: 5d                           	pop	ebp
  4a1f67: 5f                           	pop	edi
  4a1f68: 5e                           	pop	esi
  4a1f69: 5b                           	pop	ebx
  4a1f6a: c3                           	ret
  4a1f6b: 89 c0                        	mov	eax, eax
  4a1f6d: 8d 40 00                     	lea	eax, [eax]
  4a1f70: 31 c0                        	xor	eax, eax
  4a1f72: 83 c4 30                     	add	esp, 0x30
  4a1f75: 5d                           	pop	ebp
  4a1f76: 5f                           	pop	edi
  4a1f77: 5e                           	pop	esi
  4a1f78: 5b                           	pop	ebx
  4a1f79: c3                           	ret
  4a1f7a: 00 00                        	add	byte ptr [eax], al
  4a1f7c: 00 00                        	add	byte ptr [eax], al
  4a1f7e: 00 00                        	add	byte ptr [eax], al
  4a1f80: 53                           	push	ebx
  4a1f81: 55                           	push	ebp
  4a1f82: 83 ec 08                     	sub	esp, 0x8
  4a1f85: 8b 5c 24 14                  	mov	ebx, dword ptr [esp + 0x14]
  4a1f89: 8b 03                        	mov	eax, dword ptr [ebx]
  4a1f8b: 89 c1                        	mov	ecx, eax
  4a1f8d: 81 e1 00 80 00 00            	and	ecx, 0x8000
  4a1f93: 74 13                        	je	0x4a1fa8 <.text+0xa0fa8>
  4a1f95: 68 c8 e5 5a 00               	push	0x5ae5c8
  4a1f9a: e8 f1 2a fb ff               	call	0x454a90 <.text+0x53a90>
  4a1f9f: 59                           	pop	ecx
  4a1fa0: 31 c0                        	xor	eax, eax
  4a1fa2: 83 c4 08                     	add	esp, 0x8
  4a1fa5: 5d                           	pop	ebp
  4a1fa6: 5b                           	pop	ebx
  4a1fa7: c3                           	ret
  4a1fa8: 89 c2                        	mov	edx, eax
  4a1faa: 83 e2 20                     	and	edx, 0x20
  4a1fad: 74 13                        	je	0x4a1fc2 <.text+0xa0fc2>
  4a1faf: 68 f8 e5 5a 00               	push	0x5ae5f8
  4a1fb4: e8 d7 2a fb ff               	call	0x454a90 <.text+0x53a90>
  4a1fb9: 59                           	pop	ecx
  4a1fba: 31 c0                        	xor	eax, eax
  4a1fbc: 83 c4 08                     	add	esp, 0x8
  4a1fbf: 5d                           	pop	ebp
  4a1fc0: 5b                           	pop	ebx
  4a1fc1: c3                           	ret
  4a1fc2: 89 c1                        	mov	ecx, eax
  4a1fc4: 83 e1 02                     	and	ecx, 0x2
  4a1fc7: 74 17                        	je	0x4a1fe0 <.text+0xa0fe0>
  4a1fc9: 68 30 e6 5a 00               	push	0x5ae630
  4a1fce: e8 bd 2a fb ff               	call	0x454a90 <.text+0x53a90>
  4a1fd3: 59                           	pop	ecx
  4a1fd4: 31 c0                        	xor	eax, eax
  4a1fd6: 83 c4 08                     	add	esp, 0x8
  4a1fd9: 5d                           	pop	ebp
  4a1fda: 5b                           	pop	ebx
  4a1fdb: c3                           	ret
  4a1fdc: 8d 44 20 00                  	lea	eax, [eax + eiz]
  4a1fe0: 89 c2                        	mov	edx, eax
  4a1fe2: 83 e2 04                     	and	edx, 0x4
  4a1fe5: 74 19                        	je	0x4a2000 <.text+0xa1000>
  4a1fe7: 68 60 e6 5a 00               	push	0x5ae660
  4a1fec: e8 9f 2a fb ff               	call	0x454a90 <.text+0x53a90>
  4a1ff1: 59                           	pop	ecx
  4a1ff2: 31 c0                        	xor	eax, eax
  4a1ff4: 83 c4 08                     	add	esp, 0x8
  4a1ff7: 5d                           	pop	ebp
  4a1ff8: 5b                           	pop	ebx
  4a1ff9: c3                           	ret
  4a1ffa: 8d 80 00 00 00 00            	lea	eax, [eax]
  4a2000: 89 c1                        	mov	ecx, eax
  4a2002: 83 e1 10                     	and	ecx, 0x10
  4a2005: 74 19                        	je	0x4a2020 <.text+0xa1020>
  4a2007: 68 94 e6 5a 00               	push	0x5ae694
  4a200c: e8 7f 2a fb ff               	call	0x454a90 <.text+0x53a90>
  4a2011: 59                           	pop	ecx
  4a2012: 31 c0                        	xor	eax, eax
  4a2014: 83 c4 08                     	add	esp, 0x8
  4a2017: 5d                           	pop	ebp
  4a2018: 5b                           	pop	ebx
  4a2019: c3                           	ret
  4a201a: 8d 80 00 00 00 00            	lea	eax, [eax]
  4a2020: 89 c2                        	mov	edx, eax
  4a2022: 81 e2 80 00 00 00            	and	edx, 0x80
  4a2028: 74 16                        	je	0x4a2040 <.text+0xa1040>
  4a202a: 68 c8 e6 5a 00               	push	0x5ae6c8
  4a202f: e8 5c 2a fb ff               	call	0x454a90 <.text+0x53a90>
  4a2034: 59                           	pop	ecx
  4a2035: 31 c0                        	xor	eax, eax
  4a2037: 83 c4 08                     	add	esp, 0x8
  4a203a: 5d                           	pop	ebp
  4a203b: 5b                           	pop	ebx
  4a203c: c3                           	ret
  4a203d: 8d 40 00                     	lea	eax, [eax]
  4a2040: 89 c1                        	mov	ecx, eax
  4a2042: 81 e1 00 02 00 00            	and	ecx, 0x200
  4a2048: 75 16                        	jne	0x4a2060 <.text+0xa1060>
  4a204a: 68 04 e7 5a 00               	push	0x5ae704
  4a204f: e8 3c 2a fb ff               	call	0x454a90 <.text+0x53a90>
  4a2054: 59                           	pop	ecx
  4a2055: 31 c0                        	xor	eax, eax
  4a2057: 83 c4 08                     	add	esp, 0x8
  4a205a: 5d                           	pop	ebp
  4a205b: 5b                           	pop	ebx
  4a205c: c3                           	ret
  4a205d: 8d 40 00                     	lea	eax, [eax]
  4a2060: 25 00 00 01 00               	and	eax, 0x10000
  4a2065: 0f 85 25 01 00 00            	jne	0x4a2190 <.text+0xa1190>
  4a206b: 8b 43 18                     	mov	eax, dword ptr [ebx + 0x18]
  4a206e: 8b 68 24                     	mov	ebp, dword ptr [eax + 0x24]
  4a2071: 55                           	push	ebp
  4a2072: e8 19 82 fc ff               	call	0x46a290 <.text+0x69290>
  4a2077: 59                           	pop	ecx
  4a2078: 84 c0                        	test	al, al
  4a207a: 75 24                        	jne	0x4a20a0 <.text+0xa10a0>
  4a207c: 8b 45 02                     	mov	eax, dword ptr [ebp + 0x2]
  4a207f: 25 00 01 00 00               	and	eax, 0x100
  4a2084: 75 1a                        	jne	0x4a20a0 <.text+0xa10a0>
  4a2086: 68 4c e7 5a 00               	push	0x5ae74c
  4a208b: e8 00 2a fb ff               	call	0x454a90 <.text+0x53a90>
  4a2090: 59                           	pop	ecx
  4a2091: 31 c0                        	xor	eax, eax
  4a2093: 83 c4 08                     	add	esp, 0x8
  4a2096: 5d                           	pop	ebp
  4a2097: 5b                           	pop	ebx
  4a2098: c3                           	ret
  4a2099: 8d 84 20 00 00 00 00         	lea	eax, [eax + eiz]
  4a20a0: 8b 4b 14                     	mov	ecx, dword ptr [ebx + 0x14]
  4a20a3: 85 c9                        	test	ecx, ecx
  4a20a5: 75 19                        	jne	0x4a20c0 <.text+0xa10c0>
  4a20a7: 68 94 e7 5a 00               	push	0x5ae794
  4a20ac: e8 df 29 fb ff               	call	0x454a90 <.text+0x53a90>
  4a20b1: 59                           	pop	ecx
  4a20b2: 31 c0                        	xor	eax, eax
  4a20b4: 83 c4 08                     	add	esp, 0x8
  4a20b7: 5d                           	pop	ebp
  4a20b8: 5b                           	pop	ebx
  4a20b9: c3                           	ret
  4a20ba: 8d 80 00 00 00 00            	lea	eax, [eax]
  4a20c0: 8b 41 20                     	mov	eax, dword ptr [ecx + 0x20]
  4a20c3: 50                           	push	eax
  4a20c4: e8 67 82 fc ff               	call	0x46a330 <.text+0x69330>
  4a20c9: 59                           	pop	ecx
  4a20ca: 85 c0                        	test	eax, eax
  4a20cc: 75 13                        	jne	0x4a20e1 <.text+0xa10e1>
  4a20ce: 68 e8 e7 5a 00               	push	0x5ae7e8
  4a20d3: e8 b8 29 fb ff               	call	0x454a90 <.text+0x53a90>
  4a20d8: 59                           	pop	ecx
  4a20d9: 31 c0                        	xor	eax, eax
  4a20db: 83 c4 08                     	add	esp, 0x8
  4a20de: 5d                           	pop	ebp
  4a20df: 5b                           	pop	ebx
  4a20e0: c3                           	ret
  4a20e1: 8b 53 14                     	mov	edx, dword ptr [ebx + 0x14]
  4a20e4: 8b 42 0e                     	mov	eax, dword ptr [edx + 0xe]
  4a20e7: 50                           	push	eax
  4a20e8: e8 43 5f 04 00               	call	0x4e8030 <.text+0xe7030>
  4a20ed: 59                           	pop	ecx
  4a20ee: 84 c0                        	test	al, al
  4a20f0: 0f 85 7d 00 00 00            	jne	0x4a2173 <.text+0xa1173>
  4a20f6: 8b 4b 14                     	mov	ecx, dword ptr [ebx + 0x14]
  4a20f9: 8b 41 24                     	mov	eax, dword ptr [ecx + 0x24]
  4a20fc: 50                           	push	eax
  4a20fd: e8 8e 81 fc ff               	call	0x46a290 <.text+0x69290>
  4a2102: 59                           	pop	ecx
  4a2103: 84 c0                        	test	al, al
  4a2105: 74 3a                        	je	0x4a2141 <.text+0xa1141>
  4a2107: ff 35 94 0c 5b 00            	push	dword ptr [0x5b0c94]
  4a210d: ff 35 90 0c 5b 00            	push	dword ptr [0x5b0c90]
  4a2113: 8b 53 14                     	mov	edx, dword ptr [ebx + 0x14]
  4a2116: 8b 4a 24                     	mov	ecx, dword ptr [edx + 0x24]
  4a2119: 8b 41 20                     	mov	eax, dword ptr [ecx + 0x20]
  4a211c: ff 70 12                     	push	dword ptr [eax + 0x12]
  4a211f: ff 70 0e                     	push	dword ptr [eax + 0xe]
  4a2122: e8 b9 15 02 00               	call	0x4c36e0 <.text+0xc26e0>
  4a2127: 83 c4 10                     	add	esp, 0x10
  4a212a: 84 c0                        	test	al, al
  4a212c: 75 45                        	jne	0x4a2173 <.text+0xa1173>
  4a212e: 68 34 e8 5a 00               	push	0x5ae834
  4a2133: e8 58 29 fb ff               	call	0x454a90 <.text+0x53a90>
  4a2138: 59                           	pop	ecx
  4a2139: 31 c0                        	xor	eax, eax
  4a213b: 83 c4 08                     	add	esp, 0x8
  4a213e: 5d                           	pop	ebp
  4a213f: 5b                           	pop	ebx
  4a2140: c3                           	ret
  4a2141: 8d 04 24                     	lea	eax, [esp]
  4a2144: 50                           	push	eax
  4a2145: 53                           	push	ebx
  4a2146: e8 85 fa ff ff               	call	0x4a1bd0 <.text+0xa0bd0>
  4a214b: 59                           	pop	ecx
  4a214c: 59                           	pop	ecx
  4a214d: 85 c0                        	test	eax, eax
  4a214f: 74 0f                        	je	0x4a2160 <.text+0xa1160>
  4a2151: 68 84 e8 5a 00               	push	0x5ae884
  4a2156: e8 35 29 fb ff               	call	0x454a90 <.text+0x53a90>
  4a215b: 59                           	pop	ecx
  4a215c: eb 15                        	jmp	0x4a2173 <.text+0xa1173>
  4a215e: 89 c0                        	mov	eax, eax
  4a2160: 68 c4 e8 5a 00               	push	0x5ae8c4
  4a2165: e8 26 29 fb ff               	call	0x454a90 <.text+0x53a90>
  4a216a: 59                           	pop	ecx
  4a216b: 31 c0                        	xor	eax, eax
  4a216d: 83 c4 08                     	add	esp, 0x8
  4a2170: 5d                           	pop	ebp
  4a2171: 5b                           	pop	ebx
  4a2172: c3                           	ret
  4a2173: 8b 03                        	mov	eax, dword ptr [ebx]
  4a2175: 25 00 01 00 00               	and	eax, 0x100
  4a217a: 75 57                        	jne	0x4a21d3 <.text+0xa11d3>
  4a217c: 68 18 e9 5a 00               	push	0x5ae918
  4a2181: e8 0a 29 fb ff               	call	0x454a90 <.text+0x53a90>
  4a2186: 59                           	pop	ecx
  4a2187: 31 c0                        	xor	eax, eax
  4a2189: 83 c4 08                     	add	esp, 0x8
  4a218c: 5d                           	pop	ebp
  4a218d: 5b                           	pop	ebx
  4a218e: c3                           	ret
  4a218f: 90                           	nop
  4a2190: 8b 53 18                     	mov	edx, dword ptr [ebx + 0x18]
  4a2193: 8b 4a 20                     	mov	ecx, dword ptr [edx + 0x20]
  4a2196: 8b 41 0e                     	mov	eax, dword ptr [ecx + 0xe]
  4a2199: 50                           	push	eax
  4a219a: e8 91 5e 04 00               	call	0x4e8030 <.text+0xe7030>
  4a219f: 59                           	pop	ecx
  4a21a0: 84 c0                        	test	al, al
  4a21a2: 75 13                        	jne	0x4a21b7 <.text+0xa11b7>
  4a21a4: 68 78 e9 5a 00               	push	0x5ae978
  4a21a9: e8 e2 28 fb ff               	call	0x454a90 <.text+0x53a90>
  4a21ae: 59                           	pop	ecx
  4a21af: 31 c0                        	xor	eax, eax
  4a21b1: 83 c4 08                     	add	esp, 0x8
  4a21b4: 5d                           	pop	ebp
  4a21b5: 5b                           	pop	ebx
  4a21b6: c3                           	ret
  4a21b7: 8b 03                        	mov	eax, dword ptr [ebx]
  4a21b9: 25 00 20 00 00               	and	eax, 0x2000
  4a21be: 75 13                        	jne	0x4a21d3 <.text+0xa11d3>
  4a21c0: 68 b8 e9 5a 00               	push	0x5ae9b8
  4a21c5: e8 c6 28 fb ff               	call	0x454a90 <.text+0x53a90>
  4a21ca: 59                           	pop	ecx
  4a21cb: 31 c0                        	xor	eax, eax
  4a21cd: 83 c4 08                     	add	esp, 0x8
  4a21d0: 5d                           	pop	ebp
  4a21d1: 5b                           	pop	ebx
  4a21d2: c3                           	ret
  4a21d3: 0f be 05 19 49 5e 00         	movsx	eax, byte ptr [0x5e4919]
  4a21da: 39 43 38                     	cmp	dword ptr [ebx + 0x38], eax
  4a21dd: 7e 13                        	jle	0x4a21f2 <.text+0xa11f2>
  4a21df: 68 08 ea 5a 00               	push	0x5aea08
  4a21e4: e8 a7 28 fb ff               	call	0x454a90 <.text+0x53a90>
  4a21e9: 59                           	pop	ecx
  4a21ea: 31 c0                        	xor	eax, eax
  4a21ec: 83 c4 08                     	add	esp, 0x8
  4a21ef: 5d                           	pop	ebp
  4a21f0: 5b                           	pop	ebx
  4a21f1: c3                           	ret
  4a21f2: b8 01 00 00 00               	mov	eax, 0x1
  4a21f7: 83 c4 08                     	add	esp, 0x8
  4a21fa: 5d                           	pop	ebp
  4a21fb: 5b                           	pop	ebx
  4a21fc: c3                           	ret
  4a21fd: 00 00                        	add	byte ptr [eax], al
  4a21ff: 00 53 56                     	add	byte ptr [ebx + 0x56], dl
  4a2202: 57                           	push	edi
  4a2203: 55                           	push	ebp
  4a2204: 83 ec 10                     	sub	esp, 0x10
  4a2207: c7 44 24 0c 00 00 00 00      	mov	dword ptr [esp + 0xc], 0x0
  4a220f: 8b 44 24 28                  	mov	eax, dword ptr [esp + 0x28]
  4a2213: a3 5c 97 5e 00               	mov	dword ptr [0x5e975c], eax
  4a2218: e8 43 6b 00 00               	call	0x4a8d60 <.text+0xa7d60>
  4a221d: a1 a4 96 5e 00               	mov	eax, dword ptr [0x5e96a4]
  4a2222: 85 c0                        	test	eax, eax
  4a2224: 74 0b                        	je	0x4a2231 <.text+0xa1231>
  4a2226: c6 40 0a 01                  	mov	byte ptr [eax + 0xa], 0x1
  4a222a: 8b 40 0e                     	mov	eax, dword ptr [eax + 0xe]
  4a222d: 85 c0                        	test	eax, eax
  4a222f: 75 f5                        	jne	0x4a2226 <.text+0xa1226>
  4a2231: e8 3a 4d 00 00               	call	0x4a6f70 <.text+0xa5f70>
  4a2236: e8 75 4c 00 00               	call	0x4a6eb0 <.text+0xa5eb0>
  4a223b: e8 d0 46 00 00               	call	0x4a6910 <.text+0xa5910>
  4a2240: 8b 44 24 28                  	mov	eax, dword ptr [esp + 0x28]
  4a2244: a3 5c 97 5e 00               	mov	dword ptr [0x5e975c], eax
  4a2249: c6 05 64 a3 5e 00 00         	mov	byte ptr [0x5ea364], 0x0
  4a2250: 31 d2                        	xor	edx, edx
  4a2252: 31 ff                        	xor	edi, edi
  4a2254: 31 db                        	xor	ebx, ebx
  4a2256: eb 65                        	jmp	0x4a22bd <.text+0xa12bd>
  4a2258: 0f b7 eb                     	movzx	ebp, bx
  4a225b: a1 5c 97 5e 00               	mov	eax, dword ptr [0x5e975c]
  4a2260: 8b 70 0a                     	mov	esi, dword ptr [eax + 0xa]
  4a2263: 0f b7 0c 6e                  	movzx	ecx, word ptr [esi + 2*ebp]
  4a2267: a1 b0 99 5e 00               	mov	eax, dword ptr [0x5e99b0]
  4a226c: 8b 34 88                     	mov	esi, dword ptr [eax + 4*ecx]
  4a226f: 0f b7 0e                     	movzx	ecx, word ptr [esi]
  4a2272: 89 cd                        	mov	ebp, ecx
  4a2274: c1 fd 05                     	sar	ebp, 0x5
  4a2277: a1 64 9b 5e 00               	mov	eax, dword ptr [0x5e9b64]
  4a227c: 3b 28                        	cmp	ebp, dword ptr [eax]
  4a227e: 73 13                        	jae	0x4a2293 <.text+0xa1293>
  4a2280: b8 01 00 00 00               	mov	eax, 0x1
  4a2285: d3 e0                        	shl	eax, cl
  4a2287: 8b 0d 64 9b 5e 00            	mov	ecx, dword ptr [0x5e9b64]
  4a228d: 23 44 a9 04                  	and	eax, dword ptr [ecx + 4*ebp + 0x4]
  4a2291: 75 29                        	jne	0x4a22bc <.text+0xa12bc>
  4a2293: bf 01 00 00 00               	mov	edi, 0x1
  4a2298: 8b 44 24 28                  	mov	eax, dword ptr [esp + 0x28]
  4a229c: 39 46 32                     	cmp	dword ptr [esi + 0x32], eax
  4a229f: 75 1b                        	jne	0x4a22bc <.text+0xa12bc>
  4a22a1: 85 d2                        	test	edx, edx
  4a22a3: 74 15                        	je	0x4a22ba <.text+0xa12ba>
  4a22a5: 39 d6                        	cmp	esi, edx
  4a22a7: 74 11                        	je	0x4a22ba <.text+0xa12ba>
  4a22a9: 68 35 08 00 00               	push	0x835
  4a22ae: 68 20 e5 5a 00               	push	0x5ae520
  4a22b3: e8 a8 14 fc ff               	call	0x463760 <.text+0x62760>
  4a22b8: 59                           	pop	ecx
  4a22b9: 59                           	pop	ecx
  4a22ba: 89 f2                        	mov	edx, esi
  4a22bc: 43                           	inc	ebx
  4a22bd: a1 5c 97 5e 00               	mov	eax, dword ptr [0x5e975c]
  4a22c2: 66 3b 58 08                  	cmp	bx, word ptr [eax + 0x8]
  4a22c6: 72 90                        	jb	0x4a2258 <.text+0xa1258>
  4a22c8: 85 ff                        	test	edi, edi
  4a22ca: 75 14                        	jne	0x4a22e0 <.text+0xa12e0>
  4a22cc: 68 48 ea 5a 00               	push	0x5aea48
  4a22d1: e8 ba 27 fb ff               	call	0x454a90 <.text+0x53a90>
  4a22d6: 59                           	pop	ecx
  4a22d7: 83 c4 10                     	add	esp, 0x10
  4a22da: 5d                           	pop	ebp
  4a22db: 5f                           	pop	edi
  4a22dc: 5e                           	pop	esi
  4a22dd: 5b                           	pop	ebx
  4a22de: c3                           	ret
  4a22df: 90                           	nop
  4a22e0: 8b 0d 5c 97 5e 00            	mov	ecx, dword ptr [0x5e975c]
  4a22e6: 8b 41 12                     	mov	eax, dword ptr [ecx + 0x12]
  4a22e9: 8a 18                        	mov	bl, byte ptr [eax]
  4a22eb: 80 fb 05                     	cmp	bl, 0x5
  4a22ee: 74 09                        	je	0x4a22f9 <.text+0xa12f9>
  4a22f0: 80 fb 06                     	cmp	bl, 0x6
  4a22f3: 0f 85 b9 01 00 00            	jne	0x4a24b2 <.text+0xa14b2>
  4a22f9: a1 5c 97 5e 00               	mov	eax, dword ptr [0x5e975c]
  4a22fe: 8b 50 32                     	mov	edx, dword ptr [eax + 0x32]
  4a2301: 85 d2                        	test	edx, edx
  4a2303: 0f 84 bd 01 00 00            	je	0x4a24c6 <.text+0xa14c6>
  4a2309: 0f b7 0a                     	movzx	ecx, word ptr [edx]
  4a230c: 89 cd                        	mov	ebp, ecx
  4a230e: c1 fd 05                     	sar	ebp, 0x5
  4a2311: a1 64 9b 5e 00               	mov	eax, dword ptr [0x5e9b64]
  4a2316: 3b 28                        	cmp	ebp, dword ptr [eax]
  4a2318: 73 11                        	jae	0x4a232b <.text+0xa132b>
  4a231a: bb 01 00 00 00               	mov	ebx, 0x1
  4a231f: d3 e3                        	shl	ebx, cl
  4a2321: 23 5c a8 04                  	and	ebx, dword ptr [eax + 4*ebp + 0x4]
  4a2325: 0f 85 9b 01 00 00            	jne	0x4a24c6 <.text+0xa14c6>
  4a232b: 31 f6                        	xor	esi, esi
  4a232d: 31 ff                        	xor	edi, edi
  4a232f: eb 54                        	jmp	0x4a2385 <.text+0xa1385>
  4a2331: 0f b7 ef                     	movzx	ebp, di
  4a2334: a1 5c 97 5e 00               	mov	eax, dword ptr [0x5e975c]
  4a2339: 8b 50 04                     	mov	edx, dword ptr [eax + 0x4]
  4a233c: 0f b7 0c 6a                  	movzx	ecx, word ptr [edx + 2*ebp]
  4a2340: a1 b0 99 5e 00               	mov	eax, dword ptr [0x5e99b0]
  4a2345: 8b 1c 88                     	mov	ebx, dword ptr [eax + 4*ecx]
  4a2348: 0f b7 0b                     	movzx	ecx, word ptr [ebx]
  4a234b: 89 c8                        	mov	eax, ecx
  4a234d: c1 f8 05                     	sar	eax, 0x5
  4a2350: 8b 15 64 9b 5e 00            	mov	edx, dword ptr [0x5e9b64]
  4a2356: 3b 02                        	cmp	eax, dword ptr [edx]
  4a2358: 73 2a                        	jae	0x4a2384 <.text+0xa1384>
  4a235a: ba 01 00 00 00               	mov	edx, 0x1
  4a235f: d3 e2                        	shl	edx, cl
  4a2361: 8b 2d 64 9b 5e 00            	mov	ebp, dword ptr [0x5e9b64]
  4a2367: 23 54 85 04                  	and	edx, dword ptr [ebp + 4*eax + 0x4]
  4a236b: 74 17                        	je	0x4a2384 <.text+0xa1384>
  4a236d: 85 f6                        	test	esi, esi
  4a236f: 74 11                        	je	0x4a2382 <.text+0xa1382>
  4a2371: 68 6f 08 00 00               	push	0x86f
  4a2376: 68 20 e5 5a 00               	push	0x5ae520
  4a237b: e8 e0 13 fc ff               	call	0x463760 <.text+0x62760>
  4a2380: 59                           	pop	ecx
  4a2381: 59                           	pop	ecx
  4a2382: 89 de                        	mov	esi, ebx
  4a2384: 47                           	inc	edi
  4a2385: a1 5c 97 5e 00               	mov	eax, dword ptr [0x5e975c]
  4a238a: 66 3b 78 02                  	cmp	di, word ptr [eax + 0x2]
  4a238e: 72 a1                        	jb	0x4a2331 <.text+0xa1331>
  4a2390: c7 04 24 00 00 00 00         	mov	dword ptr [esp], 0x0
  4a2397: c7 44 24 04 00 00 00 00      	mov	dword ptr [esp + 0x4], 0x0
  4a239f: 31 db                        	xor	ebx, ebx
  4a23a1: 8b 15 64 9b 5e 00            	mov	edx, dword ptr [0x5e9b64]
  4a23a7: 89 c1                        	mov	ecx, eax
  4a23a9: 66 8b 41 08                  	mov	ax, word ptr [ecx + 0x8]
  4a23ad: 66 89 44 24 08               	mov	word ptr [esp + 0x8], ax
  4a23b2: eb 3e                        	jmp	0x4a23f2 <.text+0xa13f2>
  4a23b4: 0f b7 eb                     	movzx	ebp, bx
  4a23b7: a1 5c 97 5e 00               	mov	eax, dword ptr [0x5e975c]
  4a23bc: 8b 78 0a                     	mov	edi, dword ptr [eax + 0xa]
  4a23bf: 0f b7 0c 6f                  	movzx	ecx, word ptr [edi + 2*ebp]
  4a23c3: a1 b0 99 5e 00               	mov	eax, dword ptr [0x5e99b0]
  4a23c8: 8b 3c 88                     	mov	edi, dword ptr [eax + 4*ecx]
  4a23cb: 0f b7 0f                     	movzx	ecx, word ptr [edi]
  4a23ce: 89 cd                        	mov	ebp, ecx
  4a23d0: c1 fd 05                     	sar	ebp, 0x5
  4a23d3: 3b 2a                        	cmp	ebp, dword ptr [edx]
  4a23d5: 73 13                        	jae	0x4a23ea <.text+0xa13ea>
  4a23d7: b8 01 00 00 00               	mov	eax, 0x1
  4a23dc: d3 e0                        	shl	eax, cl
  4a23de: 8b 0d 64 9b 5e 00            	mov	ecx, dword ptr [0x5e9b64]
  4a23e4: 23 44 a9 04                  	and	eax, dword ptr [ecx + 4*ebp + 0x4]
  4a23e8: 75 07                        	jne	0x4a23f1 <.text+0xa13f1>
  4a23ea: ff 44 24 04                  	inc	dword ptr [esp + 0x4]
  4a23ee: 89 3c 24                     	mov	dword ptr [esp], edi
  4a23f1: 43                           	inc	ebx
  4a23f2: 66 3b 5c 24 08               	cmp	bx, word ptr [esp + 0x8]
  4a23f7: 72 bb                        	jb	0x4a23b4 <.text+0xa13b4>
  4a23f9: 83 7c 24 04 01               	cmp	dword ptr [esp + 0x4], 0x1
  4a23fe: 0f 85 c2 00 00 00            	jne	0x4a24c6 <.text+0xa14c6>
  4a2404: 8b 04 24                     	mov	eax, dword ptr [esp]
  4a2407: 8b 40 12                     	mov	eax, dword ptr [eax + 0x12]
  4a240a: 80 38 04                     	cmp	byte ptr [eax], 0x4
  4a240d: 0f 85 b3 00 00 00            	jne	0x4a24c6 <.text+0xa14c6>
  4a2413: 8b 04 24                     	mov	eax, dword ptr [esp]
  4a2416: 39 70 32                     	cmp	dword ptr [eax + 0x32], esi
  4a2419: 0f 85 a7 00 00 00            	jne	0x4a24c6 <.text+0xa14c6>
  4a241f: 3b 35 5c 97 5e 00            	cmp	esi, dword ptr [0x5e975c]
  4a2425: 0f 84 9b 00 00 00            	je	0x4a24c6 <.text+0xa14c6>
  4a242b: c6 05 64 a3 5e 00 01         	mov	byte ptr [0x5ea364], 0x1
  4a2432: ff 74 24 28                  	push	dword ptr [esp + 0x28]
  4a2436: e8 85 2c 00 00               	call	0x4a50c0 <.text+0xa40c0>
  4a243b: 59                           	pop	ecx
  4a243c: 89 c7                        	mov	edi, eax
  4a243e: 8b 04 24                     	mov	eax, dword ptr [esp]
  4a2441: 89 47 0c                     	mov	dword ptr [edi + 0xc], eax
  4a2444: 89 77 10                     	mov	dword ptr [edi + 0x10], esi
  4a2447: ff 34 24                     	push	dword ptr [esp]
  4a244a: 57                           	push	edi
  4a244b: e8 d0 34 00 00               	call	0x4a5920 <.text+0xa4920>
  4a2450: 59                           	pop	ecx
  4a2451: 59                           	pop	ecx
  4a2452: 57                           	push	edi
  4a2453: e8 28 fb ff ff               	call	0x4a1f80 <.text+0xa0f80>
  4a2458: 59                           	pop	ecx
  4a2459: 85 c0                        	test	eax, eax
  4a245b: 75 18                        	jne	0x4a2475 <.text+0xa1475>
  4a245d: 8b 44 24 28                  	mov	eax, dword ptr [esp + 0x28]
  4a2461: 0f b7 00                     	movzx	eax, word ptr [eax]
  4a2464: 50                           	push	eax
  4a2465: 68 6c ea 5a 00               	push	0x5aea6c
  4a246a: e8 21 26 fb ff               	call	0x454a90 <.text+0x53a90>
  4a246f: 59                           	pop	ecx
  4a2470: 59                           	pop	ecx
  4a2471: 31 c0                        	xor	eax, eax
  4a2473: eb 37                        	jmp	0x4a24ac <.text+0xa14ac>
  4a2475: 8b 07                        	mov	eax, dword ptr [edi]
  4a2477: 25 00 00 01 00               	and	eax, 0x10000
  4a247c: 74 18                        	je	0x4a2496 <.text+0xa1496>
  4a247e: ff 74 24 24                  	push	dword ptr [esp + 0x24]
  4a2482: 57                           	push	edi
  4a2483: 56                           	push	esi
  4a2484: ff 74 24 0c                  	push	dword ptr [esp + 0xc]
  4a2488: ff 74 24 38                  	push	dword ptr [esp + 0x38]
  4a248c: e8 cf 09 00 00               	call	0x4a2e60 <.text+0xa1e60>
  4a2491: 83 c4 14                     	add	esp, 0x14
  4a2494: eb 16                        	jmp	0x4a24ac <.text+0xa14ac>
  4a2496: ff 74 24 24                  	push	dword ptr [esp + 0x24]
  4a249a: 57                           	push	edi
  4a249b: 56                           	push	esi
  4a249c: ff 74 24 0c                  	push	dword ptr [esp + 0xc]
  4a24a0: ff 74 24 38                  	push	dword ptr [esp + 0x38]
  4a24a4: e8 a7 00 00 00               	call	0x4a2550 <.text+0xa1550>
  4a24a9: 83 c4 14                     	add	esp, 0x14
  4a24ac: 89 44 24 0c                  	mov	dword ptr [esp + 0xc], eax
  4a24b0: eb 14                        	jmp	0x4a24c6 <.text+0xa14c6>
  4a24b2: 8b 44 24 28                  	mov	eax, dword ptr [esp + 0x28]
  4a24b6: 0f b7 00                     	movzx	eax, word ptr [eax]
  4a24b9: 50                           	push	eax
  4a24ba: 68 bc ea 5a 00               	push	0x5aeabc
  4a24bf: e8 cc 25 fb ff               	call	0x454a90 <.text+0x53a90>
  4a24c4: 59                           	pop	ecx
  4a24c5: 59                           	pop	ecx
  4a24c6: 83 7c 24 0c 00               	cmp	dword ptr [esp + 0xc], 0x0
  4a24cb: 74 7a                        	je	0x4a2547 <.text+0xa1547>
  4a24cd: 0f b7 05 80 9d 5e 00         	movzx	eax, word ptr [0x5e9d80]
  4a24d4: 8d 04 85 00 00 00 00         	lea	eax, [4*eax]
  4a24db: 50                           	push	eax
  4a24dc: e8 ff e7 f9 ff               	call	0x440ce0 <.text+0x3fce0>
  4a24e1: 59                           	pop	ecx
  4a24e2: a3 b0 99 5e 00               	mov	dword ptr [0x5e99b0], eax
  4a24e7: 0f b7 0d 80 9d 5e 00         	movzx	ecx, word ptr [0x5e9d80]
  4a24ee: 8d 0c 8d 00 00 00 00         	lea	ecx, [4*ecx]
  4a24f5: 8b 3d b0 99 5e 00            	mov	edi, dword ptr [0x5e99b0]
  4a24fb: 30 c0                        	xor	al, al
  4a24fd: f3 aa                        	rep		stosb	byte ptr es:[edi], al
  4a24ff: 8b 15 68 98 5e 00            	mov	edx, dword ptr [0x5e9868]
  4a2505: 85 d2                        	test	edx, edx
  4a2507: 74 19                        	je	0x4a2522 <.text+0xa1522>
  4a2509: 8d 84 20 00 00 00 00         	lea	eax, [eax + eiz]
  4a2510: 0f b7 0a                     	movzx	ecx, word ptr [edx]
  4a2513: a1 b0 99 5e 00               	mov	eax, dword ptr [0x5e99b0]
  4a2518: 89 14 88                     	mov	dword ptr [eax + 4*ecx], edx
  4a251b: 8b 52 32                     	mov	edx, dword ptr [edx + 0x32]
  4a251e: 85 d2                        	test	edx, edx
  4a2520: 75 ee                        	jne	0x4a2510 <.text+0xa1510>
  4a2522: e8 59 f1 fc ff               	call	0x471680 <.text+0x70680>
  4a2527: e8 b4 ef fc ff               	call	0x4714e0 <.text+0x704e0>
  4a252c: 83 7c 24 0c 00               	cmp	dword ptr [esp + 0xc], 0x0
  4a2531: 74 14                        	je	0x4a2547 <.text+0xa1547>
  4a2533: 8b 44 24 28                  	mov	eax, dword ptr [esp + 0x28]
  4a2537: 0f b7 00                     	movzx	eax, word ptr [eax]
  4a253a: 50                           	push	eax
  4a253b: 68 fc ea 5a 00               	push	0x5aeafc
  4a2540: e8 4b 25 fb ff               	call	0x454a90 <.text+0x53a90>
  4a2545: 59                           	pop	ecx
  4a2546: 59                           	pop	ecx
  4a2547: 83 c4 10                     	add	esp, 0x10
  4a254a: 5d                           	pop	ebp
  4a254b: 5f                           	pop	edi
  4a254c: 5e                           	pop	esi
  4a254d: 5b                           	pop	ebx
  4a254e: c3                           	ret
  4a254f: 00 53 56                     	add	byte ptr [ebx + 0x56], dl
  4a2552: 57                           	push	edi
  4a2553: 55                           	push	ebp
  4a2554: 81 ec 88 00 00 00            	sub	esp, 0x88
  4a255a: 8b ac 24 a0 00 00 00         	mov	ebp, dword ptr [esp + 0xa0]
  4a2561: 8b 9c 24 a8 00 00 00         	mov	ebx, dword ptr [esp + 0xa8]
  4a2568: c7 44 24 68 00 00 00 00      	mov	dword ptr [esp + 0x68], 0x0
  4a2570: c7 44 24 6c 00 00 00 00      	mov	dword ptr [esp + 0x6c], 0x0
  4a2578: c7 44 24 70 00 00 00 00      	mov	dword ptr [esp + 0x70], 0x0
  4a2580: 8b 55 12                     	mov	edx, dword ptr [ebp + 0x12]
  4a2583: 52                           	push	edx
  4a2584: 8b 42 20                     	mov	eax, dword ptr [edx + 0x20]
  4a2587: 50                           	push	eax
  4a2588: e8 f3 68 fc ff               	call	0x468e80 <.text+0x67e80>
  4a258d: 59                           	pop	ecx
  4a258e: 59                           	pop	ecx
  4a258f: 89 c6                        	mov	esi, eax
  4a2591: e8 1a 78 fc ff               	call	0x469db0 <.text+0x68db0>
  4a2596: 89 44 24 44                  	mov	dword ptr [esp + 0x44], eax
  4a259a: 8d 44 24 60                  	lea	eax, [esp + 0x60]
  4a259e: 50                           	push	eax
  4a259f: e8 4c 69 fc ff               	call	0x468ef0 <.text+0x67ef0>
  4a25a4: 59                           	pop	ecx
  4a25a5: 8d 44 24 60                  	lea	eax, [esp + 0x60]
  4a25a9: 50                           	push	eax
  4a25aa: 8b 15 5c 97 5e 00            	mov	edx, dword ptr [0x5e975c]
  4a25b0: 8b 42 12                     	mov	eax, dword ptr [edx + 0x12]
  4a25b3: 8b 78 24                     	mov	edi, dword ptr [eax + 0x24]
  4a25b6: 57                           	push	edi
  4a25b7: 8b 46 34                     	mov	eax, dword ptr [esi + 0x34]
  4a25ba: 50                           	push	eax
  4a25bb: e8 80 68 fc ff               	call	0x468e40 <.text+0x67e40>
  4a25c0: 83 c4 0c                     	add	esp, 0xc
  4a25c3: 8d 44 24 60                  	lea	eax, [esp + 0x60]
  4a25c7: 50                           	push	eax
  4a25c8: 8b 0d 5c 97 5e 00            	mov	ecx, dword ptr [0x5e975c]
  4a25ce: 8b 51 12                     	mov	edx, dword ptr [ecx + 0x12]
  4a25d1: 8b 42 24                     	mov	eax, dword ptr [edx + 0x24]
  4a25d4: 50                           	push	eax
  4a25d5: e8 b6 66 fc ff               	call	0x468c90 <.text+0x67c90>
  4a25da: 59                           	pop	ecx
  4a25db: 59                           	pop	ecx
  4a25dc: 8b 45 12                     	mov	eax, dword ptr [ebp + 0x12]
  4a25df: 50                           	push	eax
  4a25e0: 8b 7c 24 68                  	mov	edi, dword ptr [esp + 0x68]
  4a25e4: 57                           	push	edi
  4a25e5: 8b 44 24 68                  	mov	eax, dword ptr [esp + 0x68]
  4a25e9: 50                           	push	eax
  4a25ea: e8 d1 6a fc ff               	call	0x4690c0 <.text+0x680c0>
  4a25ef: 83 c4 0c                     	add	esp, 0xc
  4a25f2: 8b 74 24 64                  	mov	esi, dword ptr [esp + 0x64]
  4a25f6: 8d 44 24 60                  	lea	eax, [esp + 0x60]
  4a25fa: 50                           	push	eax
  4a25fb: e8 f0 68 fc ff               	call	0x468ef0 <.text+0x67ef0>
  4a2600: 59                           	pop	ecx
  4a2601: a1 5c 97 5e 00               	mov	eax, dword ptr [0x5e975c]
  4a2606: 8b 48 12                     	mov	ecx, dword ptr [eax + 0x12]
  4a2609: 8a 01                        	mov	al, byte ptr [ecx]
  4a260b: 88 44 24 14                  	mov	byte ptr [esp + 0x14], al
  4a260f: 6a 02                        	push	0x2
  4a2611: e8 5a d3 fc ff               	call	0x46f970 <.text+0x6e970>
  4a2616: 59                           	pop	ecx
  4a2617: 89 44 24 5c                  	mov	dword ptr [esp + 0x5c], eax
  4a261b: ff 05 00 90 5e 00            	inc	dword ptr [0x5e9000]
  4a2621: 66 8b 15 00 90 5e 00         	mov	dx, word ptr [0x5e9000]
  4a2628: 66 89 50 08                  	mov	word ptr [eax + 0x8], dx
  4a262c: 80 7c 24 14 05               	cmp	byte ptr [esp + 0x14], 0x5
  4a2631: 75 05                        	jne	0x4a2638 <.text+0xa1638>
  4a2633: c6 00 06                     	mov	byte ptr [eax], 0x6
  4a2636: eb 07                        	jmp	0x4a263f <.text+0xa163f>
  4a2638: 8b 44 24 5c                  	mov	eax, dword ptr [esp + 0x5c]
  4a263c: c6 00 05                     	mov	byte ptr [eax], 0x5
  4a263f: 8d 44 24 60                  	lea	eax, [esp + 0x60]
  4a2643: 50                           	push	eax
  4a2644: ff 74 24 60                  	push	dword ptr [esp + 0x60]
  4a2648: e8 73 68 fc ff               	call	0x468ec0 <.text+0x67ec0>
  4a264d: 59                           	pop	ecx
  4a264e: 59                           	pop	ecx
  4a264f: e8 5c 77 fc ff               	call	0x469db0 <.text+0x68db0>
  4a2654: 89 44 24 40                  	mov	dword ptr [esp + 0x40], eax
  4a2658: 89 c1                        	mov	ecx, eax
  4a265a: 8b 44 24 5c                  	mov	eax, dword ptr [esp + 0x5c]
  4a265e: 89 48 20                     	mov	dword ptr [eax + 0x20], ecx
  4a2661: 89 70 24                     	mov	dword ptr [eax + 0x24], esi
  4a2664: 8b 40 24                     	mov	eax, dword ptr [eax + 0x24]
  4a2667: 83 48 02 02                  	or	dword ptr [eax + 0x2], 0x2
  4a266b: 8b 3d 5c 97 5e 00            	mov	edi, dword ptr [0x5e975c]
  4a2671: 8b 47 12                     	mov	eax, dword ptr [edi + 0x12]
  4a2674: 8b 48 0e                     	mov	ecx, dword ptr [eax + 0xe]
  4a2677: 8b 44 24 5c                  	mov	eax, dword ptr [esp + 0x5c]
  4a267b: 89 48 0e                     	mov	dword ptr [eax + 0xe], ecx
  4a267e: 8b 45 12                     	mov	eax, dword ptr [ebp + 0x12]
  4a2681: 50                           	push	eax
  4a2682: 8b 54 24 68                  	mov	edx, dword ptr [esp + 0x68]
  4a2686: 52                           	push	edx
  4a2687: 8b 44 24 68                  	mov	eax, dword ptr [esp + 0x68]
  4a268b: 50                           	push	eax
  4a268c: e8 2f 6a fc ff               	call	0x4690c0 <.text+0x680c0>
  4a2691: 83 c4 0c                     	add	esp, 0xc
  4a2694: 8d 44 24 78                  	lea	eax, [esp + 0x78]
  4a2698: 50                           	push	eax
  4a2699: 53                           	push	ebx
  4a269a: e8 31 f5 ff ff               	call	0x4a1bd0 <.text+0xa0bd0>
  4a269f: 59                           	pop	ecx
  4a26a0: 59                           	pop	ecx
  4a26a1: c7 44 24 68 01 00 00 00      	mov	dword ptr [esp + 0x68], 0x1
  4a26a9: c7 44 24 6c 01 00 00 00      	mov	dword ptr [esp + 0x6c], 0x1
  4a26b1: c7 44 24 70 00 00 00 00      	mov	dword ptr [esp + 0x70], 0x0
  4a26b9: 85 c0                        	test	eax, eax
  4a26bb: 74 32                        	je	0x4a26ef <.text+0xa16ef>
  4a26bd: 8d 44 24 70                  	lea	eax, [esp + 0x70]
  4a26c1: 50                           	push	eax
  4a26c2: 8d 7c 24 70                  	lea	edi, [esp + 0x70]
  4a26c6: 57                           	push	edi
  4a26c7: 8d 44 24 70                  	lea	eax, [esp + 0x70]
  4a26cb: 50                           	push	eax
  4a26cc: 8d 8c 24 80 00 00 00         	lea	ecx, [esp + 0x80]
  4a26d3: 51                           	push	ecx
  4a26d4: 8d 84 24 bc 00 00 00         	lea	eax, [esp + 0xbc]
  4a26db: 50                           	push	eax
  4a26dc: 6a 01                        	push	0x1
  4a26de: 8d 84 24 90 00 00 00         	lea	eax, [esp + 0x90]
  4a26e5: 50                           	push	eax
  4a26e6: 53                           	push	ebx
  4a26e7: e8 44 ed ff ff               	call	0x4a1430 <.text+0xa0430>
  4a26ec: 83 c4 20                     	add	esp, 0x20
  4a26ef: 8d 44 24 60                  	lea	eax, [esp + 0x60]
  4a26f3: 50                           	push	eax
  4a26f4: e8 f7 67 fc ff               	call	0x468ef0 <.text+0x67ef0>
  4a26f9: 59                           	pop	ecx
  4a26fa: 53                           	push	ebx
  4a26fb: 8d 44 24 64                  	lea	eax, [esp + 0x64]
  4a26ff: 50                           	push	eax
  4a2700: e8 7b e9 ff ff               	call	0x4a1080 <.text+0xa0080>
  4a2705: 59                           	pop	ecx
  4a2706: 59                           	pop	ecx
  4a2707: 89 c6                        	mov	esi, eax
  4a2709: 8b 45 12                     	mov	eax, dword ptr [ebp + 0x12]
  4a270c: 50                           	push	eax
  4a270d: 8b 54 24 68                  	mov	edx, dword ptr [esp + 0x68]
  4a2711: 52                           	push	edx
  4a2712: 8b 44 24 68                  	mov	eax, dword ptr [esp + 0x68]
  4a2716: 50                           	push	eax
  4a2717: e8 a4 69 fc ff               	call	0x4690c0 <.text+0x680c0>
  4a271c: 83 c4 0c                     	add	esp, 0xc
  4a271f: 8b 44 24 60                  	mov	eax, dword ptr [esp + 0x60]
  4a2723: 89 44 24 28                  	mov	dword ptr [esp + 0x28], eax
  4a2727: 8d 44 24 60                  	lea	eax, [esp + 0x60]
  4a272b: 50                           	push	eax
  4a272c: e8 bf 67 fc ff               	call	0x468ef0 <.text+0x67ef0>
  4a2731: 59                           	pop	ecx
  4a2732: 53                           	push	ebx
  4a2733: 8d 7c 24 64                  	lea	edi, [esp + 0x64]
  4a2737: 57                           	push	edi
  4a2738: 8b 84 24 b4 00 00 00         	mov	eax, dword ptr [esp + 0xb4]
  4a273f: 50                           	push	eax
  4a2740: 56                           	push	esi
  4a2741: e8 ca e6 ff ff               	call	0x4a0e10 <.text+0x9fe10>
  4a2746: 83 c4 10                     	add	esp, 0x10
  4a2749: 89 44 24 38                  	mov	dword ptr [esp + 0x38], eax
  4a274d: 8b 45 12                     	mov	eax, dword ptr [ebp + 0x12]
  4a2750: 50                           	push	eax
  4a2751: 8b 4c 24 68                  	mov	ecx, dword ptr [esp + 0x68]
  4a2755: 51                           	push	ecx
  4a2756: 8b 44 24 68                  	mov	eax, dword ptr [esp + 0x68]
  4a275a: 50                           	push	eax
  4a275b: e8 60 69 fc ff               	call	0x4690c0 <.text+0x680c0>
  4a2760: 83 c4 0c                     	add	esp, 0xc
  4a2763: 8d 44 24 60                  	lea	eax, [esp + 0x60]
  4a2767: 50                           	push	eax
  4a2768: e8 83 67 fc ff               	call	0x468ef0 <.text+0x67ef0>
  4a276d: 59                           	pop	ecx
  4a276e: ff 74 24 44                  	push	dword ptr [esp + 0x44]
  4a2772: 8b 84 24 b0 00 00 00         	mov	eax, dword ptr [esp + 0xb0]
  4a2779: 50                           	push	eax
  4a277a: 56                           	push	esi
  4a277b: 8d 44 24 6c                  	lea	eax, [esp + 0x6c]
  4a277f: 50                           	push	eax
  4a2780: e8 bb df ff ff               	call	0x4a0740 <.text+0x9f740>
  4a2785: 83 c4 10                     	add	esp, 0x10
  4a2788: 8b 45 12                     	mov	eax, dword ptr [ebp + 0x12]
  4a278b: 50                           	push	eax
  4a278c: 8b 54 24 68                  	mov	edx, dword ptr [esp + 0x68]
  4a2790: 52                           	push	edx
  4a2791: 8b 44 24 68                  	mov	eax, dword ptr [esp + 0x68]
  4a2795: 50                           	push	eax
  4a2796: e8 25 69 fc ff               	call	0x4690c0 <.text+0x680c0>
  4a279b: 83 c4 0c                     	add	esp, 0xc
  4a279e: 8b 44 24 64                  	mov	eax, dword ptr [esp + 0x64]
  4a27a2: 89 44 24 2c                  	mov	dword ptr [esp + 0x2c], eax
  4a27a6: e8 05 76 fc ff               	call	0x469db0 <.text+0x68db0>
  4a27ab: 89 44 24 48                  	mov	dword ptr [esp + 0x48], eax
  4a27af: 8d 44 24 60                  	lea	eax, [esp + 0x60]
  4a27b3: 50                           	push	eax
  4a27b4: e8 37 67 fc ff               	call	0x468ef0 <.text+0x67ef0>
  4a27b9: 59                           	pop	ecx
  4a27ba: 6a 02                        	push	0x2
  4a27bc: e8 af d1 fc ff               	call	0x46f970 <.text+0x6e970>
  4a27c1: 59                           	pop	ecx
  4a27c2: 89 44 24 50                  	mov	dword ptr [esp + 0x50], eax
  4a27c6: ff 05 00 90 5e 00            	inc	dword ptr [0x5e9000]
  4a27cc: 66 8b 3d 00 90 5e 00         	mov	di, word ptr [0x5e9000]
  4a27d3: 66 89 78 08                  	mov	word ptr [eax + 0x8], di
  4a27d7: c6 00 04                     	mov	byte ptr [eax], 0x4
  4a27da: 8b 4c 24 48                  	mov	ecx, dword ptr [esp + 0x48]
  4a27de: 89 48 20                     	mov	dword ptr [eax + 0x20], ecx
  4a27e1: 8d 44 24 60                  	lea	eax, [esp + 0x60]
  4a27e5: 50                           	push	eax
  4a27e6: ff 74 24 54                  	push	dword ptr [esp + 0x54]
  4a27ea: e8 d1 66 fc ff               	call	0x468ec0 <.text+0x67ec0>
  4a27ef: 59                           	pop	ecx
  4a27f0: 59                           	pop	ecx
  4a27f1: 8b 45 12                     	mov	eax, dword ptr [ebp + 0x12]
  4a27f4: 50                           	push	eax
  4a27f5: 8b 74 24 68                  	mov	esi, dword ptr [esp + 0x68]
  4a27f9: 56                           	push	esi
  4a27fa: 8b 44 24 68                  	mov	eax, dword ptr [esp + 0x68]
  4a27fe: 50                           	push	eax
  4a27ff: e8 bc 68 fc ff               	call	0x4690c0 <.text+0x680c0>
  4a2804: 83 c4 0c                     	add	esp, 0xc
  4a2807: 8d 44 24 60                  	lea	eax, [esp + 0x60]
  4a280b: 50                           	push	eax
  4a280c: e8 df 66 fc ff               	call	0x468ef0 <.text+0x67ef0>
  4a2811: 59                           	pop	ecx
  4a2812: 8d 44 24 60                  	lea	eax, [esp + 0x60]
  4a2816: 50                           	push	eax
  4a2817: e8 64 28 00 00               	call	0x4a5080 <.text+0xa4080>
  4a281c: 59                           	pop	ecx
  4a281d: 89 44 24 3c                  	mov	dword ptr [esp + 0x3c], eax
  4a2821: 8b 45 12                     	mov	eax, dword ptr [ebp + 0x12]
  4a2824: 50                           	push	eax
  4a2825: 8b 4c 24 68                  	mov	ecx, dword ptr [esp + 0x68]
  4a2829: 51                           	push	ecx
  4a282a: 8b 44 24 68                  	mov	eax, dword ptr [esp + 0x68]
  4a282e: 50                           	push	eax
  4a282f: e8 8c 68 fc ff               	call	0x4690c0 <.text+0x680c0>
  4a2834: 83 c4 0c                     	add	esp, 0xc
  4a2837: 8b 44 24 60                  	mov	eax, dword ptr [esp + 0x60]
  4a283b: 89 44 24 30                  	mov	dword ptr [esp + 0x30], eax
  4a283f: 8b 15 90 0c 5b 00            	mov	edx, dword ptr [0x5b0c90]
  4a2845: a1 94 0c 5b 00               	mov	eax, dword ptr [0x5b0c94]
  4a284a: 89 94 24 80 00 00 00         	mov	dword ptr [esp + 0x80], edx
  4a2851: 89 84 24 84 00 00 00         	mov	dword ptr [esp + 0x84], eax
  4a2858: 31 ff                        	xor	edi, edi
  4a285a: eb 38                        	jmp	0x4a2894 <.text+0xa1894>
  4a285c: 8d 44 20 00                  	lea	eax, [eax + eiz]
  4a2860: 85 ff                        	test	edi, edi
  4a2862: 0f 9f c0                     	setg	al
  4a2865: 83 e0 01                     	and	eax, 0x1
  4a2868: 50                           	push	eax
  4a2869: 8d b4 24 84 00 00 00         	lea	esi, [esp + 0x84]
  4a2870: 56                           	push	esi
  4a2871: 8b 43 1c                     	mov	eax, dword ptr [ebx + 0x1c]
  4a2874: 8b 48 0e                     	mov	ecx, dword ptr [eax + 0xe]
  4a2877: 51                           	push	ecx
  4a2878: 8b 45 12                     	mov	eax, dword ptr [ebp + 0x12]
  4a287b: 50                           	push	eax
  4a287c: 53                           	push	ebx
  4a287d: ff b4 24 b0 00 00 00         	push	dword ptr [esp + 0xb0]
  4a2884: ff b4 24 bc 00 00 00         	push	dword ptr [esp + 0xbc]
  4a288b: e8 b0 04 00 00               	call	0x4a2d40 <.text+0xa1d40>
  4a2890: 83 c4 1c                     	add	esp, 0x1c
  4a2893: 47                           	inc	edi
  4a2894: 3b bc 24 ac 00 00 00         	cmp	edi, dword ptr [esp + 0xac]
  4a289b: 72 c3                        	jb	0x4a2860 <.text+0xa1860>
  4a289d: 8b 55 12                     	mov	edx, dword ptr [ebp + 0x12]
  4a28a0: 52                           	push	edx
  4a28a1: 8b 84 24 b0 00 00 00         	mov	eax, dword ptr [esp + 0xb0]
  4a28a8: 50                           	push	eax
  4a28a9: 53                           	push	ebx
  4a28aa: e8 11 da ff ff               	call	0x4a02c0 <.text+0x9f2c0>
  4a28af: 83 c4 0c                     	add	esp, 0xc
  4a28b2: 89 44 24 34                  	mov	dword ptr [esp + 0x34], eax
  4a28b6: 8d 44 24 60                  	lea	eax, [esp + 0x60]
  4a28ba: 50                           	push	eax
  4a28bb: e8 30 66 fc ff               	call	0x468ef0 <.text+0x67ef0>
  4a28c0: 59                           	pop	ecx
  4a28c1: 6a 08                        	push	0x8
  4a28c3: e8 a8 d0 fc ff               	call	0x46f970 <.text+0x6e970>
  4a28c8: 59                           	pop	ecx
  4a28c9: 89 44 24 4c                  	mov	dword ptr [esp + 0x4c], eax
  4a28cd: 66 8b 35 00 90 5e 00         	mov	si, word ptr [0x5e9000]
  4a28d4: 66 89 70 08                  	mov	word ptr [eax + 0x8], si
  4a28d8: ff 05 00 90 5e 00            	inc	dword ptr [0x5e9000]
  4a28de: 8b 4c 24 48                  	mov	ecx, dword ptr [esp + 0x48]
  4a28e2: 89 48 20                     	mov	dword ptr [eax + 0x20], ecx
  4a28e5: 83 48 02 01                  	or	dword ptr [eax + 0x2], 0x1
  4a28e9: 8d 44 24 60                  	lea	eax, [esp + 0x60]
  4a28ed: 50                           	push	eax
  4a28ee: ff 74 24 50                  	push	dword ptr [esp + 0x50]
  4a28f2: e8 c9 65 fc ff               	call	0x468ec0 <.text+0x67ec0>
  4a28f7: 59                           	pop	ecx
  4a28f8: 59                           	pop	ecx
  4a28f9: 8b 45 12                     	mov	eax, dword ptr [ebp + 0x12]
  4a28fc: 50                           	push	eax
  4a28fd: 8b 4c 24 68                  	mov	ecx, dword ptr [esp + 0x68]
  4a2901: 51                           	push	ecx
  4a2902: 8b 44 24 68                  	mov	eax, dword ptr [esp + 0x68]
  4a2906: 50                           	push	eax
  4a2907: e8 b4 67 fc ff               	call	0x4690c0 <.text+0x680c0>
  4a290c: 83 c4 0c                     	add	esp, 0xc
  4a290f: 8d 44 24 60                  	lea	eax, [esp + 0x60]
  4a2913: 50                           	push	eax
  4a2914: e8 d7 65 fc ff               	call	0x468ef0 <.text+0x67ef0>
  4a2919: 59                           	pop	ecx
  4a291a: 8d 54 24 60                  	lea	edx, [esp + 0x60]
  4a291e: 52                           	push	edx
  4a291f: a1 5c 97 5e 00               	mov	eax, dword ptr [0x5e975c]
  4a2924: 8b 70 12                     	mov	esi, dword ptr [eax + 0x12]
  4a2927: 8b 7e 24                     	mov	edi, dword ptr [esi + 0x24]
  4a292a: 8b 47 20                     	mov	eax, dword ptr [edi + 0x20]
  4a292d: 50                           	push	eax
  4a292e: e8 5d 63 fc ff               	call	0x468c90 <.text+0x67c90>
  4a2933: 59                           	pop	ecx
  4a2934: 59                           	pop	ecx
  4a2935: 8b 44 24 64                  	mov	eax, dword ptr [esp + 0x64]
  4a2939: 89 44 24 10                  	mov	dword ptr [esp + 0x10], eax
  4a293d: 83 7c 24 70 00               	cmp	dword ptr [esp + 0x70], 0x0
  4a2942: 74 0e                        	je	0x4a2952 <.text+0xa1952>
  4a2944: 8d 44 24 60                  	lea	eax, [esp + 0x60]
  4a2948: 50                           	push	eax
  4a2949: 8b 4b 18                     	mov	ecx, dword ptr [ebx + 0x18]
  4a294c: 8b 41 24                     	mov	eax, dword ptr [ecx + 0x24]
  4a294f: 50                           	push	eax
  4a2950: eb 09                        	jmp	0x4a295b <.text+0xa195b>
  4a2952: 8d 44 24 60                  	lea	eax, [esp + 0x60]
  4a2956: 50                           	push	eax
  4a2957: ff 74 24 3c                  	push	dword ptr [esp + 0x3c]
  4a295b: e8 30 63 fc ff               	call	0x468c90 <.text+0x67c90>
  4a2960: 59                           	pop	ecx
  4a2961: 59                           	pop	ecx
  4a2962: a1 5c 97 5e 00               	mov	eax, dword ptr [0x5e975c]
  4a2967: 8b 50 12                     	mov	edx, dword ptr [eax + 0x12]
  4a296a: 8b 72 24                     	mov	esi, dword ptr [edx + 0x24]
  4a296d: 8a 06                        	mov	al, byte ptr [esi]
  4a296f: 50                           	push	eax
  4a2970: e8 fb cf fc ff               	call	0x46f970 <.text+0x6e970>
  4a2975: 59                           	pop	ecx
  4a2976: 8b 3d 5c 97 5e 00            	mov	edi, dword ptr [0x5e975c]
  4a297c: 8b 4f 12                     	mov	ecx, dword ptr [edi + 0x12]
  4a297f: 8b 51 24                     	mov	edx, dword ptr [ecx + 0x24]
  4a2982: 8d 38                        	lea	edi, [eax]
  4a2984: 8d 32                        	lea	esi, [edx]
  4a2986: b9 0e 00 00 00               	mov	ecx, 0xe
  4a298b: f3 a5                        	rep		movsd	dword ptr es:[edi], dword ptr [esi]
  4a298d: ff 05 00 90 5e 00            	inc	dword ptr [0x5e9000]
  4a2993: 66 8b 35 00 90 5e 00         	mov	si, word ptr [0x5e9000]
  4a299a: 66 89 70 08                  	mov	word ptr [eax + 0x8], si
  4a299e: c7 40 34 00 00 00 00         	mov	dword ptr [eax + 0x34], 0x0
  4a29a5: c7 40 12 00 00 00 00         	mov	dword ptr [eax + 0x12], 0x0
  4a29ac: 8b 4c 24 10                  	mov	ecx, dword ptr [esp + 0x10]
  4a29b0: 89 48 20                     	mov	dword ptr [eax + 0x20], ecx
  4a29b3: 8b 7c 24 64                  	mov	edi, dword ptr [esp + 0x64]
  4a29b7: 89 78 24                     	mov	dword ptr [eax + 0x24], edi
  4a29ba: 8d 4c 24 60                  	lea	ecx, [esp + 0x60]
  4a29be: 51                           	push	ecx
  4a29bf: 50                           	push	eax
  4a29c0: e8 fb 64 fc ff               	call	0x468ec0 <.text+0x67ec0>
  4a29c5: 59                           	pop	ecx
  4a29c6: 59                           	pop	ecx
  4a29c7: 8b 45 12                     	mov	eax, dword ptr [ebp + 0x12]
  4a29ca: 50                           	push	eax
  4a29cb: 8b 54 24 68                  	mov	edx, dword ptr [esp + 0x68]
  4a29cf: 52                           	push	edx
  4a29d0: 8b 44 24 68                  	mov	eax, dword ptr [esp + 0x68]
  4a29d4: 50                           	push	eax
  4a29d5: e8 e6 66 fc ff               	call	0x4690c0 <.text+0x680c0>
  4a29da: 83 c4 0c                     	add	esp, 0xc
  4a29dd: 8b 44 24 64                  	mov	eax, dword ptr [esp + 0x64]
  4a29e1: 89 44 24 1c                  	mov	dword ptr [esp + 0x1c], eax
  4a29e5: 8d 44 24 60                  	lea	eax, [esp + 0x60]
  4a29e9: 50                           	push	eax
  4a29ea: e8 01 65 fc ff               	call	0x468ef0 <.text+0x67ef0>
  4a29ef: 59                           	pop	ecx
  4a29f0: a1 5c 97 5e 00               	mov	eax, dword ptr [0x5e975c]
  4a29f5: 8b 70 12                     	mov	esi, dword ptr [eax + 0x12]
  4a29f8: 8a 06                        	mov	al, byte ptr [esi]
  4a29fa: 88 44 24 0c                  	mov	byte ptr [esp + 0xc], al
  4a29fe: 6a 02                        	push	0x2
  4a2a00: e8 6b cf fc ff               	call	0x46f970 <.text+0x6e970>
  4a2a05: 59                           	pop	ecx
  4a2a06: 89 c7                        	mov	edi, eax
  4a2a08: ff 05 00 90 5e 00            	inc	dword ptr [0x5e9000]
  4a2a0e: 66 a1 00 90 5e 00            	mov	ax, word ptr [0x5e9000]
  4a2a14: 66 89 47 08                  	mov	word ptr [edi + 0x8], ax
  4a2a18: 8a 44 24 0c                  	mov	al, byte ptr [esp + 0xc]
  4a2a1c: 88 07                        	mov	byte ptr [edi], al
  4a2a1e: 8d 44 24 60                  	lea	eax, [esp + 0x60]
  4a2a22: 50                           	push	eax
  4a2a23: 57                           	push	edi
  4a2a24: e8 97 64 fc ff               	call	0x468ec0 <.text+0x67ec0>
  4a2a29: 59                           	pop	ecx
  4a2a2a: 59                           	pop	ecx
  4a2a2b: 8b 44 24 3c                  	mov	eax, dword ptr [esp + 0x3c]
  4a2a2f: 89 47 20                     	mov	dword ptr [edi + 0x20], eax
  4a2a32: 8b 44 24 1c                  	mov	eax, dword ptr [esp + 0x1c]
  4a2a36: 89 47 24                     	mov	dword ptr [edi + 0x24], eax
  4a2a39: 8b 47 24                     	mov	eax, dword ptr [edi + 0x24]
  4a2a3c: 83 48 02 02                  	or	dword ptr [eax + 0x2], 0x2
  4a2a40: 8b 0d 5c 97 5e 00            	mov	ecx, dword ptr [0x5e975c]
  4a2a46: 8b 51 12                     	mov	edx, dword ptr [ecx + 0x12]
  4a2a49: 8b 42 0e                     	mov	eax, dword ptr [edx + 0xe]
  4a2a4c: 89 47 0e                     	mov	dword ptr [edi + 0xe], eax
  4a2a4f: 8b 45 12                     	mov	eax, dword ptr [ebp + 0x12]
  4a2a52: 50                           	push	eax
  4a2a53: 8b 74 24 68                  	mov	esi, dword ptr [esp + 0x68]
  4a2a57: 56                           	push	esi
  4a2a58: 8b 44 24 68                  	mov	eax, dword ptr [esp + 0x68]
  4a2a5c: 50                           	push	eax
  4a2a5d: e8 5e 66 fc ff               	call	0x4690c0 <.text+0x680c0>
  4a2a62: 83 c4 0c                     	add	esp, 0xc
  4a2a65: 8b 44 24 64                  	mov	eax, dword ptr [esp + 0x64]
  4a2a69: 89 44 24 54                  	mov	dword ptr [esp + 0x54], eax
  4a2a6d: 8d 44 24 60                  	lea	eax, [esp + 0x60]
  4a2a71: 50                           	push	eax
  4a2a72: e8 79 64 fc ff               	call	0x468ef0 <.text+0x67ef0>
  4a2a77: 59                           	pop	ecx
  4a2a78: 6a 08                        	push	0x8
  4a2a7a: e8 f1 ce fc ff               	call	0x46f970 <.text+0x6e970>
  4a2a7f: 59                           	pop	ecx
  4a2a80: 89 44 24 18                  	mov	dword ptr [esp + 0x18], eax
  4a2a84: 66 8b 0d 00 90 5e 00         	mov	cx, word ptr [0x5e9000]
  4a2a8b: 66 89 48 08                  	mov	word ptr [eax + 0x8], cx
  4a2a8f: ff 05 00 90 5e 00            	inc	dword ptr [0x5e9000]
  4a2a95: 8b 4c 24 44                  	mov	ecx, dword ptr [esp + 0x44]
  4a2a99: 89 48 20                     	mov	dword ptr [eax + 0x20], ecx
  4a2a9c: 83 48 02 01                  	or	dword ptr [eax + 0x2], 0x1
  4a2aa0: 8d 44 24 60                  	lea	eax, [esp + 0x60]
  4a2aa4: 50                           	push	eax
  4a2aa5: ff 74 24 1c                  	push	dword ptr [esp + 0x1c]
  4a2aa9: e8 12 64 fc ff               	call	0x468ec0 <.text+0x67ec0>
  4a2aae: 59                           	pop	ecx
  4a2aaf: 59                           	pop	ecx
  4a2ab0: 8b 45 12                     	mov	eax, dword ptr [ebp + 0x12]
  4a2ab3: 50                           	push	eax
  4a2ab4: 8b 54 24 68                  	mov	edx, dword ptr [esp + 0x68]
  4a2ab8: 52                           	push	edx
  4a2ab9: 8b 44 24 68                  	mov	eax, dword ptr [esp + 0x68]
  4a2abd: 50                           	push	eax
  4a2abe: e8 fd 65 fc ff               	call	0x4690c0 <.text+0x680c0>
  4a2ac3: 83 c4 0c                     	add	esp, 0xc
  4a2ac6: 8b 45 12                     	mov	eax, dword ptr [ebp + 0x12]
  4a2ac9: 89 44 24 24                  	mov	dword ptr [esp + 0x24], eax
  4a2acd: 8b 45 32                     	mov	eax, dword ptr [ebp + 0x32]
  4a2ad0: 89 44 24 58                  	mov	dword ptr [esp + 0x58], eax
  4a2ad4: 8b 44 24 5c                  	mov	eax, dword ptr [esp + 0x5c]
  4a2ad8: 89 45 12                     	mov	dword ptr [ebp + 0x12], eax
  4a2adb: e8 00 e8 fc ff               	call	0x4712e0 <.text+0x702e0>
  4a2ae0: 89 c6                        	mov	esi, eax
  4a2ae2: 8b 44 24 28                  	mov	eax, dword ptr [esp + 0x28]
  4a2ae6: 89 46 0e                     	mov	dword ptr [esi + 0xe], eax
  4a2ae9: 8b 44 24 2c                  	mov	eax, dword ptr [esp + 0x2c]
  4a2aed: 89 46 12                     	mov	dword ptr [esi + 0x12], eax
  4a2af0: 89 75 32                     	mov	dword ptr [ebp + 0x32], esi
  4a2af3: e8 e8 e7 fc ff               	call	0x4712e0 <.text+0x702e0>
  4a2af8: 89 44 24 20                  	mov	dword ptr [esp + 0x20], eax
  4a2afc: 8b 4c 24 50                  	mov	ecx, dword ptr [esp + 0x50]
  4a2b00: 89 48 0e                     	mov	dword ptr [eax + 0xe], ecx
  4a2b03: 8b 4c 24 50                  	mov	ecx, dword ptr [esp + 0x50]
  4a2b07: 89 48 12                     	mov	dword ptr [eax + 0x12], ecx
  4a2b0a: 89 46 32                     	mov	dword ptr [esi + 0x32], eax
  4a2b0d: e8 ce e7 fc ff               	call	0x4712e0 <.text+0x702e0>
  4a2b12: 89 c7                        	mov	edi, eax
  4a2b14: 8b 44 24 30                  	mov	eax, dword ptr [esp + 0x30]
  4a2b18: 89 47 0e                     	mov	dword ptr [edi + 0xe], eax
  4a2b1b: 8b 44 24 34                  	mov	eax, dword ptr [esp + 0x34]
  4a2b1f: 89 47 12                     	mov	dword ptr [edi + 0x12], eax
  4a2b22: 8b 44 24 30                  	mov	eax, dword ptr [esp + 0x30]
  4a2b26: 8b 40 20                     	mov	eax, dword ptr [eax + 0x20]
  4a2b29: 89 78 04                     	mov	dword ptr [eax + 0x4], edi
  4a2b2c: 83 7c 24 20 00               	cmp	dword ptr [esp + 0x20], 0x0
  4a2b31: 74 0d                        	je	0x4a2b40 <.text+0xa1b40>
  4a2b33: 8b 44 24 20                  	mov	eax, dword ptr [esp + 0x20]
  4a2b37: 89 78 32                     	mov	dword ptr [eax + 0x32], edi
  4a2b3a: eb 07                        	jmp	0x4a2b43 <.text+0xa1b43>
  4a2b3c: 8d 44 20 00                  	lea	eax, [eax + eiz]
  4a2b40: 89 7e 32                     	mov	dword ptr [esi + 0x32], edi
  4a2b43: e8 98 e7 fc ff               	call	0x4712e0 <.text+0x702e0>
  4a2b48: 89 44 24 04                  	mov	dword ptr [esp + 0x4], eax
  4a2b4c: 8b 4c 24 4c                  	mov	ecx, dword ptr [esp + 0x4c]
  4a2b50: 89 48 0e                     	mov	dword ptr [eax + 0xe], ecx
  4a2b53: 8b 4c 24 54                  	mov	ecx, dword ptr [esp + 0x54]
  4a2b57: 89 48 12                     	mov	dword ptr [eax + 0x12], ecx
  4a2b5a: 8b 44 24 4c                  	mov	eax, dword ptr [esp + 0x4c]
  4a2b5e: 8b 48 20                     	mov	ecx, dword ptr [eax + 0x20]
  4a2b61: 8b 44 24 04                  	mov	eax, dword ptr [esp + 0x4]
  4a2b65: 89 41 04                     	mov	dword ptr [ecx + 0x4], eax
  4a2b68: 8b 44 24 04                  	mov	eax, dword ptr [esp + 0x4]
  4a2b6c: 89 47 32                     	mov	dword ptr [edi + 0x32], eax
  4a2b6f: e8 6c e7 fc ff               	call	0x4712e0 <.text+0x702e0>
  4a2b74: 89 44 24 08                  	mov	dword ptr [esp + 0x8], eax
  4a2b78: 8b 4c 24 18                  	mov	ecx, dword ptr [esp + 0x18]
  4a2b7c: 89 48 0e                     	mov	dword ptr [eax + 0xe], ecx
  4a2b7f: 8b 4c 24 24                  	mov	ecx, dword ptr [esp + 0x24]
  4a2b83: 89 48 12                     	mov	dword ptr [eax + 0x12], ecx
  4a2b86: 89 c1                        	mov	ecx, eax
  4a2b88: 8b 44 24 04                  	mov	eax, dword ptr [esp + 0x4]
  4a2b8c: 89 48 32                     	mov	dword ptr [eax + 0x32], ecx
  4a2b8f: 8b 4c 24 58                  	mov	ecx, dword ptr [esp + 0x58]
  4a2b93: 8b 44 24 08                  	mov	eax, dword ptr [esp + 0x8]
  4a2b97: 89 48 32                     	mov	dword ptr [eax + 0x32], ecx
  4a2b9a: 6a 44                        	push	0x44
  4a2b9c: e8 3f e1 f9 ff               	call	0x440ce0 <.text+0x3fce0>
  4a2ba1: 59                           	pop	ecx
  4a2ba2: 89 c5                        	mov	ebp, eax
  4a2ba4: 89 ef                        	mov	edi, ebp
  4a2ba6: 31 c0                        	xor	eax, eax
  4a2ba8: b9 11 00 00 00               	mov	ecx, 0x11
  4a2bad: f3 ab                        	rep		stosd	dword ptr es:[edi], eax
  4a2baf: 66 a1 80 9d 5e 00            	mov	ax, word ptr [0x5e9d80]
  4a2bb5: 66 89 45 00                  	mov	word ptr [ebp], ax
  4a2bb9: 66 ff 05 80 9d 5e 00         	inc	word ptr [0x5e9d80]
  4a2bc0: 6a 08                        	push	0x8
  4a2bc2: e8 a9 cd fc ff               	call	0x46f970 <.text+0x6e970>
  4a2bc7: 59                           	pop	ecx
  4a2bc8: 66 8b 15 00 90 5e 00         	mov	dx, word ptr [0x5e9000]
  4a2bcf: 66 89 50 08                  	mov	word ptr [eax + 0x8], dx
  4a2bd3: ff 05 00 90 5e 00            	inc	dword ptr [0x5e9000]
  4a2bd9: c7 40 34 00 00 00 00         	mov	dword ptr [eax + 0x34], 0x0
  4a2be0: 8b 4c 24 40                  	mov	ecx, dword ptr [esp + 0x40]
  4a2be4: 89 48 20                     	mov	dword ptr [eax + 0x20], ecx
  4a2be7: 83 48 02 01                  	or	dword ptr [eax + 0x2], 0x1
  4a2beb: 8b 4c 24 40                  	mov	ecx, dword ptr [esp + 0x40]
  4a2bef: 89 69 04                     	mov	dword ptr [ecx + 0x4], ebp
  4a2bf2: 89 45 0e                     	mov	dword ptr [ebp + 0xe], eax
  4a2bf5: 89 45 12                     	mov	dword ptr [ebp + 0x12], eax
  4a2bf8: 8b 3d 5c 97 5e 00            	mov	edi, dword ptr [0x5e975c]
  4a2bfe: 8b 4f 12                     	mov	ecx, dword ptr [edi + 0x12]
  4a2c01: 8b 51 34                     	mov	edx, dword ptr [ecx + 0x34]
  4a2c04: 89 50 34                     	mov	dword ptr [eax + 0x34], edx
  4a2c07: 8b 3d 5c 97 5e 00            	mov	edi, dword ptr [0x5e975c]
  4a2c0d: 8b 4f 12                     	mov	ecx, dword ptr [edi + 0x12]
  4a2c10: 89 41 34                     	mov	dword ptr [ecx + 0x34], eax
  4a2c13: 8b 15 5c 97 5e 00            	mov	edx, dword ptr [0x5e975c]
  4a2c19: 8b 42 32                     	mov	eax, dword ptr [edx + 0x32]
  4a2c1c: 89 45 32                     	mov	dword ptr [ebp + 0x32], eax
  4a2c1f: a1 5c 97 5e 00               	mov	eax, dword ptr [0x5e975c]
  4a2c24: 89 68 32                     	mov	dword ptr [eax + 0x32], ebp
  4a2c27: 83 7c 24 68 00               	cmp	dword ptr [esp + 0x68], 0x0
  4a2c2c: 0f 85 8f 00 00 00            	jne	0x4a2cc1 <.text+0xa1cc1>
  4a2c32: 8b 44 24 08                  	mov	eax, dword ptr [esp + 0x8]
  4a2c36: 8b 78 0e                     	mov	edi, dword ptr [eax + 0xe]
  4a2c39: 8b 40 12                     	mov	eax, dword ptr [eax + 0x12]
  4a2c3c: 85 ff                        	test	edi, edi
  4a2c3e: 74 0e                        	je	0x4a2c4e <.text+0xa1c4e>
  4a2c40: c6 07 00                     	mov	byte ptr [edi], 0x0
  4a2c43: 39 c7                        	cmp	edi, eax
  4a2c45: 74 07                        	je	0x4a2c4e <.text+0xa1c4e>
  4a2c47: 8b 7f 34                     	mov	edi, dword ptr [edi + 0x34]
  4a2c4a: 85 ff                        	test	edi, edi
  4a2c4c: 75 f2                        	jne	0x4a2c40 <.text+0xa1c40>
  4a2c4e: 8b 84 24 9c 00 00 00         	mov	eax, dword ptr [esp + 0x9c]
  4a2c55: 8b 48 0e                     	mov	ecx, dword ptr [eax + 0xe]
  4a2c58: 8b 40 12                     	mov	eax, dword ptr [eax + 0x12]
  4a2c5b: 85 c9                        	test	ecx, ecx
  4a2c5d: 74 0f                        	je	0x4a2c6e <.text+0xa1c6e>
  4a2c5f: 90                           	nop
  4a2c60: c6 01 00                     	mov	byte ptr [ecx], 0x0
  4a2c63: 39 c1                        	cmp	ecx, eax
  4a2c65: 74 07                        	je	0x4a2c6e <.text+0xa1c6e>
  4a2c67: 8b 49 34                     	mov	ecx, dword ptr [ecx + 0x34]
  4a2c6a: 85 c9                        	test	ecx, ecx
  4a2c6c: 75 f2                        	jne	0x4a2c60 <.text+0xa1c60>
  4a2c6e: 8b 84 24 a4 00 00 00         	mov	eax, dword ptr [esp + 0xa4]
  4a2c75: 8b 50 0e                     	mov	edx, dword ptr [eax + 0xe]
  4a2c78: 8b 40 12                     	mov	eax, dword ptr [eax + 0x12]
  4a2c7b: 85 d2                        	test	edx, edx
  4a2c7d: 74 0f                        	je	0x4a2c8e <.text+0xa1c8e>
  4a2c7f: 90                           	nop
  4a2c80: c6 02 00                     	mov	byte ptr [edx], 0x0
  4a2c83: 39 c2                        	cmp	edx, eax
  4a2c85: 74 07                        	je	0x4a2c8e <.text+0xa1c8e>
  4a2c87: 8b 52 34                     	mov	edx, dword ptr [edx + 0x34]
  4a2c8a: 85 d2                        	test	edx, edx
  4a2c8c: 75 f2                        	jne	0x4a2c80 <.text+0xa1c80>
  4a2c8e: 8b 43 1c                     	mov	eax, dword ptr [ebx + 0x1c]
  4a2c91: 8b 68 06                     	mov	ebp, dword ptr [eax + 0x6]
  4a2c94: 8b 7d 0e                     	mov	edi, dword ptr [ebp + 0xe]
  4a2c97: 8b 45 12                     	mov	eax, dword ptr [ebp + 0x12]
  4a2c9a: 85 ff                        	test	edi, edi
  4a2c9c: 74 10                        	je	0x4a2cae <.text+0xa1cae>
  4a2c9e: 89 c0                        	mov	eax, eax
  4a2ca0: c6 07 00                     	mov	byte ptr [edi], 0x0
  4a2ca3: 39 c7                        	cmp	edi, eax
  4a2ca5: 74 07                        	je	0x4a2cae <.text+0xa1cae>
  4a2ca7: 8b 7f 34                     	mov	edi, dword ptr [edi + 0x34]
  4a2caa: 85 ff                        	test	edi, edi
  4a2cac: 75 f2                        	jne	0x4a2ca0 <.text+0xa1ca0>
  4a2cae: 8b 4e 12                     	mov	ecx, dword ptr [esi + 0x12]
  4a2cb1: 8b 41 24                     	mov	eax, dword ptr [ecx + 0x24]
  4a2cb4: 50                           	push	eax
  4a2cb5: e8 c6 69 fc ff               	call	0x469680 <.text+0x68680>
  4a2cba: 59                           	pop	ecx
  4a2cbb: 8b 46 12                     	mov	eax, dword ptr [esi + 0x12]
  4a2cbe: c6 00 00                     	mov	byte ptr [eax], 0x0
  4a2cc1: 83 7c 24 6c 00               	cmp	dword ptr [esp + 0x6c], 0x0
  4a2cc6: 75 63                        	jne	0x4a2d2b <.text+0xa1d2b>
  4a2cc8: 8b 44 24 5c                  	mov	eax, dword ptr [esp + 0x5c]
  4a2ccc: 8b 40 24                     	mov	eax, dword ptr [eax + 0x24]
  4a2ccf: 50                           	push	eax
  4a2cd0: e8 ab 69 fc ff               	call	0x469680 <.text+0x68680>
  4a2cd5: 59                           	pop	ecx
  4a2cd6: 8b 44 24 5c                  	mov	eax, dword ptr [esp + 0x5c]
  4a2cda: c6 00 00                     	mov	byte ptr [eax], 0x0
  4a2cdd: 8b 44 24 04                  	mov	eax, dword ptr [esp + 0x4]
  4a2ce1: 8b 50 12                     	mov	edx, dword ptr [eax + 0x12]
  4a2ce4: 8b 42 24                     	mov	eax, dword ptr [edx + 0x24]
  4a2ce7: 50                           	push	eax
  4a2ce8: e8 93 69 fc ff               	call	0x469680 <.text+0x68680>
  4a2ced: 59                           	pop	ecx
  4a2cee: 8b 44 24 04                  	mov	eax, dword ptr [esp + 0x4]
  4a2cf2: 8b 40 12                     	mov	eax, dword ptr [eax + 0x12]
  4a2cf5: c6 00 00                     	mov	byte ptr [eax], 0x0
  4a2cf8: 83 7c 24 20 00               	cmp	dword ptr [esp + 0x20], 0x0
  4a2cfd: 74 0a                        	je	0x4a2d09 <.text+0xa1d09>
  4a2cff: 8b 44 24 20                  	mov	eax, dword ptr [esp + 0x20]
  4a2d03: 8b 40 12                     	mov	eax, dword ptr [eax + 0x12]
  4a2d06: c6 00 00                     	mov	byte ptr [eax], 0x0
  4a2d09: 8b 7e 0e                     	mov	edi, dword ptr [esi + 0xe]
  4a2d0c: 85 ff                        	test	edi, edi
  4a2d0e: 74 1b                        	je	0x4a2d2b <.text+0xa1d2b>
  4a2d10: 8b 47 02                     	mov	eax, dword ptr [edi + 0x2]
  4a2d13: 83 e0 02                     	and	eax, 0x2
  4a2d16: 75 07                        	jne	0x4a2d1f <.text+0xa1d1f>
  4a2d18: 57                           	push	edi
  4a2d19: e8 62 69 fc ff               	call	0x469680 <.text+0x68680>
  4a2d1e: 59                           	pop	ecx
  4a2d1f: 3b 7e 12                     	cmp	edi, dword ptr [esi + 0x12]
  4a2d22: 74 07                        	je	0x4a2d2b <.text+0xa1d2b>
  4a2d24: 8b 7f 34                     	mov	edi, dword ptr [edi + 0x34]
  4a2d27: 85 ff                        	test	edi, edi
  4a2d29: 75 e5                        	jne	0x4a2d10 <.text+0xa1d10>
  4a2d2b: b8 01 00 00 00               	mov	eax, 0x1
  4a2d30: 81 c4 88 00 00 00            	add	esp, 0x88
  4a2d36: 5d                           	pop	ebp
  4a2d37: 5f                           	pop	edi
  4a2d38: 5e                           	pop	esi
  4a2d39: 5b                           	pop	ebx
  4a2d3a: c3                           	ret
  4a2d3b: 00 00                        	add	byte ptr [eax], al
  4a2d3d: 00 00                        	add	byte ptr [eax], al
  4a2d3f: 00 53 56                     	add	byte ptr [ebx + 0x56], dl
  4a2d42: 57                           	push	edi
  4a2d43: 55                           	push	ebp
  4a2d44: 83 ec 18                     	sub	esp, 0x18
  4a2d47: 8b 5c 24 34                  	mov	ebx, dword ptr [esp + 0x34]
  4a2d4b: 31 ed                        	xor	ebp, ebp
  4a2d4d: 31 f6                        	xor	esi, esi
  4a2d4f: 8b 44 24 2c                  	mov	eax, dword ptr [esp + 0x2c]
  4a2d53: e9 90 00 00 00               	jmp	0x4a2de8 <.text+0xa1de8>
  4a2d58: 8d 44 24 08                  	lea	eax, [esp + 0x8]
  4a2d5c: 50                           	push	eax
  4a2d5d: e8 8e 61 fc ff               	call	0x468ef0 <.text+0x67ef0>
  4a2d62: 59                           	pop	ecx
  4a2d63: 8b 4c 24 04                  	mov	ecx, dword ptr [esp + 0x4]
  4a2d67: 8b 41 12                     	mov	eax, dword ptr [ecx + 0x12]
  4a2d6a: 89 04 24                     	mov	dword ptr [esp], eax
  4a2d6d: 89 c8                        	mov	eax, ecx
  4a2d6f: 8b 78 0e                     	mov	edi, dword ptr [eax + 0xe]
  4a2d72: 8b 47 0a                     	mov	eax, dword ptr [edi + 0xa]
  4a2d75: 85 c0                        	test	eax, eax
  4a2d77: 74 04                        	je	0x4a2d7d <.text+0xa1d7d>
  4a2d79: 80 48 06 10                  	or	byte ptr [eax + 0x6], 0x10
  4a2d7d: 0f b7 47 08                  	movzx	eax, word ptr [edi + 0x8]
  4a2d81: 3b 43 20                     	cmp	eax, dword ptr [ebx + 0x20]
  4a2d84: 7c 05                        	jl	0x4a2d8b <.text+0xa1d8b>
  4a2d86: 3b 43 24                     	cmp	eax, dword ptr [ebx + 0x24]
  4a2d89: 7e 26                        	jle	0x4a2db1 <.text+0xa1db1>
  4a2d8b: 80 3f 08                     	cmp	byte ptr [edi], 0x8
  4a2d8e: 74 21                        	je	0x4a2db1 <.text+0xa1db1>
  4a2d90: 8b 47 02                     	mov	eax, dword ptr [edi + 0x2]
  4a2d93: 83 e0 02                     	and	eax, 0x2
  4a2d96: 75 19                        	jne	0x4a2db1 <.text+0xa1db1>
  4a2d98: 8d 44 24 08                  	lea	eax, [esp + 0x8]
  4a2d9c: 50                           	push	eax
  4a2d9d: 57                           	push	edi
  4a2d9e: e8 ed 5e fc ff               	call	0x468c90 <.text+0x67c90>
  4a2da3: 59                           	pop	ecx
  4a2da4: 59                           	pop	ecx
  4a2da5: 85 ed                        	test	ebp, ebp
  4a2da7: 75 04                        	jne	0x4a2dad <.text+0xa1dad>
  4a2da9: 8b 6c 24 08                  	mov	ebp, dword ptr [esp + 0x8]
  4a2dad: 8b 74 24 0c                  	mov	esi, dword ptr [esp + 0xc]
  4a2db1: 3b 3c 24                     	cmp	edi, dword ptr [esp]
  4a2db4: 74 0a                        	je	0x4a2dc0 <.text+0xa1dc0>
  4a2db6: 8b 7f 34                     	mov	edi, dword ptr [edi + 0x34]
  4a2db9: eb b7                        	jmp	0x4a2d72 <.text+0xa1d72>
  4a2dbb: 89 c0                        	mov	eax, eax
  4a2dbd: 8d 40 00                     	lea	eax, [eax]
  4a2dc0: 83 7c 24 08 00               	cmp	dword ptr [esp + 0x8], 0x0
  4a2dc5: 74 1a                        	je	0x4a2de1 <.text+0xa1de1>
  4a2dc7: 8b 54 24 0c                  	mov	edx, dword ptr [esp + 0xc]
  4a2dcb: 85 d2                        	test	edx, edx
  4a2dcd: 74 12                        	je	0x4a2de1 <.text+0xa1de1>
  4a2dcf: ff 74 24 38                  	push	dword ptr [esp + 0x38]
  4a2dd3: 52                           	push	edx
  4a2dd4: 8b 44 24 10                  	mov	eax, dword ptr [esp + 0x10]
  4a2dd8: 50                           	push	eax
  4a2dd9: e8 e2 62 fc ff               	call	0x4690c0 <.text+0x680c0>
  4a2dde: 83 c4 0c                     	add	esp, 0xc
  4a2de1: 8b 4c 24 04                  	mov	ecx, dword ptr [esp + 0x4]
  4a2de5: 8b 41 32                     	mov	eax, dword ptr [ecx + 0x32]
  4a2de8: 89 44 24 04                  	mov	dword ptr [esp + 0x4], eax
  4a2dec: 83 7c 24 04 00               	cmp	dword ptr [esp + 0x4], 0x0
  4a2df1: 74 0e                        	je	0x4a2e01 <.text+0xa1e01>
  4a2df3: 8b 44 24 04                  	mov	eax, dword ptr [esp + 0x4]
  4a2df7: 3b 44 24 30                  	cmp	eax, dword ptr [esp + 0x30]
  4a2dfb: 0f 85 57 ff ff ff            	jne	0x4a2d58 <.text+0xa1d58>
  4a2e01: 80 7c 24 44 00               	cmp	byte ptr [esp + 0x44], 0x0
  4a2e06: 74 4f                        	je	0x4a2e57 <.text+0xa1e57>
  4a2e08: 8b 43 1c                     	mov	eax, dword ptr [ebx + 0x1c]
  4a2e0b: 8b 48 0e                     	mov	ecx, dword ptr [eax + 0xe]
  4a2e0e: 89 4c 24 14                  	mov	dword ptr [esp + 0x14], ecx
  4a2e12: 85 c9                        	test	ecx, ecx
  4a2e14: 7d 0a                        	jge	0x4a2e20 <.text+0xa1e20>
  4a2e16: 83 c8 ff                     	or	eax, -0x1
  4a2e19: eb 07                        	jmp	0x4a2e22 <.text+0xa1e22>
  4a2e1b: 89 c0                        	mov	eax, eax
  4a2e1d: 8d 40 00                     	lea	eax, [eax]
  4a2e20: 31 c0                        	xor	eax, eax
  4a2e22: 89 44 24 10                  	mov	dword ptr [esp + 0x10], eax
  4a2e26: ff 74 24 14                  	push	dword ptr [esp + 0x14]
  4a2e2a: 50                           	push	eax
  4a2e2b: 8b 44 24 48                  	mov	eax, dword ptr [esp + 0x48]
  4a2e2f: ff 70 04                     	push	dword ptr [eax + 0x4]
  4a2e32: ff 30                        	push	dword ptr [eax]
  4a2e34: e8 b7 17 02 00               	call	0x4c45f0 <.text+0xc35f0>
  4a2e39: 83 c4 10                     	add	esp, 0x10
  4a2e3c: 8b 4c 24 40                  	mov	ecx, dword ptr [esp + 0x40]
  4a2e40: 89 01                        	mov	dword ptr [ecx], eax
  4a2e42: 89 c8                        	mov	eax, ecx
  4a2e44: 89 50 04                     	mov	dword ptr [eax + 0x4], edx
  4a2e47: 53                           	push	ebx
  4a2e48: ff 70 04                     	push	dword ptr [eax + 0x4]
  4a2e4b: ff 30                        	push	dword ptr [eax]
  4a2e4d: 56                           	push	esi
  4a2e4e: 55                           	push	ebp
  4a2e4f: e8 0c d6 ff ff               	call	0x4a0460 <.text+0x9f460>
  4a2e54: 83 c4 14                     	add	esp, 0x14
  4a2e57: 83 c4 18                     	add	esp, 0x18
  4a2e5a: 5d                           	pop	ebp
  4a2e5b: 5f                           	pop	edi
  4a2e5c: 5e                           	pop	esi
  4a2e5d: 5b                           	pop	ebx
  4a2e5e: c3                           	ret
  4a2e5f: 00 53 56                     	add	byte ptr [ebx + 0x56], dl
  4a2e62: 57                           	push	edi
  4a2e63: 55                           	push	ebp
  4a2e64: 81 ec 98 00 00 00            	sub	esp, 0x98
  4a2e6a: 68 28 eb 5a 00               	push	0x5aeb28
  4a2e6f: e8 1c 1c fb ff               	call	0x454a90 <.text+0x53a90>
  4a2e74: 59                           	pop	ecx
  4a2e75: 8b 84 24 b8 00 00 00         	mov	eax, dword ptr [esp + 0xb8]
  4a2e7c: 8b 00                        	mov	eax, dword ptr [eax]
  4a2e7e: 89 c3                        	mov	ebx, eax
  4a2e80: 81 e3 00 08 00 00            	and	ebx, 0x800
  4a2e86: 74 18                        	je	0x4a2ea0 <.text+0xa1ea0>
  4a2e88: 68 3c eb 5a 00               	push	0x5aeb3c
  4a2e8d: e8 fe 1b fb ff               	call	0x454a90 <.text+0x53a90>
  4a2e92: 59                           	pop	ecx
  4a2e93: 31 c0                        	xor	eax, eax
  4a2e95: 81 c4 98 00 00 00            	add	esp, 0x98
  4a2e9b: 5d                           	pop	ebp
  4a2e9c: 5f                           	pop	edi
  4a2e9d: 5e                           	pop	esi
  4a2e9e: 5b                           	pop	ebx
  4a2e9f: c3                           	ret
  4a2ea0: 89 c6                        	mov	esi, eax
  4a2ea2: 81 e6 00 10 00 00            	and	esi, 0x1000
  4a2ea8: 74 18                        	je	0x4a2ec2 <.text+0xa1ec2>
  4a2eaa: 68 70 eb 5a 00               	push	0x5aeb70
  4a2eaf: e8 dc 1b fb ff               	call	0x454a90 <.text+0x53a90>
  4a2eb4: 59                           	pop	ecx
  4a2eb5: 31 c0                        	xor	eax, eax
  4a2eb7: 81 c4 98 00 00 00            	add	esp, 0x98
  4a2ebd: 5d                           	pop	ebp
  4a2ebe: 5f                           	pop	edi
  4a2ebf: 5e                           	pop	esi
  4a2ec0: 5b                           	pop	ebx
  4a2ec1: c3                           	ret
  4a2ec2: 83 e0 40                     	and	eax, 0x40
  4a2ec5: 75 0d                        	jne	0x4a2ed4 <.text+0xa1ed4>
  4a2ec7: 31 c0                        	xor	eax, eax
  4a2ec9: 81 c4 98 00 00 00            	add	esp, 0x98
  4a2ecf: 5d                           	pop	ebp
  4a2ed0: 5f                           	pop	edi
  4a2ed1: 5e                           	pop	esi
  4a2ed2: 5b                           	pop	ebx
  4a2ed3: c3                           	ret
  4a2ed4: a1 70 90 5e 00               	mov	eax, dword ptr [0x5e9070]
  4a2ed9: 89 44 24 04                  	mov	dword ptr [esp + 0x4], eax
  4a2edd: 85 c0                        	test	eax, eax
  4a2edf: 74 22                        	je	0x4a2f03 <.text+0xa1f03>
  4a2ee1: 8b 44 24 04                  	mov	eax, dword ptr [esp + 0x4]
  4a2ee5: 0f b6 00                     	movzx	eax, byte ptr [eax]
  4a2ee8: 89 c5                        	mov	ebp, eax
  4a2eea: 83 e5 01                     	and	ebp, 0x1
  4a2eed: 74 05                        	je	0x4a2ef4 <.text+0xa1ef4>
  4a2eef: 83 e0 02                     	and	eax, 0x2
  4a2ef2: 75 0f                        	jne	0x4a2f03 <.text+0xa1f03>
  4a2ef4: 8b 4c 24 04                  	mov	ecx, dword ptr [esp + 0x4]
  4a2ef8: 8b 41 16                     	mov	eax, dword ptr [ecx + 0x16]
  4a2efb: 89 44 24 04                  	mov	dword ptr [esp + 0x4], eax
  4a2eff: 85 c0                        	test	eax, eax
  4a2f01: 75 de                        	jne	0x4a2ee1 <.text+0xa1ee1>
  4a2f03: 83 7c 24 04 00               	cmp	dword ptr [esp + 0x4], 0x0
  4a2f08: 75 18                        	jne	0x4a2f22 <.text+0xa1f22>
  4a2f0a: 68 a4 eb 5a 00               	push	0x5aeba4
  4a2f0f: e8 7c 1b fb ff               	call	0x454a90 <.text+0x53a90>
  4a2f14: 59                           	pop	ecx
  4a2f15: 31 c0                        	xor	eax, eax
  4a2f17: 81 c4 98 00 00 00            	add	esp, 0x98
  4a2f1d: 5d                           	pop	ebp
  4a2f1e: 5f                           	pop	edi
  4a2f1f: 5e                           	pop	esi
  4a2f20: 5b                           	pop	ebx
  4a2f21: c3                           	ret
  4a2f22: 8b 44 24 04                  	mov	eax, dword ptr [esp + 0x4]
  4a2f26: 8b 50 0a                     	mov	edx, dword ptr [eax + 0xa]
  4a2f29: 8b 42 0e                     	mov	eax, dword ptr [edx + 0xe]
  4a2f2c: 50                           	push	eax
  4a2f2d: e8 fe 50 04 00               	call	0x4e8030 <.text+0xe7030>
  4a2f32: 59                           	pop	ecx
  4a2f33: 84 c0                        	test	al, al
  4a2f35: 75 0d                        	jne	0x4a2f44 <.text+0xa1f44>
  4a2f37: 31 c0                        	xor	eax, eax
  4a2f39: 81 c4 98 00 00 00            	add	esp, 0x98
  4a2f3f: 5d                           	pop	ebp
  4a2f40: 5f                           	pop	edi
  4a2f41: 5e                           	pop	esi
  4a2f42: 5b                           	pop	ebx
  4a2f43: c3                           	ret
  4a2f44: 8b 44 24 04                  	mov	eax, dword ptr [esp + 0x4]
  4a2f48: 8b 40 0a                     	mov	eax, dword ptr [eax + 0xa]
  4a2f4b: 8a 08                        	mov	cl, byte ptr [eax]
  4a2f4d: 80 f9 03                     	cmp	cl, 0x3
  4a2f50: 0f 85 8e 00 00 00            	jne	0x4a2fe4 <.text+0xa1fe4>
  4a2f56: 80 78 01 22                  	cmp	byte ptr [eax + 0x1], 0x22
  4a2f5a: 75 29                        	jne	0x4a2f85 <.text+0xa1f85>
  4a2f5c: 8b 40 24                     	mov	eax, dword ptr [eax + 0x24]
  4a2f5f: 50                           	push	eax
  4a2f60: e8 9b 73 fc ff               	call	0x46a300 <.text+0x69300>
  4a2f65: 59                           	pop	ecx
  4a2f66: 84 c0                        	test	al, al
  4a2f68: 74 1b                        	je	0x4a2f85 <.text+0xa1f85>
  4a2f6a: 8b 44 24 04                  	mov	eax, dword ptr [esp + 0x4]
  4a2f6e: 83 78 0e 01                  	cmp	dword ptr [eax + 0xe], 0x1
  4a2f72: 0f 84 8a 00 00 00            	je	0x4a3002 <.text+0xa2002>
  4a2f78: 31 c0                        	xor	eax, eax
  4a2f7a: 81 c4 98 00 00 00            	add	esp, 0x98
  4a2f80: 5d                           	pop	ebp
  4a2f81: 5f                           	pop	edi
  4a2f82: 5e                           	pop	esi
  4a2f83: 5b                           	pop	ebx
  4a2f84: c3                           	ret
  4a2f85: 8b 44 24 04                  	mov	eax, dword ptr [esp + 0x4]
  4a2f89: 8b 40 0a                     	mov	eax, dword ptr [eax + 0xa]
  4a2f8c: 80 78 01 1e                  	cmp	byte ptr [eax + 0x1], 0x1e
  4a2f90: 75 45                        	jne	0x4a2fd7 <.text+0xa1fd7>
  4a2f92: 8b 78 24                     	mov	edi, dword ptr [eax + 0x24]
  4a2f95: 80 3f 03                     	cmp	byte ptr [edi], 0x3
  4a2f98: 75 14                        	jne	0x4a2fae <.text+0xa1fae>
  4a2f9a: 80 7f 01 0f                  	cmp	byte ptr [edi + 0x1], 0xf
  4a2f9e: 75 0e                        	jne	0x4a2fae <.text+0xa1fae>
  4a2fa0: 8b 47 24                     	mov	eax, dword ptr [edi + 0x24]
  4a2fa3: 50                           	push	eax
  4a2fa4: e8 57 73 fc ff               	call	0x46a300 <.text+0x69300>
  4a2fa9: 59                           	pop	ecx
  4a2faa: 84 c0                        	test	al, al
  4a2fac: 75 12                        	jne	0x4a2fc0 <.text+0xa1fc0>
  4a2fae: 31 c0                        	xor	eax, eax
  4a2fb0: 81 c4 98 00 00 00            	add	esp, 0x98
  4a2fb6: 5d                           	pop	ebp
  4a2fb7: 5f                           	pop	edi
  4a2fb8: 5e                           	pop	esi
  4a2fb9: 5b                           	pop	ebx
  4a2fba: c3                           	ret
  4a2fbb: 89 c0                        	mov	eax, eax
  4a2fbd: 8d 40 00                     	lea	eax, [eax]
  4a2fc0: 8b 44 24 04                  	mov	eax, dword ptr [esp + 0x4]
  4a2fc4: 83 78 0e 01                  	cmp	dword ptr [eax + 0xe], 0x1
  4a2fc8: 74 38                        	je	0x4a3002 <.text+0xa2002>
  4a2fca: 31 c0                        	xor	eax, eax
  4a2fcc: 81 c4 98 00 00 00            	add	esp, 0x98
  4a2fd2: 5d                           	pop	ebp
  4a2fd3: 5f                           	pop	edi
  4a2fd4: 5e                           	pop	esi
  4a2fd5: 5b                           	pop	ebx
  4a2fd6: c3                           	ret
  4a2fd7: 31 c0                        	xor	eax, eax
  4a2fd9: 81 c4 98 00 00 00            	add	esp, 0x98
  4a2fdf: 5d                           	pop	ebp
  4a2fe0: 5f                           	pop	edi
  4a2fe1: 5e                           	pop	esi
  4a2fe2: 5b                           	pop	ebx
  4a2fe3: c3                           	ret
  4a2fe4: 80 f9 02                     	cmp	cl, 0x2
  4a2fe7: 75 19                        	jne	0x4a3002 <.text+0xa2002>
  4a2fe9: 8a 50 01                     	mov	dl, byte ptr [eax + 0x1]
  4a2fec: 80 fa 02                     	cmp	dl, 0x2
  4a2fef: 74 11                        	je	0x4a3002 <.text+0xa2002>
  4a2ff1: 84 d2                        	test	dl, dl
  4a2ff3: 74 0d                        	je	0x4a3002 <.text+0xa2002>
  4a2ff5: 31 c0                        	xor	eax, eax
  4a2ff7: 81 c4 98 00 00 00            	add	esp, 0x98
  4a2ffd: 5d                           	pop	ebp
  4a2ffe: 5f                           	pop	edi
  4a2fff: 5e                           	pop	esi
  4a3000: 5b                           	pop	ebx
  4a3001: c3                           	ret
  4a3002: 8b 4c 24 04                  	mov	ecx, dword ptr [esp + 0x4]
  4a3006: 8b 84 24 b8 00 00 00         	mov	eax, dword ptr [esp + 0xb8]
  4a300d: 89 48 1c                     	mov	dword ptr [eax + 0x1c], ecx
  4a3010: 8b 44 24 04                  	mov	eax, dword ptr [esp + 0x4]
  4a3014: 8b 40 0a                     	mov	eax, dword ptr [eax + 0xa]
  4a3017: 0f b7 58 08                  	movzx	ebx, word ptr [eax + 0x8]
  4a301b: 8b 84 24 b8 00 00 00         	mov	eax, dword ptr [esp + 0xb8]
  4a3022: 89 58 24                     	mov	dword ptr [eax + 0x24], ebx
  4a3025: 8b 44 24 04                  	mov	eax, dword ptr [esp + 0x4]
  4a3029: 8b 40 0a                     	mov	eax, dword ptr [eax + 0xa]
  4a302c: 50                           	push	eax
  4a302d: e8 3e 53 fc ff               	call	0x468370 <.text+0x67370>
  4a3032: 59                           	pop	ecx
  4a3033: 0f b7 48 08                  	movzx	ecx, word ptr [eax + 0x8]
  4a3037: 8b 84 24 b8 00 00 00         	mov	eax, dword ptr [esp + 0xb8]
  4a303e: 89 48 20                     	mov	dword ptr [eax + 0x20], ecx
  4a3041: 8b 35 68 98 5e 00            	mov	esi, dword ptr [0x5e9868]
  4a3047: 8d 7c 24 74                  	lea	edi, [esp + 0x74]
  4a304b: 31 c0                        	xor	eax, eax
  4a304d: b9 09 00 00 00               	mov	ecx, 0x9
  4a3052: f3 ab                        	rep		stosd	dword ptr es:[edi], eax
  4a3054: 85 f6                        	test	esi, esi
  4a3056: 74 6f                        	je	0x4a30c7 <.text+0xa20c7>
  4a3058: 0f b7 0e                     	movzx	ecx, word ptr [esi]
  4a305b: 89 cb                        	mov	ebx, ecx
  4a305d: c1 fb 05                     	sar	ebx, 0x5
  4a3060: a1 64 9b 5e 00               	mov	eax, dword ptr [0x5e9b64]
  4a3065: 3b 18                        	cmp	ebx, dword ptr [eax]
  4a3067: 73 57                        	jae	0x4a30c0 <.text+0xa20c0>
  4a3069: bf 01 00 00 00               	mov	edi, 0x1
  4a306e: d3 e7                        	shl	edi, cl
  4a3070: 23 7c 98 04                  	and	edi, dword ptr [eax + 4*ebx + 0x4]
  4a3074: 74 4a                        	je	0x4a30c0 <.text+0xa20c0>
  4a3076: 3b b4 24 ac 00 00 00         	cmp	esi, dword ptr [esp + 0xac]
  4a307d: 74 41                        	je	0x4a30c0 <.text+0xa20c0>
  4a307f: 8d 6c 24 74                  	lea	ebp, [esp + 0x74]
  4a3083: 55                           	push	ebp
  4a3084: 8d 44 24 74                  	lea	eax, [esp + 0x74]
  4a3088: 50                           	push	eax
  4a3089: 8d 54 24 74                  	lea	edx, [esp + 0x74]
  4a308d: 52                           	push	edx
  4a308e: 8d 84 24 c8 00 00 00         	lea	eax, [esp + 0xc8]
  4a3095: 50                           	push	eax
  4a3096: ff 74 24 14                  	push	dword ptr [esp + 0x14]
  4a309a: ff b4 24 cc 00 00 00         	push	dword ptr [esp + 0xcc]
  4a30a1: 56                           	push	esi
  4a30a2: e8 69 0a 00 00               	call	0x4a3b10 <.text+0xa2b10>
  4a30a7: 83 c4 1c                     	add	esp, 0x1c
  4a30aa: 85 c0                        	test	eax, eax
  4a30ac: 75 12                        	jne	0x4a30c0 <.text+0xa20c0>
  4a30ae: 31 c0                        	xor	eax, eax
  4a30b0: 81 c4 98 00 00 00            	add	esp, 0x98
  4a30b6: 5d                           	pop	ebp
  4a30b7: 5f                           	pop	edi
  4a30b8: 5e                           	pop	esi
  4a30b9: 5b                           	pop	ebx
  4a30ba: c3                           	ret
  4a30bb: 89 c0                        	mov	eax, eax
  4a30bd: 8d 40 00                     	lea	eax, [eax]
  4a30c0: 8b 76 32                     	mov	esi, dword ptr [esi + 0x32]
  4a30c3: 85 f6                        	test	esi, esi
  4a30c5: 75 91                        	jne	0x4a3058 <.text+0xa2058>
  4a30c7: 83 7c 24 6c 01               	cmp	dword ptr [esp + 0x6c], 0x1
  4a30cc: 7f 07                        	jg	0x4a30d5 <.text+0xa20d5>
  4a30ce: 83 7c 24 70 01               	cmp	dword ptr [esp + 0x70], 0x1
  4a30d3: 7e 0d                        	jle	0x4a30e2 <.text+0xa20e2>
  4a30d5: 31 c0                        	xor	eax, eax
  4a30d7: 81 c4 98 00 00 00            	add	esp, 0x98
  4a30dd: 5d                           	pop	ebp
  4a30de: 5f                           	pop	edi
  4a30df: 5e                           	pop	esi
  4a30e0: 5b                           	pop	ebx
  4a30e1: c3                           	ret
  4a30e2: 8b 84 24 b0 00 00 00         	mov	eax, dword ptr [esp + 0xb0]
  4a30e9: 8b 40 12                     	mov	eax, dword ptr [eax + 0x12]
  4a30ec: 8b 50 20                     	mov	edx, dword ptr [eax + 0x20]
  4a30ef: 89 54 24 2c                  	mov	dword ptr [esp + 0x2c], edx
  4a30f3: 50                           	push	eax
  4a30f4: 52                           	push	edx
  4a30f5: e8 86 5d fc ff               	call	0x468e80 <.text+0x67e80>
  4a30fa: 59                           	pop	ecx
  4a30fb: 59                           	pop	ecx
  4a30fc: 89 c3                        	mov	ebx, eax
  4a30fe: 8d 44 24 64                  	lea	eax, [esp + 0x64]
  4a3102: 50                           	push	eax
  4a3103: e8 e8 5d fc ff               	call	0x468ef0 <.text+0x67ef0>
  4a3108: 59                           	pop	ecx
  4a3109: 8d 44 24 64                  	lea	eax, [esp + 0x64]
  4a310d: 50                           	push	eax
  4a310e: 8b 0d 5c 97 5e 00            	mov	ecx, dword ptr [0x5e975c]
  4a3114: 8b 79 12                     	mov	edi, dword ptr [ecx + 0x12]
  4a3117: 8b 47 24                     	mov	eax, dword ptr [edi + 0x24]
  4a311a: 8b 70 20                     	mov	esi, dword ptr [eax + 0x20]
  4a311d: 56                           	push	esi
  4a311e: 8b 43 34                     	mov	eax, dword ptr [ebx + 0x34]
  4a3121: 50                           	push	eax
  4a3122: e8 19 5d fc ff               	call	0x468e40 <.text+0x67e40>
  4a3127: 83 c4 0c                     	add	esp, 0xc
  4a312a: 8d 44 24 64                  	lea	eax, [esp + 0x64]
  4a312e: 50                           	push	eax
  4a312f: 8b 2d 5c 97 5e 00            	mov	ebp, dword ptr [0x5e975c]
  4a3135: 8b 55 12                     	mov	edx, dword ptr [ebp + 0x12]
  4a3138: 8b 42 24                     	mov	eax, dword ptr [edx + 0x24]
  4a313b: 50                           	push	eax
  4a313c: e8 4f 5b fc ff               	call	0x468c90 <.text+0x67c90>
  4a3141: 59                           	pop	ecx
  4a3142: 59                           	pop	ecx
  4a3143: 8b 84 24 b0 00 00 00         	mov	eax, dword ptr [esp + 0xb0]
  4a314a: 8b 40 12                     	mov	eax, dword ptr [eax + 0x12]
  4a314d: 50                           	push	eax
  4a314e: 8b 4c 24 6c                  	mov	ecx, dword ptr [esp + 0x6c]
  4a3152: 51                           	push	ecx
  4a3153: 8b 44 24 6c                  	mov	eax, dword ptr [esp + 0x6c]
  4a3157: 50                           	push	eax
  4a3158: e8 63 5f fc ff               	call	0x4690c0 <.text+0x680c0>
  4a315d: 83 c4 0c                     	add	esp, 0xc
  4a3160: 8b 7c 24 68                  	mov	edi, dword ptr [esp + 0x68]
  4a3164: 8d 44 24 64                  	lea	eax, [esp + 0x64]
  4a3168: 50                           	push	eax
  4a3169: e8 82 5d fc ff               	call	0x468ef0 <.text+0x67ef0>
  4a316e: 59                           	pop	ecx
  4a316f: a1 5c 97 5e 00               	mov	eax, dword ptr [0x5e975c]
  4a3174: 8b 70 12                     	mov	esi, dword ptr [eax + 0x12]
  4a3177: 8a 1e                        	mov	bl, byte ptr [esi]
  4a3179: 6a 02                        	push	0x2
  4a317b: e8 f0 c7 fc ff               	call	0x46f970 <.text+0x6e970>
  4a3180: 59                           	pop	ecx
  4a3181: 89 44 24 60                  	mov	dword ptr [esp + 0x60], eax
  4a3185: ff 05 00 90 5e 00            	inc	dword ptr [0x5e9000]
  4a318b: 66 8b 2d 00 90 5e 00         	mov	bp, word ptr [0x5e9000]
  4a3192: 66 89 68 08                  	mov	word ptr [eax + 0x8], bp
  4a3196: 80 fb 05                     	cmp	bl, 0x5
  4a3199: 75 05                        	jne	0x4a31a0 <.text+0xa21a0>
  4a319b: c6 00 06                     	mov	byte ptr [eax], 0x6
  4a319e: eb 07                        	jmp	0x4a31a7 <.text+0xa21a7>
  4a31a0: 8b 44 24 60                  	mov	eax, dword ptr [esp + 0x60]
  4a31a4: c6 00 05                     	mov	byte ptr [eax], 0x5
  4a31a7: 8d 44 24 64                  	lea	eax, [esp + 0x64]
  4a31ab: 50                           	push	eax
  4a31ac: ff 74 24 64                  	push	dword ptr [esp + 0x64]
  4a31b0: e8 0b 5d fc ff               	call	0x468ec0 <.text+0x67ec0>
  4a31b5: 59                           	pop	ecx
  4a31b6: 59                           	pop	ecx
  4a31b7: e8 f4 6b fc ff               	call	0x469db0 <.text+0x68db0>
  4a31bc: 89 44 24 28                  	mov	dword ptr [esp + 0x28], eax
  4a31c0: 89 c1                        	mov	ecx, eax
  4a31c2: 8b 44 24 60                  	mov	eax, dword ptr [esp + 0x60]
  4a31c6: 89 48 20                     	mov	dword ptr [eax + 0x20], ecx
  4a31c9: 89 78 24                     	mov	dword ptr [eax + 0x24], edi
  4a31cc: 8b 40 24                     	mov	eax, dword ptr [eax + 0x24]
  4a31cf: 83 48 02 02                  	or	dword ptr [eax + 0x2], 0x2
  4a31d3: 8b 15 5c 97 5e 00            	mov	edx, dword ptr [0x5e975c]
  4a31d9: 8b 42 12                     	mov	eax, dword ptr [edx + 0x12]
  4a31dc: 8b 48 0e                     	mov	ecx, dword ptr [eax + 0xe]
  4a31df: 8b 44 24 60                  	mov	eax, dword ptr [esp + 0x60]
  4a31e3: 89 48 0e                     	mov	dword ptr [eax + 0xe], ecx
  4a31e6: 8b 84 24 b0 00 00 00         	mov	eax, dword ptr [esp + 0xb0]
  4a31ed: 8b 40 12                     	mov	eax, dword ptr [eax + 0x12]
  4a31f0: 50                           	push	eax
  4a31f1: 8b 5c 24 6c                  	mov	ebx, dword ptr [esp + 0x6c]
  4a31f5: 53                           	push	ebx
  4a31f6: 8b 44 24 6c                  	mov	eax, dword ptr [esp + 0x6c]
  4a31fa: 50                           	push	eax
  4a31fb: e8 c0 5e fc ff               	call	0x4690c0 <.text+0x680c0>
  4a3200: 83 c4 0c                     	add	esp, 0xc
  4a3203: 8d 44 24 64                  	lea	eax, [esp + 0x64]
  4a3207: 50                           	push	eax
  4a3208: e8 e3 5c fc ff               	call	0x468ef0 <.text+0x67ef0>
  4a320d: 59                           	pop	ecx
  4a320e: ff b4 24 b8 00 00 00         	push	dword ptr [esp + 0xb8]
  4a3215: 8d 44 24 68                  	lea	eax, [esp + 0x68]
  4a3219: 50                           	push	eax
  4a321a: e8 31 dd ff ff               	call	0x4a0f50 <.text+0x9ff50>
  4a321f: 59                           	pop	ecx
  4a3220: 59                           	pop	ecx
  4a3221: 89 c7                        	mov	edi, eax
  4a3223: 8b 84 24 b0 00 00 00         	mov	eax, dword ptr [esp + 0xb0]
  4a322a: 8b 40 12                     	mov	eax, dword ptr [eax + 0x12]
  4a322d: 50                           	push	eax
  4a322e: 8b 74 24 6c                  	mov	esi, dword ptr [esp + 0x6c]
  4a3232: 56                           	push	esi
  4a3233: 8b 44 24 6c                  	mov	eax, dword ptr [esp + 0x6c]
  4a3237: 50                           	push	eax
  4a3238: e8 83 5e fc ff               	call	0x4690c0 <.text+0x680c0>
  4a323d: 83 c4 0c                     	add	esp, 0xc
  4a3240: 8b 44 24 64                  	mov	eax, dword ptr [esp + 0x64]
  4a3244: 89 44 24 50                  	mov	dword ptr [esp + 0x50], eax
  4a3248: 8d 44 24 64                  	lea	eax, [esp + 0x64]
  4a324c: 50                           	push	eax
  4a324d: e8 9e 5c fc ff               	call	0x468ef0 <.text+0x67ef0>
  4a3252: 59                           	pop	ecx
  4a3253: 8d 6c 24 64                  	lea	ebp, [esp + 0x64]
  4a3257: 55                           	push	ebp
  4a3258: 8b 84 24 c0 00 00 00         	mov	eax, dword ptr [esp + 0xc0]
  4a325f: 50                           	push	eax
  4a3260: ff 74 24 0c                  	push	dword ptr [esp + 0xc]
  4a3264: e8 87 d9 ff ff               	call	0x4a0bf0 <.text+0x9fbf0>
  4a3269: 83 c4 0c                     	add	esp, 0xc
  4a326c: 89 44 24 38                  	mov	dword ptr [esp + 0x38], eax
  4a3270: 8b 84 24 b0 00 00 00         	mov	eax, dword ptr [esp + 0xb0]
  4a3277: 8b 40 12                     	mov	eax, dword ptr [eax + 0x12]
  4a327a: 50                           	push	eax
  4a327b: 8b 54 24 6c                  	mov	edx, dword ptr [esp + 0x6c]
  4a327f: 52                           	push	edx
  4a3280: 8b 44 24 6c                  	mov	eax, dword ptr [esp + 0x6c]
  4a3284: 50                           	push	eax
  4a3285: e8 36 5e fc ff               	call	0x4690c0 <.text+0x680c0>
  4a328a: 83 c4 0c                     	add	esp, 0xc
  4a328d: 8d 44 24 64                  	lea	eax, [esp + 0x64]
  4a3291: 50                           	push	eax
  4a3292: e8 59 5c fc ff               	call	0x468ef0 <.text+0x67ef0>
  4a3297: 59                           	pop	ecx
  4a3298: ff b4 24 b8 00 00 00         	push	dword ptr [esp + 0xb8]
  4a329f: 8d 4c 24 68                  	lea	ecx, [esp + 0x68]
  4a32a3: 51                           	push	ecx
  4a32a4: 8b 84 24 c4 00 00 00         	mov	eax, dword ptr [esp + 0xc4]
  4a32ab: 50                           	push	eax
  4a32ac: 57                           	push	edi
  4a32ad: e8 6e d5 ff ff               	call	0x4a0820 <.text+0x9f820>
  4a32b2: 83 c4 10                     	add	esp, 0x10
  4a32b5: 89 44 24 24                  	mov	dword ptr [esp + 0x24], eax
  4a32b9: 8b 84 24 b0 00 00 00         	mov	eax, dword ptr [esp + 0xb0]
  4a32c0: 8b 40 12                     	mov	eax, dword ptr [eax + 0x12]
  4a32c3: 50                           	push	eax
  4a32c4: 8b 5c 24 6c                  	mov	ebx, dword ptr [esp + 0x6c]
  4a32c8: 53                           	push	ebx
  4a32c9: 8b 44 24 6c                  	mov	eax, dword ptr [esp + 0x6c]
  4a32cd: 50                           	push	eax
  4a32ce: e8 ed 5d fc ff               	call	0x4690c0 <.text+0x680c0>
  4a32d3: 83 c4 0c                     	add	esp, 0xc
  4a32d6: 8d 44 24 64                  	lea	eax, [esp + 0x64]
  4a32da: 50                           	push	eax
  4a32db: e8 10 5c fc ff               	call	0x468ef0 <.text+0x67ef0>
  4a32e0: 59                           	pop	ecx
  4a32e1: ff b4 24 b8 00 00 00         	push	dword ptr [esp + 0xb8]
  4a32e8: 8d 74 24 68                  	lea	esi, [esp + 0x68]
  4a32ec: 56                           	push	esi
  4a32ed: 8b 84 24 c4 00 00 00         	mov	eax, dword ptr [esp + 0xc4]
  4a32f4: 50                           	push	eax
  4a32f5: 57                           	push	edi
  4a32f6: e8 65 d7 ff ff               	call	0x4a0a60 <.text+0x9fa60>
  4a32fb: 83 c4 10                     	add	esp, 0x10
  4a32fe: 89 44 24 44                  	mov	dword ptr [esp + 0x44], eax
  4a3302: 8b 84 24 b0 00 00 00         	mov	eax, dword ptr [esp + 0xb0]
  4a3309: 8b 40 12                     	mov	eax, dword ptr [eax + 0x12]
  4a330c: 50                           	push	eax
  4a330d: 8b 6c 24 6c                  	mov	ebp, dword ptr [esp + 0x6c]
  4a3311: 55                           	push	ebp
  4a3312: 8b 44 24 6c                  	mov	eax, dword ptr [esp + 0x6c]
  4a3316: 50                           	push	eax
  4a3317: e8 a4 5d fc ff               	call	0x4690c0 <.text+0x680c0>
  4a331c: 83 c4 0c                     	add	esp, 0xc
  4a331f: 8d 44 24 64                  	lea	eax, [esp + 0x64]
  4a3323: 50                           	push	eax
  4a3324: e8 c7 5b fc ff               	call	0x468ef0 <.text+0x67ef0>
  4a3329: 59                           	pop	ecx
  4a332a: ff 74 24 2c                  	push	dword ptr [esp + 0x2c]
  4a332e: 8b 84 24 c0 00 00 00         	mov	eax, dword ptr [esp + 0xc0]
  4a3335: 50                           	push	eax
  4a3336: 57                           	push	edi
  4a3337: 8d 44 24 70                  	lea	eax, [esp + 0x70]
  4a333b: 50                           	push	eax
  4a333c: e8 ff d3 ff ff               	call	0x4a0740 <.text+0x9f740>
  4a3341: 83 c4 10                     	add	esp, 0x10
  4a3344: 8b 84 24 b0 00 00 00         	mov	eax, dword ptr [esp + 0xb0]
  4a334b: 8b 40 12                     	mov	eax, dword ptr [eax + 0x12]
  4a334e: 50                           	push	eax
  4a334f: 8b 54 24 6c                  	mov	edx, dword ptr [esp + 0x6c]
  4a3353: 52                           	push	edx
  4a3354: 8b 44 24 6c                  	mov	eax, dword ptr [esp + 0x6c]
  4a3358: 50                           	push	eax
  4a3359: e8 62 5d fc ff               	call	0x4690c0 <.text+0x680c0>
  4a335e: 83 c4 0c                     	add	esp, 0xc
  4a3361: 8b 44 24 68                  	mov	eax, dword ptr [esp + 0x68]
  4a3365: 89 44 24 54                  	mov	dword ptr [esp + 0x54], eax
  4a3369: 8d 44 24 64                  	lea	eax, [esp + 0x64]
  4a336d: 50                           	push	eax
  4a336e: e8 7d 5b fc ff               	call	0x468ef0 <.text+0x67ef0>
  4a3373: 59                           	pop	ecx
  4a3374: 8d 44 24 64                  	lea	eax, [esp + 0x64]
  4a3378: 50                           	push	eax
  4a3379: e8 02 1d 00 00               	call	0x4a5080 <.text+0xa4080>
  4a337e: 59                           	pop	ecx
  4a337f: 89 44 24 30                  	mov	dword ptr [esp + 0x30], eax
  4a3383: 8b 84 24 b0 00 00 00         	mov	eax, dword ptr [esp + 0xb0]
  4a338a: 8b 40 12                     	mov	eax, dword ptr [eax + 0x12]
  4a338d: 50                           	push	eax
  4a338e: 8b 4c 24 6c                  	mov	ecx, dword ptr [esp + 0x6c]
  4a3392: 51                           	push	ecx
  4a3393: 8b 44 24 6c                  	mov	eax, dword ptr [esp + 0x6c]
  4a3397: 50                           	push	eax
  4a3398: e8 23 5d fc ff               	call	0x4690c0 <.text+0x680c0>
  4a339d: 83 c4 0c                     	add	esp, 0xc
  4a33a0: 8b 44 24 64                  	mov	eax, dword ptr [esp + 0x64]
  4a33a4: 89 44 24 3c                  	mov	dword ptr [esp + 0x3c], eax
  4a33a8: 31 ff                        	xor	edi, edi
  4a33aa: 8b 9c 24 b4 00 00 00         	mov	ebx, dword ptr [esp + 0xb4]
  4a33b1: eb 78                        	jmp	0x4a342b <.text+0xa242b>
  4a33b3: 8d 44 24 64                  	lea	eax, [esp + 0x64]
  4a33b7: 50                           	push	eax
  4a33b8: e8 33 5b fc ff               	call	0x468ef0 <.text+0x67ef0>
  4a33bd: 59                           	pop	ecx
  4a33be: 8b 73 12                     	mov	esi, dword ptr [ebx + 0x12]
  4a33c1: 8b 6b 0e                     	mov	ebp, dword ptr [ebx + 0xe]
  4a33c4: 8b 45 0a                     	mov	eax, dword ptr [ebp + 0xa]
  4a33c7: 85 c0                        	test	eax, eax
  4a33c9: 74 04                        	je	0x4a33cf <.text+0xa23cf>
  4a33cb: 80 48 06 10                  	or	byte ptr [eax + 0x6], 0x10
  4a33cf: 80 7d 00 08                  	cmp	byte ptr [ebp], 0x8
  4a33d3: 74 1d                        	je	0x4a33f2 <.text+0xa23f2>
  4a33d5: 8b 45 02                     	mov	eax, dword ptr [ebp + 0x2]
  4a33d8: 83 e0 02                     	and	eax, 0x2
  4a33db: 75 15                        	jne	0x4a33f2 <.text+0xa23f2>
  4a33dd: 8d 44 24 64                  	lea	eax, [esp + 0x64]
  4a33e1: 50                           	push	eax
  4a33e2: 55                           	push	ebp
  4a33e3: e8 a8 58 fc ff               	call	0x468c90 <.text+0x67c90>
  4a33e8: 59                           	pop	ecx
  4a33e9: 59                           	pop	ecx
  4a33ea: 85 ff                        	test	edi, edi
  4a33ec: 75 04                        	jne	0x4a33f2 <.text+0xa23f2>
  4a33ee: 8b 7c 24 64                  	mov	edi, dword ptr [esp + 0x64]
  4a33f2: 39 f5                        	cmp	ebp, esi
  4a33f4: 74 0a                        	je	0x4a3400 <.text+0xa2400>
  4a33f6: 8b 6d 34                     	mov	ebp, dword ptr [ebp + 0x34]
  4a33f9: eb c9                        	jmp	0x4a33c4 <.text+0xa23c4>
  4a33fb: 89 c0                        	mov	eax, eax
  4a33fd: 8d 40 00                     	lea	eax, [eax]
  4a3400: 83 7c 24 64 00               	cmp	dword ptr [esp + 0x64], 0x0
  4a3405: 74 21                        	je	0x4a3428 <.text+0xa2428>
  4a3407: 8b 4c 24 68                  	mov	ecx, dword ptr [esp + 0x68]
  4a340b: 85 c9                        	test	ecx, ecx
  4a340d: 74 19                        	je	0x4a3428 <.text+0xa2428>
  4a340f: 8b 84 24 b0 00 00 00         	mov	eax, dword ptr [esp + 0xb0]
  4a3416: 8b 40 12                     	mov	eax, dword ptr [eax + 0x12]
  4a3419: 50                           	push	eax
  4a341a: 51                           	push	ecx
  4a341b: 8b 44 24 6c                  	mov	eax, dword ptr [esp + 0x6c]
  4a341f: 50                           	push	eax
  4a3420: e8 9b 5c fc ff               	call	0x4690c0 <.text+0x680c0>
  4a3425: 83 c4 0c                     	add	esp, 0xc
  4a3428: 8b 5b 32                     	mov	ebx, dword ptr [ebx + 0x32]
  4a342b: 85 db                        	test	ebx, ebx
  4a342d: 74 0d                        	je	0x4a343c <.text+0xa243c>
  4a342f: 3b 9c 24 ac 00 00 00         	cmp	ebx, dword ptr [esp + 0xac]
  4a3436: 0f 85 77 ff ff ff            	jne	0x4a33b3 <.text+0xa23b3>
  4a343c: 8d 44 24 64                  	lea	eax, [esp + 0x64]
  4a3440: 50                           	push	eax
  4a3441: e8 aa 5a fc ff               	call	0x468ef0 <.text+0x67ef0>
  4a3446: 59                           	pop	ecx
  4a3447: 8b 44 24 04                  	mov	eax, dword ptr [esp + 0x4]
  4a344b: 8b 78 0a                     	mov	edi, dword ptr [eax + 0xa]
  4a344e: 80 3f 02                     	cmp	byte ptr [edi], 0x2
  4a3451: 75 0d                        	jne	0x4a3460 <.text+0xa2460>
  4a3453: 8d 54 24 64                  	lea	edx, [esp + 0x64]
  4a3457: 52                           	push	edx
  4a3458: eb 0b                        	jmp	0x4a3465 <.text+0xa2465>
  4a345a: 8d 80 00 00 00 00            	lea	eax, [eax]
  4a3460: 8d 4c 24 64                  	lea	ecx, [esp + 0x64]
  4a3464: 51                           	push	ecx
  4a3465: 8b 47 20                     	mov	eax, dword ptr [edi + 0x20]
  4a3468: 50                           	push	eax
  4a3469: e8 22 58 fc ff               	call	0x468c90 <.text+0x67c90>
  4a346e: 59                           	pop	ecx
  4a346f: 59                           	pop	ecx
  4a3470: 8b 44 24 68                  	mov	eax, dword ptr [esp + 0x68]
  4a3474: 83 60 02 fb                  	and	dword ptr [eax + 0x2], -0x5
  4a3478: 8b 74 24 68                  	mov	esi, dword ptr [esp + 0x68]
  4a347c: 8d 44 24 64                  	lea	eax, [esp + 0x64]
  4a3480: 50                           	push	eax
  4a3481: ff 74 24 3c                  	push	dword ptr [esp + 0x3c]
  4a3485: e8 06 58 fc ff               	call	0x468c90 <.text+0x67c90>
  4a348a: 59                           	pop	ecx
  4a348b: 59                           	pop	ecx
  4a348c: 8b 44 24 68                  	mov	eax, dword ptr [esp + 0x68]
  4a3490: 83 60 02 fb                  	and	dword ptr [eax + 0x2], -0x5
  4a3494: 6a 03                        	push	0x3
  4a3496: e8 d5 c4 fc ff               	call	0x46f970 <.text+0x6e970>
  4a349b: 59                           	pop	ecx
  4a349c: 89 c7                        	mov	edi, eax
  4a349e: c6 47 01 13                  	mov	byte ptr [edi + 0x1], 0x13
  4a34a2: c7 47 0e 70 fe 5a 00         	mov	dword ptr [edi + 0xe], 0x5afe70
  4a34a9: ff 05 00 90 5e 00            	inc	dword ptr [0x5e9000]
  4a34af: 66 a1 00 90 5e 00            	mov	ax, word ptr [0x5e9000]
  4a34b5: 66 89 47 08                  	mov	word ptr [edi + 0x8], ax
  4a34b9: c7 47 34 00 00 00 00         	mov	dword ptr [edi + 0x34], 0x0
  4a34c0: 89 77 20                     	mov	dword ptr [edi + 0x20], esi
  4a34c3: 8b 44 24 68                  	mov	eax, dword ptr [esp + 0x68]
  4a34c7: 89 47 24                     	mov	dword ptr [edi + 0x24], eax
  4a34ca: 8d 44 24 64                  	lea	eax, [esp + 0x64]
  4a34ce: 50                           	push	eax
  4a34cf: 57                           	push	edi
  4a34d0: e8 eb 59 fc ff               	call	0x468ec0 <.text+0x67ec0>
  4a34d5: 59                           	pop	ecx
  4a34d6: 59                           	pop	ecx
  4a34d7: 83 4f 02 02                  	or	dword ptr [edi + 0x2], 0x2
  4a34db: a1 5c 97 5e 00               	mov	eax, dword ptr [0x5e975c]
  4a34e0: 8b 58 12                     	mov	ebx, dword ptr [eax + 0x12]
  4a34e3: 8a 1b                        	mov	bl, byte ptr [ebx]
  4a34e5: 6a 02                        	push	0x2
  4a34e7: e8 84 c4 fc ff               	call	0x46f970 <.text+0x6e970>
  4a34ec: 59                           	pop	ecx
  4a34ed: 89 c6                        	mov	esi, eax
  4a34ef: ff 05 00 90 5e 00            	inc	dword ptr [0x5e9000]
  4a34f5: 66 a1 00 90 5e 00            	mov	ax, word ptr [0x5e9000]
  4a34fb: 66 89 46 08                  	mov	word ptr [esi + 0x8], ax
  4a34ff: 88 1e                        	mov	byte ptr [esi], bl
  4a3501: 8d 44 24 64                  	lea	eax, [esp + 0x64]
  4a3505: 50                           	push	eax
  4a3506: 56                           	push	esi
  4a3507: e8 b4 59 fc ff               	call	0x468ec0 <.text+0x67ec0>
  4a350c: 59                           	pop	ecx
  4a350d: 59                           	pop	ecx
  4a350e: 8b 44 24 30                  	mov	eax, dword ptr [esp + 0x30]
  4a3512: 89 46 20                     	mov	dword ptr [esi + 0x20], eax
  4a3515: 89 7e 24                     	mov	dword ptr [esi + 0x24], edi
  4a3518: 8b 46 24                     	mov	eax, dword ptr [esi + 0x24]
  4a351b: 83 48 02 02                  	or	dword ptr [eax + 0x2], 0x2
  4a351f: 8b 2d 5c 97 5e 00            	mov	ebp, dword ptr [0x5e975c]
  4a3525: 8b 55 12                     	mov	edx, dword ptr [ebp + 0x12]
  4a3528: 8b 42 0e                     	mov	eax, dword ptr [edx + 0xe]
  4a352b: 89 46 0e                     	mov	dword ptr [esi + 0xe], eax
  4a352e: 8b 84 24 b0 00 00 00         	mov	eax, dword ptr [esp + 0xb0]
  4a3535: 8b 40 12                     	mov	eax, dword ptr [eax + 0x12]
  4a3538: 50                           	push	eax
  4a3539: 8b 4c 24 6c                  	mov	ecx, dword ptr [esp + 0x6c]
  4a353d: 51                           	push	ecx
  4a353e: 8b 44 24 6c                  	mov	eax, dword ptr [esp + 0x6c]
  4a3542: 50                           	push	eax
  4a3543: e8 78 5b fc ff               	call	0x4690c0 <.text+0x680c0>
  4a3548: 83 c4 0c                     	add	esp, 0xc
  4a354b: 8b 44 24 68                  	mov	eax, dword ptr [esp + 0x68]
  4a354f: 89 44 24 40                  	mov	dword ptr [esp + 0x40], eax
  4a3553: 8d 44 24 64                  	lea	eax, [esp + 0x64]
  4a3557: 50                           	push	eax
  4a3558: e8 93 59 fc ff               	call	0x468ef0 <.text+0x67ef0>
  4a355d: 59                           	pop	ecx
  4a355e: e8 4d 68 fc ff               	call	0x469db0 <.text+0x68db0>
  4a3563: 89 c3                        	mov	ebx, eax
  4a3565: 6a 02                        	push	0x2
  4a3567: e8 04 c4 fc ff               	call	0x46f970 <.text+0x6e970>
  4a356c: 59                           	pop	ecx
  4a356d: 89 44 24 34                  	mov	dword ptr [esp + 0x34], eax
  4a3571: ff 05 00 90 5e 00            	inc	dword ptr [0x5e9000]
  4a3577: 66 8b 2d 00 90 5e 00         	mov	bp, word ptr [0x5e9000]
  4a357e: 66 89 68 08                  	mov	word ptr [eax + 0x8], bp
  4a3582: c6 00 04                     	mov	byte ptr [eax], 0x4
  4a3585: 89 58 20                     	mov	dword ptr [eax + 0x20], ebx
  4a3588: 8d 44 24 64                  	lea	eax, [esp + 0x64]
  4a358c: 50                           	push	eax
  4a358d: ff 74 24 38                  	push	dword ptr [esp + 0x38]
  4a3591: e8 2a 59 fc ff               	call	0x468ec0 <.text+0x67ec0>
  4a3596: 59                           	pop	ecx
  4a3597: 59                           	pop	ecx
  4a3598: 8b 84 24 b0 00 00 00         	mov	eax, dword ptr [esp + 0xb0]
  4a359f: 8b 40 12                     	mov	eax, dword ptr [eax + 0x12]
  4a35a2: 50                           	push	eax
  4a35a3: 8b 54 24 6c                  	mov	edx, dword ptr [esp + 0x6c]
  4a35a7: 52                           	push	edx
  4a35a8: 8b 44 24 6c                  	mov	eax, dword ptr [esp + 0x6c]
  4a35ac: 50                           	push	eax
  4a35ad: e8 0e 5b fc ff               	call	0x4690c0 <.text+0x680c0>
  4a35b2: 83 c4 0c                     	add	esp, 0xc
  4a35b5: 8d 44 24 64                  	lea	eax, [esp + 0x64]
  4a35b9: 50                           	push	eax
  4a35ba: e8 31 59 fc ff               	call	0x468ef0 <.text+0x67ef0>
  4a35bf: 59                           	pop	ecx
  4a35c0: 8d 44 24 64                  	lea	eax, [esp + 0x64]
  4a35c4: 50                           	push	eax
  4a35c5: e8 b6 1a 00 00               	call	0x4a5080 <.text+0xa4080>
  4a35ca: 59                           	pop	ecx
  4a35cb: 89 44 24 20                  	mov	dword ptr [esp + 0x20], eax
  4a35cf: 8b 84 24 b0 00 00 00         	mov	eax, dword ptr [esp + 0xb0]
  4a35d6: 8b 40 12                     	mov	eax, dword ptr [eax + 0x12]
  4a35d9: 50                           	push	eax
  4a35da: 8b 4c 24 6c                  	mov	ecx, dword ptr [esp + 0x6c]
  4a35de: 51                           	push	ecx
  4a35df: 8b 44 24 6c                  	mov	eax, dword ptr [esp + 0x6c]
  4a35e3: 50                           	push	eax
  4a35e4: e8 d7 5a fc ff               	call	0x4690c0 <.text+0x680c0>
  4a35e9: 83 c4 0c                     	add	esp, 0xc
  4a35ec: 8b 44 24 64                  	mov	eax, dword ptr [esp + 0x64]
  4a35f0: 89 44 24 58                  	mov	dword ptr [esp + 0x58], eax
  4a35f4: 8b ac 24 bc 00 00 00         	mov	ebp, dword ptr [esp + 0xbc]
  4a35fb: 55                           	push	ebp
  4a35fc: 8d 44 24 78                  	lea	eax, [esp + 0x78]
  4a3600: 50                           	push	eax
  4a3601: ff b4 24 c0 00 00 00         	push	dword ptr [esp + 0xc0]
  4a3608: ff b4 24 c0 00 00 00         	push	dword ptr [esp + 0xc0]
  4a360f: ff b4 24 c0 00 00 00         	push	dword ptr [esp + 0xc0]
  4a3616: ff b4 24 c0 00 00 00         	push	dword ptr [esp + 0xc0]
  4a361d: e8 5e 09 00 00               	call	0x4a3f80 <.text+0xa2f80>
  4a3622: 83 c4 18                     	add	esp, 0x18
  4a3625: 8b 84 24 b0 00 00 00         	mov	eax, dword ptr [esp + 0xb0]
  4a362c: 8b 78 12                     	mov	edi, dword ptr [eax + 0x12]
  4a362f: 57                           	push	edi
  4a3630: 8b 84 24 c0 00 00 00         	mov	eax, dword ptr [esp + 0xc0]
  4a3637: 8d 04 c5 00 00 00 00         	lea	eax, [8*eax]
  4a363e: 50                           	push	eax
  4a363f: ff b4 24 c0 00 00 00         	push	dword ptr [esp + 0xc0]
  4a3646: e8 75 cc ff ff               	call	0x4a02c0 <.text+0x9f2c0>
  4a364b: 83 c4 0c                     	add	esp, 0xc
  4a364e: 89 44 24 5c                  	mov	dword ptr [esp + 0x5c], eax
  4a3652: 8d 44 24 64                  	lea	eax, [esp + 0x64]
  4a3656: 50                           	push	eax
  4a3657: e8 94 58 fc ff               	call	0x468ef0 <.text+0x67ef0>
  4a365c: 59                           	pop	ecx
  4a365d: 6a 08                        	push	0x8
  4a365f: e8 0c c3 fc ff               	call	0x46f970 <.text+0x6e970>
  4a3664: 59                           	pop	ecx
  4a3665: 89 44 24 0c                  	mov	dword ptr [esp + 0xc], eax
  4a3669: 66 8b 15 00 90 5e 00         	mov	dx, word ptr [0x5e9000]
  4a3670: 66 89 50 08                  	mov	word ptr [eax + 0x8], dx
  4a3674: ff 05 00 90 5e 00            	inc	dword ptr [0x5e9000]
  4a367a: 89 58 20                     	mov	dword ptr [eax + 0x20], ebx
  4a367d: 83 48 02 01                  	or	dword ptr [eax + 0x2], 0x1
  4a3681: 8d 44 24 64                  	lea	eax, [esp + 0x64]
  4a3685: 50                           	push	eax
  4a3686: ff 74 24 10                  	push	dword ptr [esp + 0x10]
  4a368a: e8 31 58 fc ff               	call	0x468ec0 <.text+0x67ec0>
  4a368f: 59                           	pop	ecx
  4a3690: 59                           	pop	ecx
  4a3691: 8b 84 24 b0 00 00 00         	mov	eax, dword ptr [esp + 0xb0]
  4a3698: 8b 40 12                     	mov	eax, dword ptr [eax + 0x12]
  4a369b: 50                           	push	eax
  4a369c: 8b 74 24 6c                  	mov	esi, dword ptr [esp + 0x6c]
  4a36a0: 56                           	push	esi
  4a36a1: 8b 44 24 6c                  	mov	eax, dword ptr [esp + 0x6c]
  4a36a5: 50                           	push	eax
  4a36a6: e8 15 5a fc ff               	call	0x4690c0 <.text+0x680c0>
  4a36ab: 83 c4 0c                     	add	esp, 0xc
  4a36ae: 8d 44 24 64                  	lea	eax, [esp + 0x64]
  4a36b2: 50                           	push	eax
  4a36b3: e8 38 58 fc ff               	call	0x468ef0 <.text+0x67ef0>
  4a36b8: 59                           	pop	ecx
  4a36b9: 8b 44 24 04                  	mov	eax, dword ptr [esp + 0x4]
  4a36bd: 8b 50 0a                     	mov	edx, dword ptr [eax + 0xa]
  4a36c0: 80 3a 02                     	cmp	byte ptr [edx], 0x2
  4a36c3: 75 0b                        	jne	0x4a36d0 <.text+0xa26d0>
  4a36c5: 8d 4c 24 64                  	lea	ecx, [esp + 0x64]
  4a36c9: 51                           	push	ecx
  4a36ca: eb 09                        	jmp	0x4a36d5 <.text+0xa26d5>
  4a36cc: 8d 44 20 00                  	lea	eax, [eax + eiz]
  4a36d0: 8d 6c 24 64                  	lea	ebp, [esp + 0x64]
  4a36d4: 55                           	push	ebp
  4a36d5: 8b 42 20                     	mov	eax, dword ptr [edx + 0x20]
  4a36d8: 50                           	push	eax
  4a36d9: e8 b2 55 fc ff               	call	0x468c90 <.text+0x67c90>
  4a36de: 59                           	pop	ecx
  4a36df: 59                           	pop	ecx
  4a36e0: 8b 44 24 68                  	mov	eax, dword ptr [esp + 0x68]
  4a36e4: 83 60 02 fb                  	and	dword ptr [eax + 0x2], -0x5
  4a36e8: 8b 6c 24 68                  	mov	ebp, dword ptr [esp + 0x68]
  4a36ec: 8d 44 24 64                  	lea	eax, [esp + 0x64]
  4a36f0: 50                           	push	eax
  4a36f1: ff 74 24 28                  	push	dword ptr [esp + 0x28]
  4a36f5: e8 96 55 fc ff               	call	0x468c90 <.text+0x67c90>
  4a36fa: 59                           	pop	ecx
  4a36fb: 59                           	pop	ecx
  4a36fc: 8b 44 24 68                  	mov	eax, dword ptr [esp + 0x68]
  4a3700: 83 60 02 fb                  	and	dword ptr [eax + 0x2], -0x5
  4a3704: 6a 03                        	push	0x3
  4a3706: e8 65 c2 fc ff               	call	0x46f970 <.text+0x6e970>
  4a370b: 59                           	pop	ecx
  4a370c: 89 c7                        	mov	edi, eax
  4a370e: c6 47 01 13                  	mov	byte ptr [edi + 0x1], 0x13
  4a3712: c7 47 0e 70 fe 5a 00         	mov	dword ptr [edi + 0xe], 0x5afe70
  4a3719: ff 05 00 90 5e 00            	inc	dword ptr [0x5e9000]
  4a371f: 66 a1 00 90 5e 00            	mov	ax, word ptr [0x5e9000]
  4a3725: 66 89 47 08                  	mov	word ptr [edi + 0x8], ax
  4a3729: c7 47 34 00 00 00 00         	mov	dword ptr [edi + 0x34], 0x0
  4a3730: 89 6f 20                     	mov	dword ptr [edi + 0x20], ebp
  4a3733: 8b 44 24 68                  	mov	eax, dword ptr [esp + 0x68]
  4a3737: 89 47 24                     	mov	dword ptr [edi + 0x24], eax
  4a373a: 8d 44 24 64                  	lea	eax, [esp + 0x64]
  4a373e: 50                           	push	eax
  4a373f: 57                           	push	edi
  4a3740: e8 7b 57 fc ff               	call	0x468ec0 <.text+0x67ec0>
  4a3745: 59                           	pop	ecx
  4a3746: 59                           	pop	ecx
  4a3747: 83 4f 02 02                  	or	dword ptr [edi + 0x2], 0x2
  4a374b: a1 5c 97 5e 00               	mov	eax, dword ptr [0x5e975c]
  4a3750: 8b 50 12                     	mov	edx, dword ptr [eax + 0x12]
  4a3753: 8a 1a                        	mov	bl, byte ptr [edx]
  4a3755: 6a 02                        	push	0x2
  4a3757: e8 14 c2 fc ff               	call	0x46f970 <.text+0x6e970>
  4a375c: 59                           	pop	ecx
  4a375d: 89 c6                        	mov	esi, eax
  4a375f: ff 05 00 90 5e 00            	inc	dword ptr [0x5e9000]
  4a3765: 66 a1 00 90 5e 00            	mov	ax, word ptr [0x5e9000]
  4a376b: 66 89 46 08                  	mov	word ptr [esi + 0x8], ax
  4a376f: 88 1e                        	mov	byte ptr [esi], bl
  4a3771: 8d 44 24 64                  	lea	eax, [esp + 0x64]
  4a3775: 50                           	push	eax
  4a3776: 56                           	push	esi
  4a3777: e8 44 57 fc ff               	call	0x468ec0 <.text+0x67ec0>
  4a377c: 59                           	pop	ecx
  4a377d: 59                           	pop	ecx
  4a377e: 8b 44 24 20                  	mov	eax, dword ptr [esp + 0x20]
  4a3782: 89 46 20                     	mov	dword ptr [esi + 0x20], eax
  4a3785: 89 7e 24                     	mov	dword ptr [esi + 0x24], edi
  4a3788: 8b 46 24                     	mov	eax, dword ptr [esi + 0x24]
  4a378b: 83 48 02 02                  	or	dword ptr [eax + 0x2], 0x2
  4a378f: 8b 0d 5c 97 5e 00            	mov	ecx, dword ptr [0x5e975c]
  4a3795: 8b 69 12                     	mov	ebp, dword ptr [ecx + 0x12]
  4a3798: 8b 45 0e                     	mov	eax, dword ptr [ebp + 0xe]
  4a379b: 89 46 0e                     	mov	dword ptr [esi + 0xe], eax
  4a379e: 8b 84 24 b0 00 00 00         	mov	eax, dword ptr [esp + 0xb0]
  4a37a5: 8b 40 12                     	mov	eax, dword ptr [eax + 0x12]
  4a37a8: 50                           	push	eax
  4a37a9: 8b 5c 24 6c                  	mov	ebx, dword ptr [esp + 0x6c]
  4a37ad: 53                           	push	ebx
  4a37ae: 8b 44 24 6c                  	mov	eax, dword ptr [esp + 0x6c]
  4a37b2: 50                           	push	eax
  4a37b3: e8 08 59 fc ff               	call	0x4690c0 <.text+0x680c0>
  4a37b8: 83 c4 0c                     	add	esp, 0xc
  4a37bb: 8b 44 24 68                  	mov	eax, dword ptr [esp + 0x68]
  4a37bf: 89 44 24 48                  	mov	dword ptr [esp + 0x48], eax
  4a37c3: 8d 44 24 64                  	lea	eax, [esp + 0x64]
  4a37c7: 50                           	push	eax
  4a37c8: e8 23 57 fc ff               	call	0x468ef0 <.text+0x67ef0>
  4a37cd: 59                           	pop	ecx
  4a37ce: 8b 44 24 04                  	mov	eax, dword ptr [esp + 0x4]
  4a37d2: 8b 78 0a                     	mov	edi, dword ptr [eax + 0xa]
  4a37d5: 80 3f 02                     	cmp	byte ptr [edi], 0x2
  4a37d8: 75 07                        	jne	0x4a37e1 <.text+0xa27e1>
  4a37da: 8d 54 24 64                  	lea	edx, [esp + 0x64]
  4a37de: 52                           	push	edx
  4a37df: eb 05                        	jmp	0x4a37e6 <.text+0xa27e6>
  4a37e1: 8d 4c 24 64                  	lea	ecx, [esp + 0x64]
  4a37e5: 51                           	push	ecx
  4a37e6: 8b 47 20                     	mov	eax, dword ptr [edi + 0x20]
  4a37e9: 50                           	push	eax
  4a37ea: e8 a1 54 fc ff               	call	0x468c90 <.text+0x67c90>
  4a37ef: 59                           	pop	ecx
  4a37f0: 59                           	pop	ecx
  4a37f1: 8b 44 24 68                  	mov	eax, dword ptr [esp + 0x68]
  4a37f5: 83 60 02 fb                  	and	dword ptr [eax + 0x2], -0x5
  4a37f9: 8b 6c 24 68                  	mov	ebp, dword ptr [esp + 0x68]
  4a37fd: 8d 44 24 64                  	lea	eax, [esp + 0x64]
  4a3801: 50                           	push	eax
  4a3802: ff 74 24 48                  	push	dword ptr [esp + 0x48]
  4a3806: e8 85 54 fc ff               	call	0x468c90 <.text+0x67c90>
  4a380b: 59                           	pop	ecx
  4a380c: 59                           	pop	ecx
  4a380d: 8b 44 24 68                  	mov	eax, dword ptr [esp + 0x68]
  4a3811: 83 60 02 fb                  	and	dword ptr [eax + 0x2], -0x5
  4a3815: 6a 03                        	push	0x3
  4a3817: e8 54 c1 fc ff               	call	0x46f970 <.text+0x6e970>
  4a381c: 59                           	pop	ecx
  4a381d: 89 c3                        	mov	ebx, eax
  4a381f: c6 43 01 13                  	mov	byte ptr [ebx + 0x1], 0x13
  4a3823: c7 43 0e 70 fe 5a 00         	mov	dword ptr [ebx + 0xe], 0x5afe70
  4a382a: ff 05 00 90 5e 00            	inc	dword ptr [0x5e9000]
  4a3830: 66 a1 00 90 5e 00            	mov	ax, word ptr [0x5e9000]
  4a3836: 66 89 43 08                  	mov	word ptr [ebx + 0x8], ax
  4a383a: c7 43 34 00 00 00 00         	mov	dword ptr [ebx + 0x34], 0x0
  4a3841: 89 6b 20                     	mov	dword ptr [ebx + 0x20], ebp
  4a3844: 8b 44 24 68                  	mov	eax, dword ptr [esp + 0x68]
  4a3848: 89 43 24                     	mov	dword ptr [ebx + 0x24], eax
  4a384b: 8d 44 24 64                  	lea	eax, [esp + 0x64]
  4a384f: 50                           	push	eax
  4a3850: 53                           	push	ebx
  4a3851: e8 6a 56 fc ff               	call	0x468ec0 <.text+0x67ec0>
  4a3856: 59                           	pop	ecx
  4a3857: 59                           	pop	ecx
  4a3858: 83 4b 02 02                  	or	dword ptr [ebx + 0x2], 0x2
  4a385c: a1 5c 97 5e 00               	mov	eax, dword ptr [0x5e975c]
  4a3861: 8b 68 12                     	mov	ebp, dword ptr [eax + 0x12]
  4a3864: 8b 7d 24                     	mov	edi, dword ptr [ebp + 0x24]
  4a3867: 55                           	push	ebp
  4a3868: 8b 74 24 6c                  	mov	esi, dword ptr [esp + 0x6c]
  4a386c: 56                           	push	esi
  4a386d: 8b 44 24 6c                  	mov	eax, dword ptr [esp + 0x6c]
  4a3871: 50                           	push	eax
  4a3872: e8 49 58 fc ff               	call	0x4690c0 <.text+0x680c0>
  4a3877: 83 c4 0c                     	add	esp, 0xc
  4a387a: 8b 15 5c 97 5e 00            	mov	edx, dword ptr [0x5e975c]
  4a3880: 8b 4a 12                     	mov	ecx, dword ptr [edx + 0x12]
  4a3883: 8b 44 24 68                  	mov	eax, dword ptr [esp + 0x68]
  4a3887: 89 41 24                     	mov	dword ptr [ecx + 0x24], eax
  4a388a: 8d 44 24 64                  	lea	eax, [esp + 0x64]
  4a388e: 50                           	push	eax
  4a388f: e8 5c 56 fc ff               	call	0x468ef0 <.text+0x67ef0>
  4a3894: 59                           	pop	ecx
  4a3895: 6a 01                        	push	0x1
  4a3897: e8 d4 c0 fc ff               	call	0x46f970 <.text+0x6e970>
  4a389c: 59                           	pop	ecx
  4a389d: 89 c6                        	mov	esi, eax
  4a389f: ff 05 00 90 5e 00            	inc	dword ptr [0x5e9000]
  4a38a5: 66 a1 00 90 5e 00            	mov	ax, word ptr [0x5e9000]
  4a38ab: 66 89 46 08                  	mov	word ptr [esi + 0x8], ax
  4a38af: 6a 32                        	push	0x32
  4a38b1: e8 5a 94 fc ff               	call	0x46cd10 <.text+0x6bd10>
  4a38b6: 59                           	pop	ecx
  4a38b7: 8b 57 20                     	mov	edx, dword ptr [edi + 0x20]
  4a38ba: 8b 5a 0e                     	mov	ebx, dword ptr [edx + 0xe]
  4a38bd: 89 58 06                     	mov	dword ptr [eax + 0x6], ebx
  4a38c0: 8b 0d 90 0c 5b 00            	mov	ecx, dword ptr [0x5b0c90]
  4a38c6: 8b 2d 94 0c 5b 00            	mov	ebp, dword ptr [0x5b0c94]
  4a38cc: 89 48 0e                     	mov	dword ptr [eax + 0xe], ecx
  4a38cf: 89 68 12                     	mov	dword ptr [eax + 0x12], ebp
  4a38d2: 89 46 20                     	mov	dword ptr [esi + 0x20], eax
  4a38d5: 8b 40 06                     	mov	eax, dword ptr [eax + 0x6]
  4a38d8: 89 46 0e                     	mov	dword ptr [esi + 0xe], eax
  4a38db: 8d 44 24 64                  	lea	eax, [esp + 0x64]
  4a38df: 50                           	push	eax
  4a38e0: 56                           	push	esi
  4a38e1: e8 da 55 fc ff               	call	0x468ec0 <.text+0x67ec0>
  4a38e6: 59                           	pop	ecx
  4a38e7: 59                           	pop	ecx
  4a38e8: 83 4e 02 02                  	or	dword ptr [esi + 0x2], 0x2
  4a38ec: 8d 54 24 64                  	lea	edx, [esp + 0x64]
  4a38f0: 52                           	push	edx
  4a38f1: 8b 47 20                     	mov	eax, dword ptr [edi + 0x20]
  4a38f4: 50                           	push	eax
  4a38f5: e8 96 53 fc ff               	call	0x468c90 <.text+0x67c90>
  4a38fa: 59                           	pop	ecx
  4a38fb: 59                           	pop	ecx
  4a38fc: 6a 03                        	push	0x3
  4a38fe: e8 6d c0 fc ff               	call	0x46f970 <.text+0x6e970>
  4a3903: 59                           	pop	ecx
  4a3904: 89 c3                        	mov	ebx, eax
  4a3906: c6 43 01 1e                  	mov	byte ptr [ebx + 0x1], 0x1e
  4a390a: 8b 4c 24 68                  	mov	ecx, dword ptr [esp + 0x68]
  4a390e: 8b 41 0e                     	mov	eax, dword ptr [ecx + 0xe]
  4a3911: 89 43 0e                     	mov	dword ptr [ebx + 0xe], eax
  4a3914: ff 05 00 90 5e 00            	inc	dword ptr [0x5e9000]
  4a391a: 66 a1 00 90 5e 00            	mov	ax, word ptr [0x5e9000]
  4a3920: 66 89 43 08                  	mov	word ptr [ebx + 0x8], ax
  4a3924: c7 43 34 00 00 00 00         	mov	dword ptr [ebx + 0x34], 0x0
  4a392b: 8b 44 24 68                  	mov	eax, dword ptr [esp + 0x68]
  4a392f: 89 43 20                     	mov	dword ptr [ebx + 0x20], eax
  4a3932: 89 73 24                     	mov	dword ptr [ebx + 0x24], esi
  4a3935: 8d 44 24 64                  	lea	eax, [esp + 0x64]
  4a3939: 50                           	push	eax
  4a393a: 53                           	push	ebx
  4a393b: e8 80 55 fc ff               	call	0x468ec0 <.text+0x67ec0>
  4a3940: 59                           	pop	ecx
  4a3941: 59                           	pop	ecx
  4a3942: 83 4b 02 04                  	or	dword ptr [ebx + 0x2], 0x4
  4a3946: 57                           	push	edi
  4a3947: e8 34 5d fc ff               	call	0x469680 <.text+0x68680>
  4a394c: 59                           	pop	ecx
  4a394d: 8b 8c 24 b0 00 00 00         	mov	ecx, dword ptr [esp + 0xb0]
  4a3954: 8b 41 32                     	mov	eax, dword ptr [ecx + 0x32]
  4a3957: 89 44 24 1c                  	mov	dword ptr [esp + 0x1c], eax
  4a395b: 89 c8                        	mov	eax, ecx
  4a395d: 8b 70 12                     	mov	esi, dword ptr [eax + 0x12]
  4a3960: 8b 4c 24 60                  	mov	ecx, dword ptr [esp + 0x60]
  4a3964: 89 48 12                     	mov	dword ptr [eax + 0x12], ecx
  4a3967: e8 74 d9 fc ff               	call	0x4712e0 <.text+0x702e0>
  4a396c: 89 c7                        	mov	edi, eax
  4a396e: 8b 44 24 50                  	mov	eax, dword ptr [esp + 0x50]
  4a3972: 89 47 0e                     	mov	dword ptr [edi + 0xe], eax
  4a3975: 8b 44 24 54                  	mov	eax, dword ptr [esp + 0x54]
  4a3979: 89 47 12                     	mov	dword ptr [edi + 0x12], eax
  4a397c: 8b 84 24 b0 00 00 00         	mov	eax, dword ptr [esp + 0xb0]
  4a3983: 89 78 32                     	mov	dword ptr [eax + 0x32], edi
  4a3986: e8 55 d9 fc ff               	call	0x4712e0 <.text+0x702e0>
  4a398b: 89 c5                        	mov	ebp, eax
  4a398d: 8b 44 24 3c                  	mov	eax, dword ptr [esp + 0x3c]
  4a3991: 89 45 0e                     	mov	dword ptr [ebp + 0xe], eax
  4a3994: 8b 44 24 40                  	mov	eax, dword ptr [esp + 0x40]
  4a3998: 89 45 12                     	mov	dword ptr [ebp + 0x12], eax
  4a399b: 8b 44 24 3c                  	mov	eax, dword ptr [esp + 0x3c]
  4a399f: 8b 40 20                     	mov	eax, dword ptr [eax + 0x20]
  4a39a2: 89 68 04                     	mov	dword ptr [eax + 0x4], ebp
  4a39a5: 89 6f 32                     	mov	dword ptr [edi + 0x32], ebp
  4a39a8: e8 33 d9 fc ff               	call	0x4712e0 <.text+0x702e0>
  4a39ad: 89 c3                        	mov	ebx, eax
  4a39af: 8b 44 24 34                  	mov	eax, dword ptr [esp + 0x34]
  4a39b3: 89 43 0e                     	mov	dword ptr [ebx + 0xe], eax
  4a39b6: 8b 44 24 34                  	mov	eax, dword ptr [esp + 0x34]
  4a39ba: 89 43 12                     	mov	dword ptr [ebx + 0x12], eax
  4a39bd: 89 5d 32                     	mov	dword ptr [ebp + 0x32], ebx
  4a39c0: e8 1b d9 fc ff               	call	0x4712e0 <.text+0x702e0>
  4a39c5: 89 c7                        	mov	edi, eax
  4a39c7: 8b 44 24 58                  	mov	eax, dword ptr [esp + 0x58]
  4a39cb: 89 47 0e                     	mov	dword ptr [edi + 0xe], eax
  4a39ce: 8b 44 24 5c                  	mov	eax, dword ptr [esp + 0x5c]
  4a39d2: 89 47 12                     	mov	dword ptr [edi + 0x12], eax
  4a39d5: 8b 44 24 58                  	mov	eax, dword ptr [esp + 0x58]
  4a39d9: 8b 40 20                     	mov	eax, dword ptr [eax + 0x20]
  4a39dc: 89 78 04                     	mov	dword ptr [eax + 0x4], edi
  4a39df: 89 7b 32                     	mov	dword ptr [ebx + 0x32], edi
  4a39e2: e8 f9 d8 fc ff               	call	0x4712e0 <.text+0x702e0>
  4a39e7: 89 c5                        	mov	ebp, eax
  4a39e9: 8b 44 24 0c                  	mov	eax, dword ptr [esp + 0xc]
  4a39ed: 89 45 0e                     	mov	dword ptr [ebp + 0xe], eax
  4a39f0: 8b 44 24 48                  	mov	eax, dword ptr [esp + 0x48]
  4a39f4: 89 45 12                     	mov	dword ptr [ebp + 0x12], eax
  4a39f7: 8b 44 24 0c                  	mov	eax, dword ptr [esp + 0xc]
  4a39fb: 8b 40 20                     	mov	eax, dword ptr [eax + 0x20]
  4a39fe: 89 68 04                     	mov	dword ptr [eax + 0x4], ebp
  4a3a01: 89 6f 32                     	mov	dword ptr [edi + 0x32], ebp
  4a3a04: e8 d7 d8 fc ff               	call	0x4712e0 <.text+0x702e0>
  4a3a09: 89 70 0e                     	mov	dword ptr [eax + 0xe], esi
  4a3a0c: 89 70 12                     	mov	dword ptr [eax + 0x12], esi
  4a3a0f: 89 45 32                     	mov	dword ptr [ebp + 0x32], eax
  4a3a12: 8b 4c 24 1c                  	mov	ecx, dword ptr [esp + 0x1c]
  4a3a16: 89 48 32                     	mov	dword ptr [eax + 0x32], ecx
  4a3a19: 6a 44                        	push	0x44
  4a3a1b: e8 c0 d2 f9 ff               	call	0x440ce0 <.text+0x3fce0>
  4a3a20: 59                           	pop	ecx
  4a3a21: 89 c6                        	mov	esi, eax
  4a3a23: 89 f7                        	mov	edi, esi
  4a3a25: 31 c0                        	xor	eax, eax
  4a3a27: b9 11 00 00 00               	mov	ecx, 0x11
  4a3a2c: f3 ab                        	rep		stosd	dword ptr es:[edi], eax
  4a3a2e: 66 a1 80 9d 5e 00            	mov	ax, word ptr [0x5e9d80]
  4a3a34: 66 89 06                     	mov	word ptr [esi], ax
  4a3a37: 66 ff 05 80 9d 5e 00         	inc	word ptr [0x5e9d80]
  4a3a3e: 8b 44 24 64                  	mov	eax, dword ptr [esp + 0x64]
  4a3a42: 89 46 0e                     	mov	dword ptr [esi + 0xe], eax
  4a3a45: 8b 44 24 68                  	mov	eax, dword ptr [esp + 0x68]
  4a3a49: 89 46 12                     	mov	dword ptr [esi + 0x12], eax
  4a3a4c: a1 5c 97 5e 00               	mov	eax, dword ptr [0x5e975c]
  4a3a51: 8b 58 12                     	mov	ebx, dword ptr [eax + 0x12]
  4a3a54: 8b 7c 24 68                  	mov	edi, dword ptr [esp + 0x68]
  4a3a58: 8b 43 34                     	mov	eax, dword ptr [ebx + 0x34]
  4a3a5b: 89 47 34                     	mov	dword ptr [edi + 0x34], eax
  4a3a5e: 8b 2d 5c 97 5e 00            	mov	ebp, dword ptr [0x5e975c]
  4a3a64: 8b 55 12                     	mov	edx, dword ptr [ebp + 0x12]
  4a3a67: 8b 44 24 64                  	mov	eax, dword ptr [esp + 0x64]
  4a3a6b: 89 42 34                     	mov	dword ptr [edx + 0x34], eax
  4a3a6e: 8b 0d 5c 97 5e 00            	mov	ecx, dword ptr [0x5e975c]
  4a3a74: 8b 41 32                     	mov	eax, dword ptr [ecx + 0x32]
  4a3a77: 89 46 32                     	mov	dword ptr [esi + 0x32], eax
  4a3a7a: a1 5c 97 5e 00               	mov	eax, dword ptr [0x5e975c]
  4a3a7f: 89 70 32                     	mov	dword ptr [eax + 0x32], esi
  4a3a82: 6a 44                        	push	0x44
  4a3a84: e8 57 d2 f9 ff               	call	0x440ce0 <.text+0x3fce0>
  4a3a89: 59                           	pop	ecx
  4a3a8a: 89 c3                        	mov	ebx, eax
  4a3a8c: 89 df                        	mov	edi, ebx
  4a3a8e: 31 c0                        	xor	eax, eax
  4a3a90: b9 11 00 00 00               	mov	ecx, 0x11
  4a3a95: f3 ab                        	rep		stosd	dword ptr es:[edi], eax
  4a3a97: 66 a1 80 9d 5e 00            	mov	ax, word ptr [0x5e9d80]
  4a3a9d: 66 89 03                     	mov	word ptr [ebx], ax
  4a3aa0: 66 ff 05 80 9d 5e 00         	inc	word ptr [0x5e9d80]
  4a3aa7: 6a 08                        	push	0x8
  4a3aa9: e8 c2 be fc ff               	call	0x46f970 <.text+0x6e970>
  4a3aae: 59                           	pop	ecx
  4a3aaf: 66 8b 3d 00 90 5e 00         	mov	di, word ptr [0x5e9000]
  4a3ab6: 66 89 78 08                  	mov	word ptr [eax + 0x8], di
  4a3aba: ff 05 00 90 5e 00            	inc	dword ptr [0x5e9000]
  4a3ac0: c7 40 34 00 00 00 00         	mov	dword ptr [eax + 0x34], 0x0
  4a3ac7: 8b 4c 24 28                  	mov	ecx, dword ptr [esp + 0x28]
  4a3acb: 89 48 20                     	mov	dword ptr [eax + 0x20], ecx
  4a3ace: 83 48 02 01                  	or	dword ptr [eax + 0x2], 0x1
  4a3ad2: 8b 4c 24 28                  	mov	ecx, dword ptr [esp + 0x28]
  4a3ad6: 89 59 04                     	mov	dword ptr [ecx + 0x4], ebx
  4a3ad9: 89 43 0e                     	mov	dword ptr [ebx + 0xe], eax
  4a3adc: 89 43 12                     	mov	dword ptr [ebx + 0x12], eax
  4a3adf: 8b 6e 12                     	mov	ebp, dword ptr [esi + 0x12]
  4a3ae2: 8b 55 34                     	mov	edx, dword ptr [ebp + 0x34]
  4a3ae5: 89 50 34                     	mov	dword ptr [eax + 0x34], edx
  4a3ae8: 8b 4e 12                     	mov	ecx, dword ptr [esi + 0x12]
  4a3aeb: 89 41 34                     	mov	dword ptr [ecx + 0x34], eax
  4a3aee: 8b 46 32                     	mov	eax, dword ptr [esi + 0x32]
  4a3af1: 89 43 32                     	mov	dword ptr [ebx + 0x32], eax
  4a3af4: 89 5e 32                     	mov	dword ptr [esi + 0x32], ebx
  4a3af7: b8 01 00 00 00               	mov	eax, 0x1
  4a3afc: 81 c4 98 00 00 00            	add	esp, 0x98
  4a3b02: 5d                           	pop	ebp
  4a3b03: 5f                           	pop	edi
  4a3b04: 5e                           	pop	esi
  4a3b05: 5b                           	pop	ebx
  4a3b06: c3                           	ret
		...
  4a3b0f: 00 53 56                     	add	byte ptr [ebx + 0x56], dl
  4a3b12: 57                           	push	edi
  4a3b13: 55                           	push	ebp
  4a3b14: 83 ec 28                     	sub	esp, 0x28
  4a3b17: 8b 5c 24 54                  	mov	ebx, dword ptr [esp + 0x54]
  4a3b1b: 8b 44 24 4c                  	mov	eax, dword ptr [esp + 0x4c]
  4a3b1f: c7 00 00 00 00 00            	mov	dword ptr [eax], 0x0
  4a3b25: 8b 44 24 50                  	mov	eax, dword ptr [esp + 0x50]
  4a3b29: c7 00 00 00 00 00            	mov	dword ptr [eax], 0x0
  4a3b2f: 8b 44 24 3c                  	mov	eax, dword ptr [esp + 0x3c]
  4a3b33: 8b 70 0e                     	mov	esi, dword ptr [eax + 0xe]
  4a3b36: 85 f6                        	test	esi, esi
  4a3b38: 0f 84 33 04 00 00            	je	0x4a3f71 <.text+0xa2f71>
  4a3b3e: 89 c0                        	mov	eax, eax
  4a3b40: 0f b7 4e 08                  	movzx	ecx, word ptr [esi + 0x8]
  4a3b44: 8b 44 24 40                  	mov	eax, dword ptr [esp + 0x40]
  4a3b48: 3b 48 20                     	cmp	ecx, dword ptr [eax + 0x20]
  4a3b4b: 7c 09                        	jl	0x4a3b56 <.text+0xa2b56>
  4a3b4d: 3b 48 24                     	cmp	ecx, dword ptr [eax + 0x24]
  4a3b50: 0f 8e 0a 04 00 00            	jle	0x4a3f60 <.text+0xa2f60>
  4a3b56: 8b 46 02                     	mov	eax, dword ptr [esi + 0x2]
  4a3b59: 83 e0 02                     	and	eax, 0x2
  4a3b5c: 0f 85 fe 03 00 00            	jne	0x4a3f60 <.text+0xa2f60>
  4a3b62: 8a 06                        	mov	al, byte ptr [esi]
  4a3b64: 84 c0                        	test	al, al
  4a3b66: 0f 84 f4 03 00 00            	je	0x4a3f60 <.text+0xa2f60>
  4a3b6c: 3c 08                        	cmp	al, 0x8
  4a3b6e: 0f 84 ec 03 00 00            	je	0x4a3f60 <.text+0xa2f60>
  4a3b74: 3c 03                        	cmp	al, 0x3
  4a3b76: 0f 85 d4 03 00 00            	jne	0x4a3f50 <.text+0xa2f50>
  4a3b7c: 8a 46 01                     	mov	al, byte ptr [esi + 0x1]
  4a3b7f: 3c 28                        	cmp	al, 0x28
  4a3b81: 74 0a                        	je	0x4a3b8d <.text+0xa2b8d>
  4a3b83: 04 da                        	add	al, -0x26
  4a3b85: 3c 01                        	cmp	al, 0x1
  4a3b87: 0f 87 c3 03 00 00            	ja	0x4a3f50 <.text+0xa2f50>
  4a3b8d: 8b 44 24 50                  	mov	eax, dword ptr [esp + 0x50]
  4a3b91: ff 00                        	inc	dword ptr [eax]
  4a3b93: 8b 46 20                     	mov	eax, dword ptr [esi + 0x20]
  4a3b96: 80 38 02                     	cmp	byte ptr [eax], 0x2
  4a3b99: 0f 85 a1 00 00 00            	jne	0x4a3c40 <.text+0xa2c40>
  4a3b9f: 80 78 01 04                  	cmp	byte ptr [eax + 0x1], 0x4
  4a3ba3: 0f 85 97 00 00 00            	jne	0x4a3c40 <.text+0xa2c40>
  4a3ba9: 8b 78 20                     	mov	edi, dword ptr [eax + 0x20]
  4a3bac: 80 3f 03                     	cmp	byte ptr [edi], 0x3
  4a3baf: 75 7f                        	jne	0x4a3c30 <.text+0xa2c30>
  4a3bb1: 80 7f 01 0f                  	cmp	byte ptr [edi + 0x1], 0xf
  4a3bb5: 75 79                        	jne	0x4a3c30 <.text+0xa2c30>
  4a3bb7: 8b 47 20                     	mov	eax, dword ptr [edi + 0x20]
  4a3bba: 89 43 04                     	mov	dword ptr [ebx + 0x4], eax
  4a3bbd: 8b 47 0e                     	mov	eax, dword ptr [edi + 0xe]
  4a3bc0: 89 43 08                     	mov	dword ptr [ebx + 0x8], eax
  4a3bc3: 8b 47 20                     	mov	eax, dword ptr [edi + 0x20]
  4a3bc6: 50                           	push	eax
  4a3bc7: e8 64 67 fc ff               	call	0x46a330 <.text+0x69330>
  4a3bcc: 59                           	pop	ecx
  4a3bcd: 85 c0                        	test	eax, eax
  4a3bcf: 74 4f                        	je	0x4a3c20 <.text+0xa2c20>
  4a3bd1: 8b 47 24                     	mov	eax, dword ptr [edi + 0x24]
  4a3bd4: 89 03                        	mov	dword ptr [ebx], eax
  4a3bd6: 8b 0b                        	mov	ecx, dword ptr [ebx]
  4a3bd8: 80 39 03                     	cmp	byte ptr [ecx], 0x3
  4a3bdb: 75 33                        	jne	0x4a3c10 <.text+0xa2c10>
  4a3bdd: 80 79 01 11                  	cmp	byte ptr [ecx + 0x1], 0x11
  4a3be1: 75 2d                        	jne	0x4a3c10 <.text+0xa2c10>
  4a3be3: 8b 41 24                     	mov	eax, dword ptr [ecx + 0x24]
  4a3be6: 50                           	push	eax
  4a3be7: e8 14 67 fc ff               	call	0x46a300 <.text+0x69300>
  4a3bec: 59                           	pop	ecx
  4a3bed: 84 c0                        	test	al, al
  4a3bef: 74 1f                        	je	0x4a3c10 <.text+0xa2c10>
  4a3bf1: 8b 13                        	mov	edx, dword ptr [ebx]
  4a3bf3: 8b 42 24                     	mov	eax, dword ptr [edx + 0x24]
  4a3bf6: 8b 68 20                     	mov	ebp, dword ptr [eax + 0x20]
  4a3bf9: 8b 4d 0e                     	mov	ecx, dword ptr [ebp + 0xe]
  4a3bfc: 8b 45 12                     	mov	eax, dword ptr [ebp + 0x12]
  4a3bff: 89 4b 1c                     	mov	dword ptr [ebx + 0x1c], ecx
  4a3c02: 89 43 20                     	mov	dword ptr [ebx + 0x20], eax
  4a3c05: 8b 03                        	mov	eax, dword ptr [ebx]
  4a3c07: 8b 78 20                     	mov	edi, dword ptr [eax + 0x20]
  4a3c0a: eb 44                        	jmp	0x4a3c50 <.text+0xa2c50>
  4a3c0c: 8d 44 20 00                  	lea	eax, [eax + eiz]
  4a3c10: 31 c0                        	xor	eax, eax
  4a3c12: 83 c4 28                     	add	esp, 0x28
  4a3c15: 5d                           	pop	ebp
  4a3c16: 5f                           	pop	edi
  4a3c17: 5e                           	pop	esi
  4a3c18: 5b                           	pop	ebx
  4a3c19: c3                           	ret
  4a3c1a: 8d 80 00 00 00 00            	lea	eax, [eax]
  4a3c20: 31 c0                        	xor	eax, eax
  4a3c22: 83 c4 28                     	add	esp, 0x28
  4a3c25: 5d                           	pop	ebp
  4a3c26: 5f                           	pop	edi
  4a3c27: 5e                           	pop	esi
  4a3c28: 5b                           	pop	ebx
  4a3c29: c3                           	ret
  4a3c2a: 8d 80 00 00 00 00            	lea	eax, [eax]
  4a3c30: 31 c0                        	xor	eax, eax
  4a3c32: 83 c4 28                     	add	esp, 0x28
  4a3c35: 5d                           	pop	ebp
  4a3c36: 5f                           	pop	edi
  4a3c37: 5e                           	pop	esi
  4a3c38: 5b                           	pop	ebx
  4a3c39: c3                           	ret
  4a3c3a: 8d 80 00 00 00 00            	lea	eax, [eax]
  4a3c40: 31 c0                        	xor	eax, eax
  4a3c42: 83 c4 28                     	add	esp, 0x28
  4a3c45: 5d                           	pop	ebp
  4a3c46: 5f                           	pop	edi
  4a3c47: 5e                           	pop	esi
  4a3c48: 5b                           	pop	ebx
  4a3c49: c3                           	ret
  4a3c4a: 8d 80 00 00 00 00            	lea	eax, [eax]
  4a3c50: 8b 46 24                     	mov	eax, dword ptr [esi + 0x24]
  4a3c53: 89 43 10                     	mov	dword ptr [ebx + 0x10], eax
  4a3c56: 8b 4b 10                     	mov	ecx, dword ptr [ebx + 0x10]
  4a3c59: 8a 11                        	mov	dl, byte ptr [ecx]
  4a3c5b: 80 fa 02                     	cmp	dl, 0x2
  4a3c5e: 0f 85 7c 00 00 00            	jne	0x4a3ce0 <.text+0xa2ce0>
  4a3c64: 80 79 01 30                  	cmp	byte ptr [ecx + 0x1], 0x30
  4a3c68: 75 76                        	jne	0x4a3ce0 <.text+0xa2ce0>
  4a3c6a: 80 3e 03                     	cmp	byte ptr [esi], 0x3
  4a3c6d: 75 21                        	jne	0x4a3c90 <.text+0xa2c90>
  4a3c6f: 80 7e 01 26                  	cmp	byte ptr [esi + 0x1], 0x26
  4a3c73: 75 1b                        	jne	0x4a3c90 <.text+0xa2c90>
  4a3c75: 8b 49 20                     	mov	ecx, dword ptr [ecx + 0x20]
  4a3c78: 80 39 02                     	cmp	byte ptr [ecx], 0x2
  4a3c7b: 75 06                        	jne	0x4a3c83 <.text+0xa2c83>
  4a3c7d: 80 79 01 06                  	cmp	byte ptr [ecx + 0x1], 0x6
  4a3c81: 74 0d                        	je	0x4a3c90 <.text+0xa2c90>
  4a3c83: 31 c0                        	xor	eax, eax
  4a3c85: 83 c4 28                     	add	esp, 0x28
  4a3c88: 5d                           	pop	ebp
  4a3c89: 5f                           	pop	edi
  4a3c8a: 5e                           	pop	esi
  4a3c8b: 5b                           	pop	ebx
  4a3c8c: c3                           	ret
  4a3c8d: 8d 40 00                     	lea	eax, [eax]
  4a3c90: 8b 41 20                     	mov	eax, dword ptr [ecx + 0x20]
  4a3c93: 89 43 0c                     	mov	dword ptr [ebx + 0xc], eax
  4a3c96: 8b 4b 0c                     	mov	ecx, dword ptr [ebx + 0xc]
  4a3c99: 80 39 03                     	cmp	byte ptr [ecx], 0x3
  4a3c9c: 75 33                        	jne	0x4a3cd1 <.text+0xa2cd1>
  4a3c9e: 80 79 01 11                  	cmp	byte ptr [ecx + 0x1], 0x11
  4a3ca2: 75 2d                        	jne	0x4a3cd1 <.text+0xa2cd1>
  4a3ca4: 8b 41 20                     	mov	eax, dword ptr [ecx + 0x20]
  4a3ca7: 50                           	push	eax
  4a3ca8: e8 53 66 fc ff               	call	0x46a300 <.text+0x69300>
  4a3cad: 59                           	pop	ecx
  4a3cae: 84 c0                        	test	al, al
  4a3cb0: 74 1f                        	je	0x4a3cd1 <.text+0xa2cd1>
  4a3cb2: 8b 43 0c                     	mov	eax, dword ptr [ebx + 0xc]
  4a3cb5: 8b 50 20                     	mov	edx, dword ptr [eax + 0x20]
  4a3cb8: 8b 6a 20                     	mov	ebp, dword ptr [edx + 0x20]
  4a3cbb: 8b 4d 0e                     	mov	ecx, dword ptr [ebp + 0xe]
  4a3cbe: 8b 55 12                     	mov	edx, dword ptr [ebp + 0x12]
  4a3cc1: 89 4c 24 18                  	mov	dword ptr [esp + 0x18], ecx
  4a3cc5: 89 54 24 1c                  	mov	dword ptr [esp + 0x1c], edx
  4a3cc9: 8b 68 24                     	mov	ebp, dword ptr [eax + 0x24]
  4a3ccc: e9 df 00 00 00               	jmp	0x4a3db0 <.text+0xa2db0>
  4a3cd1: 31 c0                        	xor	eax, eax
  4a3cd3: 83 c4 28                     	add	esp, 0x28
  4a3cd6: 5d                           	pop	ebp
  4a3cd7: 5f                           	pop	edi
  4a3cd8: 5e                           	pop	esi
  4a3cd9: 5b                           	pop	ebx
  4a3cda: c3                           	ret
  4a3cdb: 89 c0                        	mov	eax, eax
  4a3cdd: 8d 40 00                     	lea	eax, [eax]
  4a3ce0: 80 fa 03                     	cmp	dl, 0x3
  4a3ce3: 75 5b                        	jne	0x4a3d40 <.text+0xa2d40>
  4a3ce5: 80 79 01 11                  	cmp	byte ptr [ecx + 0x1], 0x11
  4a3ce9: 75 55                        	jne	0x4a3d40 <.text+0xa2d40>
  4a3ceb: 80 3e 03                     	cmp	byte ptr [esi], 0x3
  4a3cee: 75 50                        	jne	0x4a3d40 <.text+0xa2d40>
  4a3cf0: 8a 46 01                     	mov	al, byte ptr [esi + 0x1]
  4a3cf3: 3c 28                        	cmp	al, 0x28
  4a3cf5: 74 04                        	je	0x4a3cfb <.text+0xa2cfb>
  4a3cf7: 3c 27                        	cmp	al, 0x27
  4a3cf9: 75 45                        	jne	0x4a3d40 <.text+0xa2d40>
  4a3cfb: 89 4b 0c                     	mov	dword ptr [ebx + 0xc], ecx
  4a3cfe: 8b 4b 0c                     	mov	ecx, dword ptr [ebx + 0xc]
  4a3d01: 8b 41 20                     	mov	eax, dword ptr [ecx + 0x20]
  4a3d04: 50                           	push	eax
  4a3d05: e8 f6 65 fc ff               	call	0x46a300 <.text+0x69300>
  4a3d0a: 59                           	pop	ecx
  4a3d0b: 84 c0                        	test	al, al
  4a3d0d: 74 21                        	je	0x4a3d30 <.text+0xa2d30>
  4a3d0f: 8b 43 0c                     	mov	eax, dword ptr [ebx + 0xc]
  4a3d12: 8b 68 20                     	mov	ebp, dword ptr [eax + 0x20]
  4a3d15: 8b 55 20                     	mov	edx, dword ptr [ebp + 0x20]
  4a3d18: 8b 4a 0e                     	mov	ecx, dword ptr [edx + 0xe]
  4a3d1b: 8b 6a 12                     	mov	ebp, dword ptr [edx + 0x12]
  4a3d1e: 89 4c 24 18                  	mov	dword ptr [esp + 0x18], ecx
  4a3d22: 89 6c 24 1c                  	mov	dword ptr [esp + 0x1c], ebp
  4a3d26: 8b 68 24                     	mov	ebp, dword ptr [eax + 0x24]
  4a3d29: e9 82 00 00 00               	jmp	0x4a3db0 <.text+0xa2db0>
  4a3d2e: 89 c0                        	mov	eax, eax
  4a3d30: 31 c0                        	xor	eax, eax
  4a3d32: 83 c4 28                     	add	esp, 0x28
  4a3d35: 5d                           	pop	ebp
  4a3d36: 5f                           	pop	edi
  4a3d37: 5e                           	pop	esi
  4a3d38: 5b                           	pop	ebx
  4a3d39: c3                           	ret
  4a3d3a: 8d 80 00 00 00 00            	lea	eax, [eax]
  4a3d40: 80 fa 02                     	cmp	dl, 0x2
  4a3d43: 75 5b                        	jne	0x4a3da0 <.text+0xa2da0>
  4a3d45: 80 79 01 06                  	cmp	byte ptr [ecx + 0x1], 0x6
  4a3d49: 75 55                        	jne	0x4a3da0 <.text+0xa2da0>
  4a3d4b: 80 3e 03                     	cmp	byte ptr [esi], 0x3
  4a3d4e: 75 50                        	jne	0x4a3da0 <.text+0xa2da0>
  4a3d50: 80 7e 01 26                  	cmp	byte ptr [esi + 0x1], 0x26
  4a3d54: 75 4a                        	jne	0x4a3da0 <.text+0xa2da0>
  4a3d56: 8b 41 20                     	mov	eax, dword ptr [ecx + 0x20]
  4a3d59: 89 43 0c                     	mov	dword ptr [ebx + 0xc], eax
  4a3d5c: 8b 53 0c                     	mov	edx, dword ptr [ebx + 0xc]
  4a3d5f: 80 3a 03                     	cmp	byte ptr [edx], 0x3
  4a3d62: 75 30                        	jne	0x4a3d94 <.text+0xa2d94>
  4a3d64: 80 7a 01 11                  	cmp	byte ptr [edx + 0x1], 0x11
  4a3d68: 75 2a                        	jne	0x4a3d94 <.text+0xa2d94>
  4a3d6a: 8b 42 20                     	mov	eax, dword ptr [edx + 0x20]
  4a3d6d: 50                           	push	eax
  4a3d6e: e8 8d 65 fc ff               	call	0x46a300 <.text+0x69300>
  4a3d73: 59                           	pop	ecx
  4a3d74: 84 c0                        	test	al, al
  4a3d76: 74 1c                        	je	0x4a3d94 <.text+0xa2d94>
  4a3d78: 8b 43 0c                     	mov	eax, dword ptr [ebx + 0xc]
  4a3d7b: 8b 50 20                     	mov	edx, dword ptr [eax + 0x20]
  4a3d7e: 8b 4a 20                     	mov	ecx, dword ptr [edx + 0x20]
  4a3d81: 8b 69 0e                     	mov	ebp, dword ptr [ecx + 0xe]
  4a3d84: 8b 51 12                     	mov	edx, dword ptr [ecx + 0x12]
  4a3d87: 89 6c 24 18                  	mov	dword ptr [esp + 0x18], ebp
  4a3d8b: 89 54 24 1c                  	mov	dword ptr [esp + 0x1c], edx
  4a3d8f: 8b 68 24                     	mov	ebp, dword ptr [eax + 0x24]
  4a3d92: eb 1c                        	jmp	0x4a3db0 <.text+0xa2db0>
  4a3d94: 31 c0                        	xor	eax, eax
  4a3d96: 83 c4 28                     	add	esp, 0x28
  4a3d99: 5d                           	pop	ebp
  4a3d9a: 5f                           	pop	edi
  4a3d9b: 5e                           	pop	esi
  4a3d9c: 5b                           	pop	ebx
  4a3d9d: c3                           	ret
  4a3d9e: 89 c0                        	mov	eax, eax
  4a3da0: 31 c0                        	xor	eax, eax
  4a3da2: 83 c4 28                     	add	esp, 0x28
  4a3da5: 5d                           	pop	ebp
  4a3da6: 5f                           	pop	edi
  4a3da7: 5e                           	pop	esi
  4a3da8: 5b                           	pop	ebx
  4a3da9: c3                           	ret
  4a3daa: 8d 80 00 00 00 00            	lea	eax, [eax]
  4a3db0: 80 7d 00 03                  	cmp	byte ptr [ebp], 0x3
  4a3db4: 0f 85 86 01 00 00            	jne	0x4a3f40 <.text+0xa2f40>
  4a3dba: 80 7d 01 19                  	cmp	byte ptr [ebp + 0x1], 0x19
  4a3dbe: 0f 85 7c 01 00 00            	jne	0x4a3f40 <.text+0xa2f40>
  4a3dc4: 80 3f 03                     	cmp	byte ptr [edi], 0x3
  4a3dc7: 0f 85 73 01 00 00            	jne	0x4a3f40 <.text+0xa2f40>
  4a3dcd: 80 7f 01 12                  	cmp	byte ptr [edi + 0x1], 0x12
  4a3dd1: 0f 85 69 01 00 00            	jne	0x4a3f40 <.text+0xa2f40>
  4a3dd7: 8b 45 20                     	mov	eax, dword ptr [ebp + 0x20]
  4a3dda: 89 44 24 0c                  	mov	dword ptr [esp + 0xc], eax
  4a3dde: 8b 47 20                     	mov	eax, dword ptr [edi + 0x20]
  4a3de1: 50                           	push	eax
  4a3de2: e8 49 65 fc ff               	call	0x46a330 <.text+0x69330>
  4a3de7: 59                           	pop	ecx
  4a3de8: 89 44 24 04                  	mov	dword ptr [esp + 0x4], eax
  4a3dec: ff 74 24 0c                  	push	dword ptr [esp + 0xc]
  4a3df0: e8 3b 65 fc ff               	call	0x46a330 <.text+0x69330>
  4a3df5: 59                           	pop	ecx
  4a3df6: 39 44 24 04                  	cmp	dword ptr [esp + 0x4], eax
  4a3dfa: 0f 85 30 01 00 00            	jne	0x4a3f30 <.text+0xa2f30>
  4a3e00: 8b 44 24 44                  	mov	eax, dword ptr [esp + 0x44]
  4a3e04: 8b 48 02                     	mov	ecx, dword ptr [eax + 0x2]
  4a3e07: 8b 44 24 04                  	mov	eax, dword ptr [esp + 0x4]
  4a3e0b: 3b 41 02                     	cmp	eax, dword ptr [ecx + 0x2]
  4a3e0e: 0f 85 1c 01 00 00            	jne	0x4a3f30 <.text+0xa2f30>
  4a3e14: 8b 7f 24                     	mov	edi, dword ptr [edi + 0x24]
  4a3e17: 8b 6d 24                     	mov	ebp, dword ptr [ebp + 0x24]
  4a3e1a: 57                           	push	edi
  4a3e1b: e8 e0 64 fc ff               	call	0x46a300 <.text+0x69300>
  4a3e20: 59                           	pop	ecx
  4a3e21: 84 c0                        	test	al, al
  4a3e23: 0f 84 f7 00 00 00            	je	0x4a3f20 <.text+0xa2f20>
  4a3e29: 55                           	push	ebp
  4a3e2a: e8 d1 64 fc ff               	call	0x46a300 <.text+0x69300>
  4a3e2f: 59                           	pop	ecx
  4a3e30: 84 c0                        	test	al, al
  4a3e32: 0f 84 e8 00 00 00            	je	0x4a3f20 <.text+0xa2f20>
  4a3e38: 8b 47 20                     	mov	eax, dword ptr [edi + 0x20]
  4a3e3b: ff 70 12                     	push	dword ptr [eax + 0x12]
  4a3e3e: ff 70 0e                     	push	dword ptr [eax + 0xe]
  4a3e41: ff 35 9c 0c 5b 00            	push	dword ptr [0x5b0c9c]
  4a3e47: ff 35 98 0c 5b 00            	push	dword ptr [0x5b0c98]
  4a3e4d: e8 9e fd 01 00               	call	0x4c3bf0 <.text+0xc2bf0>
  4a3e52: 83 c4 10                     	add	esp, 0x10
  4a3e55: 89 44 24 10                  	mov	dword ptr [esp + 0x10], eax
  4a3e59: 89 54 24 14                  	mov	dword ptr [esp + 0x14], edx
  4a3e5d: ff 35 9c 0c 5b 00            	push	dword ptr [0x5b0c9c]
  4a3e63: ff 35 98 0c 5b 00            	push	dword ptr [0x5b0c98]
  4a3e69: 52                           	push	edx
  4a3e6a: 50                           	push	eax
  4a3e6b: e8 d0 06 02 00               	call	0x4c4540 <.text+0xc3540>
  4a3e70: 83 c4 10                     	add	esp, 0x10
  4a3e73: 89 44 24 20                  	mov	dword ptr [esp + 0x20], eax
  4a3e77: 89 54 24 24                  	mov	dword ptr [esp + 0x24], edx
  4a3e7b: 8b 45 20                     	mov	eax, dword ptr [ebp + 0x20]
  4a3e7e: ff 70 12                     	push	dword ptr [eax + 0x12]
  4a3e81: ff 70 0e                     	push	dword ptr [eax + 0xe]
  4a3e84: 52                           	push	edx
  4a3e85: ff 74 24 2c                  	push	dword ptr [esp + 0x2c]
  4a3e89: e8 e2 f7 01 00               	call	0x4c3670 <.text+0xc2670>
  4a3e8e: 83 c4 10                     	add	esp, 0x10
  4a3e91: 84 c0                        	test	al, al
  4a3e93: 74 7c                        	je	0x4a3f11 <.text+0xa2f11>
  4a3e95: 83 7c 24 20 00               	cmp	dword ptr [esp + 0x20], 0x0
  4a3e9a: 75 6b                        	jne	0x4a3f07 <.text+0xa2f07>
  4a3e9c: 8b 4c 24 24                  	mov	ecx, dword ptr [esp + 0x24]
  4a3ea0: 41                           	inc	ecx
  4a3ea1: 8b 44 24 48                  	mov	eax, dword ptr [esp + 0x48]
  4a3ea5: 89 08                        	mov	dword ptr [eax], ecx
  4a3ea7: 8d 43 14                     	lea	eax, [ebx + 0x14]
  4a3eaa: 50                           	push	eax
  4a3eab: ff 74 24 20                  	push	dword ptr [esp + 0x20]
  4a3eaf: ff 74 24 20                  	push	dword ptr [esp + 0x20]
  4a3eb3: ff 35 9c 0c 5b 00            	push	dword ptr [0x5b0c9c]
  4a3eb9: ff 35 98 0c 5b 00            	push	dword ptr [0x5b0c98]
  4a3ebf: ff 74 24 38                  	push	dword ptr [esp + 0x38]
  4a3ec3: ff 74 24 38                  	push	dword ptr [esp + 0x38]
  4a3ec7: e8 24 07 02 00               	call	0x4c45f0 <.text+0xc35f0>
  4a3ecc: 83 c4 10                     	add	esp, 0x10
  4a3ecf: 52                           	push	edx
  4a3ed0: 50                           	push	eax
  4a3ed1: e8 ba 04 00 00               	call	0x4a4390 <.text+0xa3390>
  4a3ed6: 83 c4 14                     	add	esp, 0x14
  4a3ed9: 85 c0                        	test	eax, eax
  4a3edb: 0f 84 7f 00 00 00            	je	0x4a3f60 <.text+0xa2f60>
  4a3ee1: 8b 44 24 4c                  	mov	eax, dword ptr [esp + 0x4c]
  4a3ee5: ff 00                        	inc	dword ptr [eax]
  4a3ee7: 80 3e 03                     	cmp	byte ptr [esi], 0x3
  4a3eea: 75 74                        	jne	0x4a3f60 <.text+0xa2f60>
  4a3eec: 80 7e 01 26                  	cmp	byte ptr [esi + 0x1], 0x26
  4a3ef0: 75 6e                        	jne	0x4a3f60 <.text+0xa2f60>
  4a3ef2: ff 73 18                     	push	dword ptr [ebx + 0x18]
  4a3ef5: ff 73 14                     	push	dword ptr [ebx + 0x14]
  4a3ef8: e8 93 07 02 00               	call	0x4c4690 <.text+0xc3690>
  4a3efd: 59                           	pop	ecx
  4a3efe: 59                           	pop	ecx
  4a3eff: 89 43 14                     	mov	dword ptr [ebx + 0x14], eax
  4a3f02: 89 53 18                     	mov	dword ptr [ebx + 0x18], edx
  4a3f05: eb 59                        	jmp	0x4a3f60 <.text+0xa2f60>
  4a3f07: 31 c0                        	xor	eax, eax
  4a3f09: 83 c4 28                     	add	esp, 0x28
  4a3f0c: 5d                           	pop	ebp
  4a3f0d: 5f                           	pop	edi
  4a3f0e: 5e                           	pop	esi
  4a3f0f: 5b                           	pop	ebx
  4a3f10: c3                           	ret
  4a3f11: 31 c0                        	xor	eax, eax
  4a3f13: 83 c4 28                     	add	esp, 0x28
  4a3f16: 5d                           	pop	ebp
  4a3f17: 5f                           	pop	edi
  4a3f18: 5e                           	pop	esi
  4a3f19: 5b                           	pop	ebx
  4a3f1a: c3                           	ret
  4a3f1b: 89 c0                        	mov	eax, eax
  4a3f1d: 8d 40 00                     	lea	eax, [eax]
  4a3f20: 31 c0                        	xor	eax, eax
  4a3f22: 83 c4 28                     	add	esp, 0x28
  4a3f25: 5d                           	pop	ebp
  4a3f26: 5f                           	pop	edi
  4a3f27: 5e                           	pop	esi
  4a3f28: 5b                           	pop	ebx
  4a3f29: c3                           	ret
  4a3f2a: 8d 80 00 00 00 00            	lea	eax, [eax]
  4a3f30: 31 c0                        	xor	eax, eax
  4a3f32: 83 c4 28                     	add	esp, 0x28
  4a3f35: 5d                           	pop	ebp
  4a3f36: 5f                           	pop	edi
  4a3f37: 5e                           	pop	esi
  4a3f38: 5b                           	pop	ebx
  4a3f39: c3                           	ret
  4a3f3a: 8d 80 00 00 00 00            	lea	eax, [eax]
  4a3f40: 31 c0                        	xor	eax, eax
  4a3f42: 83 c4 28                     	add	esp, 0x28
  4a3f45: 5d                           	pop	ebp
  4a3f46: 5f                           	pop	edi
  4a3f47: 5e                           	pop	esi
  4a3f48: 5b                           	pop	ebx
  4a3f49: c3                           	ret
  4a3f4a: 8d 80 00 00 00 00            	lea	eax, [eax]
  4a3f50: 31 c0                        	xor	eax, eax
  4a3f52: 83 c4 28                     	add	esp, 0x28
  4a3f55: 5d                           	pop	ebp
  4a3f56: 5f                           	pop	edi
  4a3f57: 5e                           	pop	esi
  4a3f58: 5b                           	pop	ebx
  4a3f59: c3                           	ret
  4a3f5a: 8d 80 00 00 00 00            	lea	eax, [eax]
  4a3f60: 8b 44 24 3c                  	mov	eax, dword ptr [esp + 0x3c]
  4a3f64: 3b 70 12                     	cmp	esi, dword ptr [eax + 0x12]
  4a3f67: 74 08                        	je	0x4a3f71 <.text+0xa2f71>
  4a3f69: 8b 76 34                     	mov	esi, dword ptr [esi + 0x34]
  4a3f6c: e9 cf fb ff ff               	jmp	0x4a3b40 <.text+0xa2b40>
  4a3f71: b8 01 00 00 00               	mov	eax, 0x1
  4a3f76: 83 c4 28                     	add	esp, 0x28
  4a3f79: 5d                           	pop	ebp
  4a3f7a: 5f                           	pop	edi
  4a3f7b: 5e                           	pop	esi
  4a3f7c: 5b                           	pop	ebx
  4a3f7d: c3                           	ret
  4a3f7e: 00 00                        	add	byte ptr [eax], al
  4a3f80: 53                           	push	ebx
  4a3f81: 56                           	push	esi
  4a3f82: 57                           	push	edi
  4a3f83: 55                           	push	ebp
  4a3f84: 83 ec 38                     	sub	esp, 0x38
  4a3f87: 8b 6c 24 5c                  	mov	ebp, dword ptr [esp + 0x5c]
  4a3f8b: c7 44 24 24 00 00 00 00      	mov	dword ptr [esp + 0x24], 0x0
  4a3f93: c7 44 24 10 00 00 00 00      	mov	dword ptr [esp + 0x10], 0x0
  4a3f9b: 8b 44 24 54                  	mov	eax, dword ptr [esp + 0x54]
  4a3f9f: 89 44 24 1c                  	mov	dword ptr [esp + 0x1c], eax
  4a3fa3: 8b 44 24 24                  	mov	eax, dword ptr [esp + 0x24]
  4a3fa7: 89 44 24 20                  	mov	dword ptr [esp + 0x20], eax
  4a3fab: e9 b0 03 00 00               	jmp	0x4a4360 <.text+0xa3360>
  4a3fb0: 8d 44 24 28                  	lea	eax, [esp + 0x28]
  4a3fb4: 50                           	push	eax
  4a3fb5: e8 36 4f fc ff               	call	0x468ef0 <.text+0x67ef0>
  4a3fba: 59                           	pop	ecx
  4a3fbb: 8b 4c 24 1c                  	mov	ecx, dword ptr [esp + 0x1c]
  4a3fbf: 8b 41 12                     	mov	eax, dword ptr [ecx + 0x12]
  4a3fc2: 89 44 24 18                  	mov	dword ptr [esp + 0x18], eax
  4a3fc6: 89 c8                        	mov	eax, ecx
  4a3fc8: 8b 58 0e                     	mov	ebx, dword ptr [eax + 0xe]
  4a3fcb: 8b 44 24 20                  	mov	eax, dword ptr [esp + 0x20]
  4a3fcf: 89 44 24 14                  	mov	dword ptr [esp + 0x14], eax
  4a3fd3: 8b 43 0a                     	mov	eax, dword ptr [ebx + 0xa]
  4a3fd6: 85 c0                        	test	eax, eax
  4a3fd8: 74 04                        	je	0x4a3fde <.text+0xa2fde>
  4a3fda: 80 48 06 10                  	or	byte ptr [eax + 0x6], 0x10
  4a3fde: 0f b7 7b 08                  	movzx	edi, word ptr [ebx + 0x8]
  4a3fe2: 8b 44 24 58                  	mov	eax, dword ptr [esp + 0x58]
  4a3fe6: 3b 78 20                     	cmp	edi, dword ptr [eax + 0x20]
  4a3fe9: 7c 09                        	jl	0x4a3ff4 <.text+0xa2ff4>
  4a3feb: 3b 78 24                     	cmp	edi, dword ptr [eax + 0x24]
  4a3fee: 0f 8e 2c 03 00 00            	jle	0x4a4320 <.text+0xa3320>
  4a3ff4: 8a 03                        	mov	al, byte ptr [ebx]
  4a3ff6: 3c 08                        	cmp	al, 0x8
  4a3ff8: 0f 84 22 03 00 00            	je	0x4a4320 <.text+0xa3320>
  4a3ffe: 84 c0                        	test	al, al
  4a4000: 0f 84 1a 03 00 00            	je	0x4a4320 <.text+0xa3320>
  4a4006: 8b 43 02                     	mov	eax, dword ptr [ebx + 0x2]
  4a4009: 83 e0 02                     	and	eax, 0x2
  4a400c: 0f 85 0e 03 00 00            	jne	0x4a4320 <.text+0xa3320>
  4a4012: 8a 43 01                     	mov	al, byte ptr [ebx + 0x1]
  4a4015: 3c 28                        	cmp	al, 0x28
  4a4017: 74 17                        	je	0x4a4030 <.text+0xa3030>
  4a4019: 04 da                        	add	al, -0x26
  4a401b: 3c 01                        	cmp	al, 0x1
  4a401d: 76 11                        	jbe	0x4a4030 <.text+0xa3030>
  4a401f: 68 59 01 00 00               	push	0x159
  4a4024: 68 20 e5 5a 00               	push	0x5ae520
  4a4029: e8 32 f7 fb ff               	call	0x463760 <.text+0x62760>
  4a402e: 59                           	pop	ecx
  4a402f: 59                           	pop	ecx
  4a4030: 8d 4c 24 28                  	lea	ecx, [esp + 0x28]
  4a4034: 51                           	push	ecx
  4a4035: 8b 45 00                     	mov	eax, dword ptr [ebp]
  4a4038: 50                           	push	eax
  4a4039: e8 52 4c fc ff               	call	0x468c90 <.text+0x67c90>
  4a403e: 59                           	pop	ecx
  4a403f: 59                           	pop	ecx
  4a4040: 8b 44 24 2c                  	mov	eax, dword ptr [esp + 0x2c]
  4a4044: 89 44 24 0c                  	mov	dword ptr [esp + 0xc], eax
  4a4048: ff 75 20                     	push	dword ptr [ebp + 0x20]
  4a404b: ff 75 1c                     	push	dword ptr [ebp + 0x1c]
  4a404e: ff 35 9c 0c 5b 00            	push	dword ptr [0x5b0c9c]
  4a4054: ff 35 98 0c 5b 00            	push	dword ptr [0x5b0c98]
  4a405a: e8 91 fb 01 00               	call	0x4c3bf0 <.text+0xc2bf0>
  4a405f: 83 c4 10                     	add	esp, 0x10
  4a4062: 89 44 24 30                  	mov	dword ptr [esp + 0x30], eax
  4a4066: 89 54 24 34                  	mov	dword ptr [esp + 0x34], edx
  4a406a: 6a 01                        	push	0x1
  4a406c: e8 ff b8 fc ff               	call	0x46f970 <.text+0x6e970>
  4a4071: 59                           	pop	ecx
  4a4072: 89 c6                        	mov	esi, eax
  4a4074: ff 05 00 90 5e 00            	inc	dword ptr [0x5e9000]
  4a407a: 66 a1 00 90 5e 00            	mov	ax, word ptr [0x5e9000]
  4a4080: 66 89 46 08                  	mov	word ptr [esi + 0x8], ax
  4a4084: 8b 55 00                     	mov	edx, dword ptr [ebp]
  4a4087: 8b 42 0e                     	mov	eax, dword ptr [edx + 0xe]
  4a408a: 89 46 0e                     	mov	dword ptr [esi + 0xe], eax
  4a408d: 6a 32                        	push	0x32
  4a408f: e8 7c 8c fc ff               	call	0x46cd10 <.text+0x6bd10>
  4a4094: 59                           	pop	ecx
  4a4095: 8b 7d 00                     	mov	edi, dword ptr [ebp]
  4a4098: 8b 4f 0e                     	mov	ecx, dword ptr [edi + 0xe]
  4a409b: 89 48 06                     	mov	dword ptr [eax + 0x6], ecx
  4a409e: 8b 54 24 14                  	mov	edx, dword ptr [esp + 0x14]
  4a40a2: 0f af 54 24 34               	imul	edx, dword ptr [esp + 0x34]
  4a40a7: 89 50 12                     	mov	dword ptr [eax + 0x12], edx
  4a40aa: 85 d2                        	test	edx, edx
  4a40ac: 7d 05                        	jge	0x4a40b3 <.text+0xa30b3>
  4a40ae: 83 cf ff                     	or	edi, -0x1
  4a40b1: eb 02                        	jmp	0x4a40b5 <.text+0xa30b5>
  4a40b3: 31 ff                        	xor	edi, edi
  4a40b5: 89 78 0e                     	mov	dword ptr [eax + 0xe], edi
  4a40b8: 89 46 20                     	mov	dword ptr [esi + 0x20], eax
  4a40bb: 8d 44 24 28                  	lea	eax, [esp + 0x28]
  4a40bf: 50                           	push	eax
  4a40c0: 56                           	push	esi
  4a40c1: e8 fa 4d fc ff               	call	0x468ec0 <.text+0x67ec0>
  4a40c6: 59                           	pop	ecx
  4a40c7: 59                           	pop	ecx
  4a40c8: 8d 54 24 28                  	lea	edx, [esp + 0x28]
  4a40cc: 52                           	push	edx
  4a40cd: 8b 45 04                     	mov	eax, dword ptr [ebp + 0x4]
  4a40d0: 50                           	push	eax
  4a40d1: e8 ba 4b fc ff               	call	0x468c90 <.text+0x67c90>
  4a40d6: 59                           	pop	ecx
  4a40d7: 59                           	pop	ecx
  4a40d8: 6a 03                        	push	0x3
  4a40da: e8 91 b8 fc ff               	call	0x46f970 <.text+0x6e970>
  4a40df: 59                           	pop	ecx
  4a40e0: 89 c7                        	mov	edi, eax
  4a40e2: ff 05 00 90 5e 00            	inc	dword ptr [0x5e9000]
  4a40e8: 66 a1 00 90 5e 00            	mov	ax, word ptr [0x5e9000]
  4a40ee: 66 89 47 08                  	mov	word ptr [edi + 0x8], ax
  4a40f2: c6 47 01 0f                  	mov	byte ptr [edi + 0x1], 0xf
  4a40f6: 8b 45 08                     	mov	eax, dword ptr [ebp + 0x8]
  4a40f9: 89 47 0e                     	mov	dword ptr [edi + 0xe], eax
  4a40fc: 8b 44 24 2c                  	mov	eax, dword ptr [esp + 0x2c]
  4a4100: 89 47 20                     	mov	dword ptr [edi + 0x20], eax
  4a4103: 89 77 24                     	mov	dword ptr [edi + 0x24], esi
  4a4106: 8d 44 24 28                  	lea	eax, [esp + 0x28]
  4a410a: 50                           	push	eax
  4a410b: 57                           	push	edi
  4a410c: e8 af 4d fc ff               	call	0x468ec0 <.text+0x67ec0>
  4a4111: 59                           	pop	ecx
  4a4112: 59                           	pop	ecx
  4a4113: 6a 03                        	push	0x3
  4a4115: e8 56 b8 fc ff               	call	0x46f970 <.text+0x6e970>
  4a411a: 59                           	pop	ecx
  4a411b: 89 c6                        	mov	esi, eax
  4a411d: ff 05 00 90 5e 00            	inc	dword ptr [0x5e9000]
  4a4123: 66 a1 00 90 5e 00            	mov	ax, word ptr [0x5e9000]
  4a4129: 66 89 46 08                  	mov	word ptr [esi + 0x8], ax
  4a412d: c6 46 01 0f                  	mov	byte ptr [esi + 0x1], 0xf
  4a4131: 8b 45 08                     	mov	eax, dword ptr [ebp + 0x8]
  4a4134: 89 46 0e                     	mov	dword ptr [esi + 0xe], eax
  4a4137: 89 7e 20                     	mov	dword ptr [esi + 0x20], edi
  4a413a: 8b 44 24 0c                  	mov	eax, dword ptr [esp + 0xc]
  4a413e: 89 46 24                     	mov	dword ptr [esi + 0x24], eax
  4a4141: 8d 44 24 28                  	lea	eax, [esp + 0x28]
  4a4145: 50                           	push	eax
  4a4146: 56                           	push	esi
  4a4147: e8 74 4d fc ff               	call	0x468ec0 <.text+0x67ec0>
  4a414c: 59                           	pop	ecx
  4a414d: 59                           	pop	ecx
  4a414e: 6a 02                        	push	0x2
  4a4150: e8 1b b8 fc ff               	call	0x46f970 <.text+0x6e970>
  4a4155: 59                           	pop	ecx
  4a4156: ff 05 00 90 5e 00            	inc	dword ptr [0x5e9000]
  4a415c: 66 8b 3d 00 90 5e 00         	mov	di, word ptr [0x5e9000]
  4a4163: 66 89 78 08                  	mov	word ptr [eax + 0x8], di
  4a4167: c6 40 01 04                  	mov	byte ptr [eax + 0x1], 0x4
  4a416b: 8b 4b 0e                     	mov	ecx, dword ptr [ebx + 0xe]
  4a416e: 89 48 0e                     	mov	dword ptr [eax + 0xe], ecx
  4a4171: 89 70 20                     	mov	dword ptr [eax + 0x20], esi
  4a4174: 8d 54 24 28                  	lea	edx, [esp + 0x28]
  4a4178: 52                           	push	edx
  4a4179: 50                           	push	eax
  4a417a: e8 41 4d fc ff               	call	0x468ec0 <.text+0x67ec0>
  4a417f: 59                           	pop	ecx
  4a4180: 59                           	pop	ecx
  4a4181: 6a 03                        	push	0x3
  4a4183: e8 e8 b7 fc ff               	call	0x46f970 <.text+0x6e970>
  4a4188: 59                           	pop	ecx
  4a4189: 89 44 24 04                  	mov	dword ptr [esp + 0x4], eax
  4a418d: 8d 38                        	lea	edi, [eax]
  4a418f: 8d 33                        	lea	esi, [ebx]
  4a4191: b9 0e 00 00 00               	mov	ecx, 0xe
  4a4196: f3 a5                        	rep		movsd	dword ptr es:[edi], dword ptr [esi]
  4a4198: ff 05 00 90 5e 00            	inc	dword ptr [0x5e9000]
  4a419e: 66 8b 35 00 90 5e 00         	mov	si, word ptr [0x5e9000]
  4a41a5: 8b 44 24 04                  	mov	eax, dword ptr [esp + 0x4]
  4a41a9: 66 89 70 08                  	mov	word ptr [eax + 0x8], si
  4a41ad: 8b 4c 24 2c                  	mov	ecx, dword ptr [esp + 0x2c]
  4a41b1: 89 48 20                     	mov	dword ptr [eax + 0x20], ecx
  4a41b4: c7 40 34 00 00 00 00         	mov	dword ptr [eax + 0x34], 0x0
  4a41bb: 6a 01                        	push	0x1
  4a41bd: e8 ae b7 fc ff               	call	0x46f970 <.text+0x6e970>
  4a41c2: 59                           	pop	ecx
  4a41c3: 89 44 24 08                  	mov	dword ptr [esp + 0x8], eax
  4a41c7: ff 05 00 90 5e 00            	inc	dword ptr [0x5e9000]
  4a41cd: 66 8b 15 00 90 5e 00         	mov	dx, word ptr [0x5e9000]
  4a41d4: 66 89 50 08                  	mov	word ptr [eax + 0x8], dx
  4a41d8: 8b 45 0c                     	mov	eax, dword ptr [ebp + 0xc]
  4a41db: 8b 78 0e                     	mov	edi, dword ptr [eax + 0xe]
  4a41de: 8b 44 24 08                  	mov	eax, dword ptr [esp + 0x8]
  4a41e2: 89 78 0e                     	mov	dword ptr [eax + 0xe], edi
  4a41e5: 6a 32                        	push	0x32
  4a41e7: e8 24 8b fc ff               	call	0x46cd10 <.text+0x6bd10>
  4a41ec: 59                           	pop	ecx
  4a41ed: 8b 75 0c                     	mov	esi, dword ptr [ebp + 0xc]
  4a41f0: 8b 4e 0e                     	mov	ecx, dword ptr [esi + 0xe]
  4a41f3: 89 48 06                     	mov	dword ptr [eax + 0x6], ecx
  4a41f6: 8b 4c 24 08                  	mov	ecx, dword ptr [esp + 0x8]
  4a41fa: 89 41 20                     	mov	dword ptr [ecx + 0x20], eax
  4a41fd: c7 41 34 00 00 00 00         	mov	dword ptr [ecx + 0x34], 0x0
  4a4204: 8b 55 14                     	mov	edx, dword ptr [ebp + 0x14]
  4a4207: 8b 7d 18                     	mov	edi, dword ptr [ebp + 0x18]
  4a420a: 89 50 0e                     	mov	dword ptr [eax + 0xe], edx
  4a420d: 89 78 12                     	mov	dword ptr [eax + 0x12], edi
  4a4210: 80 3b 03                     	cmp	byte ptr [ebx], 0x3
  4a4213: 75 24                        	jne	0x4a4239 <.text+0xa3239>
  4a4215: 80 7b 01 26                  	cmp	byte ptr [ebx + 0x1], 0x26
  4a4219: 75 1e                        	jne	0x4a4239 <.text+0xa3239>
  4a421b: ff 35 94 0c 5b 00            	push	dword ptr [0x5b0c94]
  4a4221: ff 35 90 0c 5b 00            	push	dword ptr [0x5b0c90]
  4a4227: ff 75 18                     	push	dword ptr [ebp + 0x18]
  4a422a: ff 75 14                     	push	dword ptr [ebp + 0x14]
  4a422d: e8 3e f4 01 00               	call	0x4c3670 <.text+0xc2670>
  4a4232: 83 c4 10                     	add	esp, 0x10
  4a4235: 84 c0                        	test	al, al
  4a4237: 75 40                        	jne	0x4a4279 <.text+0xa3279>
  4a4239: 80 3b 03                     	cmp	byte ptr [ebx], 0x3
  4a423c: 75 43                        	jne	0x4a4281 <.text+0xa3281>
  4a423e: 80 7b 01 28                  	cmp	byte ptr [ebx + 0x1], 0x28
  4a4242: 75 3d                        	jne	0x4a4281 <.text+0xa3281>
  4a4244: 83 7d 14 00                  	cmp	dword ptr [ebp + 0x14], 0x0
  4a4248: 75 37                        	jne	0x4a4281 <.text+0xa3281>
  4a424a: 8b 4d 18                     	mov	ecx, dword ptr [ebp + 0x18]
  4a424d: 89 ce                        	mov	esi, ecx
  4a424f: 8b 43 0e                     	mov	eax, dword ptr [ebx + 0xe]
  4a4252: 8b 50 02                     	mov	edx, dword ptr [eax + 0x2]
  4a4255: 83 fa 01                     	cmp	edx, 0x1
  4a4258: 75 08                        	jne	0x4a4262 <.text+0xa3262>
  4a425a: 81 f9 ff 00 00 00            	cmp	ecx, 0xff
  4a4260: 74 17                        	je	0x4a4279 <.text+0xa3279>
  4a4262: 83 fa 02                     	cmp	edx, 0x2
  4a4265: 75 08                        	jne	0x4a426f <.text+0xa326f>
  4a4267: 81 f9 ff ff 00 00            	cmp	ecx, 0xffff
  4a426d: 74 0a                        	je	0x4a4279 <.text+0xa3279>
  4a426f: 83 fa 04                     	cmp	edx, 0x4
  4a4272: 75 0d                        	jne	0x4a4281 <.text+0xa3281>
  4a4274: 83 fe ff                     	cmp	esi, -0x1
  4a4277: 75 08                        	jne	0x4a4281 <.text+0xa3281>
  4a4279: 8b 44 24 04                  	mov	eax, dword ptr [esp + 0x4]
  4a427d: c6 40 01 1e                  	mov	byte ptr [eax + 0x1], 0x1e
  4a4281: 8d 44 24 28                  	lea	eax, [esp + 0x28]
  4a4285: 50                           	push	eax
  4a4286: ff 74 24 0c                  	push	dword ptr [esp + 0xc]
  4a428a: e8 31 4c fc ff               	call	0x468ec0 <.text+0x67ec0>
  4a428f: 59                           	pop	ecx
  4a4290: 59                           	pop	ecx
  4a4291: 8b 45 10                     	mov	eax, dword ptr [ebp + 0x10]
  4a4294: 80 38 02                     	cmp	byte ptr [eax], 0x2
  4a4297: 75 57                        	jne	0x4a42f0 <.text+0xa32f0>
  4a4299: 80 78 01 30                  	cmp	byte ptr [eax + 0x1], 0x30
  4a429d: 75 51                        	jne	0x4a42f0 <.text+0xa32f0>
  4a429f: 6a 02                        	push	0x2
  4a42a1: e8 ca b6 fc ff               	call	0x46f970 <.text+0x6e970>
  4a42a6: 59                           	pop	ecx
  4a42a7: 89 04 24                     	mov	dword ptr [esp], eax
  4a42aa: 8b 4d 10                     	mov	ecx, dword ptr [ebp + 0x10]
  4a42ad: 8d 38                        	lea	edi, [eax]
  4a42af: 8d 31                        	lea	esi, [ecx]
  4a42b1: b9 0e 00 00 00               	mov	ecx, 0xe
  4a42b6: f3 a5                        	rep		movsd	dword ptr es:[edi], dword ptr [esi]
  4a42b8: ff 05 00 90 5e 00            	inc	dword ptr [0x5e9000]
  4a42be: 66 8b 15 00 90 5e 00         	mov	dx, word ptr [0x5e9000]
  4a42c5: 8b 04 24                     	mov	eax, dword ptr [esp]
  4a42c8: 66 89 50 08                  	mov	word ptr [eax + 0x8], dx
  4a42cc: 8b 4c 24 08                  	mov	ecx, dword ptr [esp + 0x8]
  4a42d0: 89 48 20                     	mov	dword ptr [eax + 0x20], ecx
  4a42d3: c7 40 34 00 00 00 00         	mov	dword ptr [eax + 0x34], 0x0
  4a42da: 8d 44 24 28                  	lea	eax, [esp + 0x28]
  4a42de: 50                           	push	eax
  4a42df: ff 74 24 04                  	push	dword ptr [esp + 0x4]
  4a42e3: e8 d8 4b fc ff               	call	0x468ec0 <.text+0x67ec0>
  4a42e8: 59                           	pop	ecx
  4a42e9: 59                           	pop	ecx
  4a42ea: eb 0b                        	jmp	0x4a42f7 <.text+0xa32f7>
  4a42ec: 8d 44 20 00                  	lea	eax, [eax + eiz]
  4a42f0: 8b 44 24 08                  	mov	eax, dword ptr [esp + 0x8]
  4a42f4: 89 04 24                     	mov	dword ptr [esp], eax
  4a42f7: 8b 0c 24                     	mov	ecx, dword ptr [esp]
  4a42fa: 8b 44 24 04                  	mov	eax, dword ptr [esp + 0x4]
  4a42fe: 89 48 24                     	mov	dword ptr [eax + 0x24], ecx
  4a4301: 8d 44 24 28                  	lea	eax, [esp + 0x28]
  4a4305: 50                           	push	eax
  4a4306: ff 74 24 08                  	push	dword ptr [esp + 0x8]
  4a430a: e8 b1 4b fc ff               	call	0x468ec0 <.text+0x67ec0>
  4a430f: 59                           	pop	ecx
  4a4310: 59                           	pop	ecx
  4a4311: 83 7c 24 10 00               	cmp	dword ptr [esp + 0x10], 0x0
  4a4316: 75 08                        	jne	0x4a4320 <.text+0xa3320>
  4a4318: 8b 44 24 28                  	mov	eax, dword ptr [esp + 0x28]
  4a431c: 89 44 24 10                  	mov	dword ptr [esp + 0x10], eax
  4a4320: 3b 5c 24 18                  	cmp	ebx, dword ptr [esp + 0x18]
  4a4324: 74 0a                        	je	0x4a4330 <.text+0xa3330>
  4a4326: 8b 5b 34                     	mov	ebx, dword ptr [ebx + 0x34]
  4a4329: e9 a5 fc ff ff               	jmp	0x4a3fd3 <.text+0xa2fd3>
  4a432e: 89 c0                        	mov	eax, eax
  4a4330: 83 7c 24 28 00               	cmp	dword ptr [esp + 0x28], 0x0
  4a4335: 74 1e                        	je	0x4a4355 <.text+0xa3355>
  4a4337: 8b 7c 24 2c                  	mov	edi, dword ptr [esp + 0x2c]
  4a433b: 85 ff                        	test	edi, edi
  4a433d: 74 16                        	je	0x4a4355 <.text+0xa3355>
  4a433f: 8b 44 24 50                  	mov	eax, dword ptr [esp + 0x50]
  4a4343: 8b 40 12                     	mov	eax, dword ptr [eax + 0x12]
  4a4346: 50                           	push	eax
  4a4347: 57                           	push	edi
  4a4348: 8b 44 24 30                  	mov	eax, dword ptr [esp + 0x30]
  4a434c: 50                           	push	eax
  4a434d: e8 6e 4d fc ff               	call	0x4690c0 <.text+0x680c0>
  4a4352: 83 c4 0c                     	add	esp, 0xc
  4a4355: 8b 4c 24 1c                  	mov	ecx, dword ptr [esp + 0x1c]
  4a4359: 8b 41 32                     	mov	eax, dword ptr [ecx + 0x32]
  4a435c: 89 44 24 1c                  	mov	dword ptr [esp + 0x1c], eax
  4a4360: 83 7c 24 1c 00               	cmp	dword ptr [esp + 0x1c], 0x0
  4a4365: 74 0e                        	je	0x4a4375 <.text+0xa3375>
  4a4367: 8b 44 24 1c                  	mov	eax, dword ptr [esp + 0x1c]
  4a436b: 3b 44 24 4c                  	cmp	eax, dword ptr [esp + 0x4c]
  4a436f: 0f 85 3b fc ff ff            	jne	0x4a3fb0 <.text+0xa2fb0>
  4a4375: ff 44 24 24                  	inc	dword ptr [esp + 0x24]
  4a4379: 83 7c 24 24 08               	cmp	dword ptr [esp + 0x24], 0x8
  4a437e: 0f 8c 0f fc ff ff            	jl	0x4a3f93 <.text+0xa2f93>
  4a4384: 83 c4 38                     	add	esp, 0x38
  4a4387: 5d                           	pop	ebp
  4a4388: 5f                           	pop	edi
  4a4389: 5e                           	pop	esi
  4a438a: 5b                           	pop	ebx
  4a438b: c3                           	ret
  4a438c: 00 00                        	add	byte ptr [eax], al
  4a438e: 00 00                        	add	byte ptr [eax], al
  4a4390: 53                           	push	ebx
  4a4391: 83 ec 20                     	sub	esp, 0x20
  4a4394: 8b 5c 24 38                  	mov	ebx, dword ptr [esp + 0x38]
  4a4398: 8b 0d 90 0c 5b 00            	mov	ecx, dword ptr [0x5b0c90]
  4a439e: a1 94 0c 5b 00               	mov	eax, dword ptr [0x5b0c94]
  4a43a3: 89 4c 24 08                  	mov	dword ptr [esp + 0x8], ecx
  4a43a7: 89 44 24 0c                  	mov	dword ptr [esp + 0xc], eax
  4a43ab: 89 4c 24 18                  	mov	dword ptr [esp + 0x18], ecx
  4a43af: 89 44 24 1c                  	mov	dword ptr [esp + 0x1c], eax
  4a43b3: ff 74 24 2c                  	push	dword ptr [esp + 0x2c]
  4a43b7: ff 74 24 2c                  	push	dword ptr [esp + 0x2c]
  4a43bb: 50                           	push	eax
  4a43bc: 51                           	push	ecx
  4a43bd: e8 7e f6 01 00               	call	0x4c3a40 <.text+0xc2a40>
  4a43c2: 83 c4 10                     	add	esp, 0x10
  4a43c5: 84 c0                        	test	al, al
  4a43c7: 0f 84 c1 00 00 00            	je	0x4a448e <.text+0xa348e>
  4a43cd: 8d 40 00                     	lea	eax, [eax]
  4a43d0: ff 74 24 1c                  	push	dword ptr [esp + 0x1c]
  4a43d4: ff 74 24 1c                  	push	dword ptr [esp + 0x1c]
  4a43d8: ff 74 24 3c                  	push	dword ptr [esp + 0x3c]
  4a43dc: ff 74 24 3c                  	push	dword ptr [esp + 0x3c]
  4a43e0: e8 0b f8 01 00               	call	0x4c3bf0 <.text+0xc2bf0>
  4a43e5: 83 c4 10                     	add	esp, 0x10
  4a43e8: 89 04 24                     	mov	dword ptr [esp], eax
  4a43eb: 89 54 24 04                  	mov	dword ptr [esp + 0x4], edx
  4a43ef: ff 74 24 0c                  	push	dword ptr [esp + 0xc]
  4a43f3: ff 74 24 0c                  	push	dword ptr [esp + 0xc]
  4a43f7: 52                           	push	edx
  4a43f8: 50                           	push	eax
  4a43f9: e8 92 ef 01 00               	call	0x4c3390 <.text+0xc2390>
  4a43fe: 83 c4 10                     	add	esp, 0x10
  4a4401: 89 44 24 10                  	mov	dword ptr [esp + 0x10], eax
  4a4405: 89 54 24 14                  	mov	dword ptr [esp + 0x14], edx
  4a4409: ff 35 94 0c 5b 00            	push	dword ptr [0x5b0c94]
  4a440f: ff 35 90 0c 5b 00            	push	dword ptr [0x5b0c90]
  4a4415: 52                           	push	edx
  4a4416: 50                           	push	eax
  4a4417: e8 24 f2 01 00               	call	0x4c3640 <.text+0xc2640>
  4a441c: 83 c4 10                     	add	esp, 0x10
  4a441f: 84 c0                        	test	al, al
  4a4421: 74 0d                        	je	0x4a4430 <.text+0xa3430>
  4a4423: 31 c0                        	xor	eax, eax
  4a4425: 83 c4 20                     	add	esp, 0x20
  4a4428: 5b                           	pop	ebx
  4a4429: c3                           	ret
  4a442a: 8d 80 00 00 00 00            	lea	eax, [eax]
  4a4430: ff 74 24 0c                  	push	dword ptr [esp + 0xc]
  4a4434: ff 74 24 0c                  	push	dword ptr [esp + 0xc]
  4a4438: ff 74 24 0c                  	push	dword ptr [esp + 0xc]
  4a443c: ff 74 24 0c                  	push	dword ptr [esp + 0xc]
  4a4440: e8 0b ef 01 00               	call	0x4c3350 <.text+0xc2350>
  4a4445: 83 c4 10                     	add	esp, 0x10
  4a4448: 89 44 24 08                  	mov	dword ptr [esp + 0x8], eax
  4a444c: 89 54 24 0c                  	mov	dword ptr [esp + 0xc], edx
  4a4450: ff 35 9c 0c 5b 00            	push	dword ptr [0x5b0c9c]
  4a4456: ff 35 98 0c 5b 00            	push	dword ptr [0x5b0c98]
  4a445c: ff 74 24 24                  	push	dword ptr [esp + 0x24]
  4a4460: ff 74 24 24                  	push	dword ptr [esp + 0x24]
  4a4464: e8 87 01 02 00               	call	0x4c45f0 <.text+0xc35f0>
  4a4469: 83 c4 10                     	add	esp, 0x10
  4a446c: 89 44 24 18                  	mov	dword ptr [esp + 0x18], eax
  4a4470: 89 54 24 1c                  	mov	dword ptr [esp + 0x1c], edx
  4a4474: ff 74 24 2c                  	push	dword ptr [esp + 0x2c]
  4a4478: ff 74 24 2c                  	push	dword ptr [esp + 0x2c]
  4a447c: 52                           	push	edx
  4a447d: 50                           	push	eax
  4a447e: e8 bd f5 01 00               	call	0x4c3a40 <.text+0xc2a40>
  4a4483: 83 c4 10                     	add	esp, 0x10
  4a4486: 84 c0                        	test	al, al
  4a4488: 0f 85 42 ff ff ff            	jne	0x4a43d0 <.text+0xa33d0>
  4a448e: 8b 4c 24 08                  	mov	ecx, dword ptr [esp + 0x8]
  4a4492: 8b 44 24 0c                  	mov	eax, dword ptr [esp + 0xc]
  4a4496: 89 0b                        	mov	dword ptr [ebx], ecx
  4a4498: 89 43 04                     	mov	dword ptr [ebx + 0x4], eax
  4a449b: b8 01 00 00 00               	mov	eax, 0x1
  4a44a0: 83 c4 20                     	add	esp, 0x20
  4a44a3: 5b                           	pop	ebx
  4a44a4: c3                           	ret
		...
  4a44ad: 00 00                        	add	byte ptr [eax], al
  4a44af: 00 53 56                     	add	byte ptr [ebx + 0x56], dl
  4a44b2: 57                           	push	edi
  4a44b3: 55                           	push	ebp
  4a44b4: 83 ec 08                     	sub	esp, 0x8
  4a44b7: 8b 1d 68 98 5e 00            	mov	ebx, dword ptr [0x5e9868]
  4a44bd: c7 05 ec 8f 5e 00 00 00 00 00	mov	dword ptr [0x5e8fec], 0x0
  4a44c7: 83 3d 68 98 5e 00 00         	cmp	dword ptr [0x5e9868], 0x0
  4a44ce: 0f 84 69 01 00 00            	je	0x4a463d <.text+0xa363d>
  4a44d4: c7 44 24 04 00 00 00 00      	mov	dword ptr [esp + 0x4], 0x0
  4a44dc: 31 ed                        	xor	ebp, ebp
  4a44de: e9 d7 00 00 00               	jmp	0x4a45ba <.text+0xa35ba>
  4a44e3: 0f b7 cd                     	movzx	ecx, bp
  4a44e6: 8b 53 0a                     	mov	edx, dword ptr [ebx + 0xa]
  4a44e9: 0f b7 3c 4a                  	movzx	edi, word ptr [edx + 2*ecx]
  4a44ed: a1 b0 99 5e 00               	mov	eax, dword ptr [0x5e99b0]
  4a44f2: 8b 34 b8                     	mov	esi, dword ptr [eax + 4*edi]
  4a44f5: 0f b7 0b                     	movzx	ecx, word ptr [ebx]
  4a44f8: 89 ca                        	mov	edx, ecx
  4a44fa: c1 fa 05                     	sar	edx, 0x5
  4a44fd: 8b 7e 2e                     	mov	edi, dword ptr [esi + 0x2e]
  4a4500: 3b 17                        	cmp	edx, dword ptr [edi]
  4a4502: 0f 83 b1 00 00 00            	jae	0x4a45b9 <.text+0xa35b9>
  4a4508: b8 01 00 00 00               	mov	eax, 0x1
  4a450d: d3 e0                        	shl	eax, cl
  4a450f: 23 44 97 04                  	and	eax, dword ptr [edi + 4*edx + 0x4]
  4a4513: 0f 84 a0 00 00 00            	je	0x4a45b9 <.text+0xa35b9>
  4a4519: 66 83 7c 24 04 00            	cmp	word ptr [esp + 0x4], 0x0
  4a451f: 75 53                        	jne	0x4a4574 <.text+0xa3574>
  4a4521: 0f b7 05 80 9d 5e 00         	movzx	eax, word ptr [0x5e9d80]
  4a4528: 40                           	inc	eax
  4a4529: 50                           	push	eax
  4a452a: 68 64 9b 5e 00               	push	0x5e9b64
  4a452f: e8 7c 7a 08 00               	call	0x52bfb0 <.text+0x12afb0>
  4a4534: 59                           	pop	ecx
  4a4535: 59                           	pop	ecx
  4a4536: a1 64 9b 5e 00               	mov	eax, dword ptr [0x5e9b64]
  4a453b: 50                           	push	eax
  4a453c: e8 8f 78 08 00               	call	0x52bdd0 <.text+0x12add0>
  4a4541: 59                           	pop	ecx
  4a4542: a1 64 9b 5e 00               	mov	eax, dword ptr [0x5e9b64]
  4a4547: 0f b7 0b                     	movzx	ecx, word ptr [ebx]
  4a454a: 89 ca                        	mov	edx, ecx
  4a454c: c1 ea 05                     	shr	edx, 0x5
  4a454f: 8b 3d 64 9b 5e 00            	mov	edi, dword ptr [0x5e9b64]
  4a4555: 3b 17                        	cmp	edx, dword ptr [edi]
  4a4557: 73 0d                        	jae	0x4a4566 <.text+0xa3566>
  4a4559: bf 01 00 00 00               	mov	edi, 0x1
  4a455e: d3 e7                        	shl	edi, cl
  4a4560: 09 7c 90 04                  	or	dword ptr [eax + 4*edx + 0x4], edi
  4a4564: eb 0e                        	jmp	0x4a4574 <.text+0xa3574>
  4a4566: 6a 38                        	push	0x38
  4a4568: 68 e8 eb 5a 00               	push	0x5aebe8
  4a456d: e8 ee f1 fb ff               	call	0x463760 <.text+0x62760>
  4a4572: 59                           	pop	ecx
  4a4573: 59                           	pop	ecx
  4a4574: c7 44 24 04 01 00 00 00      	mov	dword ptr [esp + 0x4], 0x1
  4a457c: a1 64 9b 5e 00               	mov	eax, dword ptr [0x5e9b64]
  4a4581: 0f b7 0e                     	movzx	ecx, word ptr [esi]
  4a4584: 89 ca                        	mov	edx, ecx
  4a4586: c1 ea 05                     	shr	edx, 0x5
  4a4589: 8b 3d 64 9b 5e 00            	mov	edi, dword ptr [0x5e9b64]
  4a458f: 3b 17                        	cmp	edx, dword ptr [edi]
  4a4591: 73 0d                        	jae	0x4a45a0 <.text+0xa35a0>
  4a4593: bf 01 00 00 00               	mov	edi, 0x1
  4a4598: d3 e7                        	shl	edi, cl
  4a459a: 09 7c 90 04                  	or	dword ptr [eax + 4*edx + 0x4], edi
  4a459e: eb 0e                        	jmp	0x4a45ae <.text+0xa35ae>
  4a45a0: 6a 38                        	push	0x38
  4a45a2: 68 e8 eb 5a 00               	push	0x5aebe8
  4a45a7: e8 b4 f1 fb ff               	call	0x463760 <.text+0x62760>
  4a45ac: 59                           	pop	ecx
  4a45ad: 59                           	pop	ecx
  4a45ae: 39 de                        	cmp	esi, ebx
  4a45b0: 74 07                        	je	0x4a45b9 <.text+0xa35b9>
  4a45b2: 56                           	push	esi
  4a45b3: e8 38 2f 00 00               	call	0x4a74f0 <.text+0xa64f0>
  4a45b8: 59                           	pop	ecx
  4a45b9: 45                           	inc	ebp
  4a45ba: 66 3b 6b 08                  	cmp	bp, word ptr [ebx + 0x8]
  4a45be: 0f 82 1f ff ff ff            	jb	0x4a44e3 <.text+0xa34e3>
  4a45c4: 66 83 7c 24 04 00            	cmp	word ptr [esp + 0x4], 0x0
  4a45ca: 74 66                        	je	0x4a4632 <.text+0xa3632>
  4a45cc: 83 3d ec 8f 5e 00 00         	cmp	dword ptr [0x5e8fec], 0x0
  4a45d3: 75 13                        	jne	0x4a45e8 <.text+0xa35e8>
  4a45d5: 6a 12                        	push	0x12
  4a45d7: e8 04 c7 f9 ff               	call	0x440ce0 <.text+0x3fce0>
  4a45dc: 59                           	pop	ecx
  4a45dd: 89 c6                        	mov	esi, eax
  4a45df: c7 46 06 00 00 00 00         	mov	dword ptr [esi + 0x6], 0x0
  4a45e6: eb 12                        	jmp	0x4a45fa <.text+0xa35fa>
  4a45e8: 6a 12                        	push	0x12
  4a45ea: e8 f1 c6 f9 ff               	call	0x440ce0 <.text+0x3fce0>
  4a45ef: 59                           	pop	ecx
  4a45f0: 89 c6                        	mov	esi, eax
  4a45f2: a1 ec 8f 5e 00               	mov	eax, dword ptr [0x5e8fec]
  4a45f7: 89 46 06                     	mov	dword ptr [esi + 0x6], eax
  4a45fa: 89 35 ec 8f 5e 00            	mov	dword ptr [0x5e8fec], esi
  4a4600: 0f b7 0d 80 9d 5e 00         	movzx	ecx, word ptr [0x5e9d80]
  4a4607: 41                           	inc	ecx
  4a4608: 51                           	push	ecx
  4a4609: 8d 46 02                     	lea	eax, [esi + 0x2]
  4a460c: 50                           	push	eax
  4a460d: e8 9e 79 08 00               	call	0x52bfb0 <.text+0x12afb0>
  4a4612: 59                           	pop	ecx
  4a4613: 59                           	pop	ecx
  4a4614: 80 0e 01                     	or	byte ptr [esi], 0x1
  4a4617: 8b 56 02                     	mov	edx, dword ptr [esi + 0x2]
  4a461a: 52                           	push	edx
  4a461b: a1 64 9b 5e 00               	mov	eax, dword ptr [0x5e9b64]
  4a4620: 50                           	push	eax
  4a4621: e8 ca 77 08 00               	call	0x52bdf0 <.text+0x12adf0>
  4a4626: 59                           	pop	ecx
  4a4627: 59                           	pop	ecx
  4a4628: 89 5e 0a                     	mov	dword ptr [esi + 0xa], ebx
  4a462b: c7 46 0e 00 00 00 00         	mov	dword ptr [esi + 0xe], 0x0
  4a4632: 8b 5b 32                     	mov	ebx, dword ptr [ebx + 0x32]
  4a4635: 85 db                        	test	ebx, ebx
  4a4637: 0f 85 97 fe ff ff            	jne	0x4a44d4 <.text+0xa34d4>
  4a463d: 8b 2d ec 8f 5e 00            	mov	ebp, dword ptr [0x5e8fec]
  4a4643: 0f b7 05 80 9d 5e 00         	movzx	eax, word ptr [0x5e9d80]
  4a464a: 40                           	inc	eax
  4a464b: 50                           	push	eax
  4a464c: 68 a8 97 5e 00               	push	0x5e97a8
  4a4651: e8 5a 79 08 00               	call	0x52bfb0 <.text+0x12afb0>
  4a4656: 59                           	pop	ecx
  4a4657: 59                           	pop	ecx
  4a4658: 85 ed                        	test	ebp, ebp
  4a465a: 0f 84 85 00 00 00            	je	0x4a46e5 <.text+0xa36e5>
  4a4660: 8b 35 ec 8f 5e 00            	mov	esi, dword ptr [0x5e8fec]
  4a4666: 85 f6                        	test	esi, esi
  4a4668: 74 70                        	je	0x4a46da <.text+0xa36da>
  4a466a: 8d 80 00 00 00 00            	lea	eax, [eax]
  4a4670: 39 ee                        	cmp	esi, ebp
  4a4672: 74 5f                        	je	0x4a46d3 <.text+0xa36d3>
  4a4674: 8b 4e 0a                     	mov	ecx, dword ptr [esi + 0xa]
  4a4677: 0f b7 01                     	movzx	eax, word ptr [ecx]
  4a467a: 50                           	push	eax
  4a467b: 68 f4 eb 5a 00               	push	0x5aebf4
  4a4680: e8 0b 04 fb ff               	call	0x454a90 <.text+0x53a90>
  4a4685: 59                           	pop	ecx
  4a4686: 59                           	pop	ecx
  4a4687: 68 04 ec 5a 00               	push	0x5aec04
  4a468c: e8 ff 03 fb ff               	call	0x454a90 <.text+0x53a90>
  4a4691: 59                           	pop	ecx
  4a4692: 8b 46 02                     	mov	eax, dword ptr [esi + 0x2]
  4a4695: 50                           	push	eax
  4a4696: 68 18 ec 5a 00               	push	0x5aec18
  4a469b: e8 80 07 fb ff               	call	0x454e20 <.text+0x53e20>
  4a46a0: 59                           	pop	ecx
  4a46a1: 59                           	pop	ecx
  4a46a2: 68 1c ec 5a 00               	push	0x5aec1c
  4a46a7: e8 e4 03 fb ff               	call	0x454a90 <.text+0x53a90>
  4a46ac: 59                           	pop	ecx
  4a46ad: 8b 45 02                     	mov	eax, dword ptr [ebp + 0x2]
  4a46b0: 50                           	push	eax
  4a46b1: 68 18 ec 5a 00               	push	0x5aec18
  4a46b6: e8 65 07 fb ff               	call	0x454e20 <.text+0x53e20>
  4a46bb: 59                           	pop	ecx
  4a46bc: 59                           	pop	ecx
  4a46bd: 8b 56 02                     	mov	edx, dword ptr [esi + 0x2]
  4a46c0: 52                           	push	edx
  4a46c1: 8b 45 02                     	mov	eax, dword ptr [ebp + 0x2]
  4a46c4: 50                           	push	eax
  4a46c5: e8 a6 76 08 00               	call	0x52bd70 <.text+0x12ad70>
  4a46ca: 59                           	pop	ecx
  4a46cb: 59                           	pop	ecx
  4a46cc: 84 c0                        	test	al, al
  4a46ce: 74 03                        	je	0x4a46d3 <.text+0xa36d3>
  4a46d0: 80 26 fe                     	and	byte ptr [esi], -0x2
  4a46d3: 8b 76 06                     	mov	esi, dword ptr [esi + 0x6]
  4a46d6: 85 f6                        	test	esi, esi
  4a46d8: 75 96                        	jne	0x4a4670 <.text+0xa3670>
  4a46da: 8b 6d 06                     	mov	ebp, dword ptr [ebp + 0x6]
  4a46dd: 85 ed                        	test	ebp, ebp
  4a46df: 0f 85 7b ff ff ff            	jne	0x4a4660 <.text+0xa3660>
  4a46e5: 8b 1d ec 8f 5e 00            	mov	ebx, dword ptr [0x5e8fec]
  4a46eb: 85 db                        	test	ebx, ebx
  4a46ed: 74 5c                        	je	0x4a474b <.text+0xa374b>
  4a46ef: 90                           	nop
  4a46f0: 0f b6 03                     	movzx	eax, byte ptr [ebx]
  4a46f3: 83 e0 01                     	and	eax, 0x1
  4a46f6: 74 4c                        	je	0x4a4744 <.text+0xa3744>
  4a46f8: 8b 0d 64 9b 5e 00            	mov	ecx, dword ptr [0x5e9b64]
  4a46fe: 51                           	push	ecx
  4a46ff: 8b 43 02                     	mov	eax, dword ptr [ebx + 0x2]
  4a4702: 50                           	push	eax
  4a4703: e8 e8 76 08 00               	call	0x52bdf0 <.text+0x12adf0>
  4a4708: 59                           	pop	ecx
  4a4709: 59                           	pop	ecx
  4a470a: 8b 7b 0a                     	mov	edi, dword ptr [ebx + 0xa]
  4a470d: 0f b7 07                     	movzx	eax, word ptr [edi]
  4a4710: 50                           	push	eax
  4a4711: 68 2c ec 5a 00               	push	0x5aec2c
  4a4716: e8 75 03 fb ff               	call	0x454a90 <.text+0x53a90>
  4a471b: 59                           	pop	ecx
  4a471c: 59                           	pop	ecx
  4a471d: a1 64 9b 5e 00               	mov	eax, dword ptr [0x5e9b64]
  4a4722: 50                           	push	eax
  4a4723: 68 5c ec 5a 00               	push	0x5aec5c
  4a4728: e8 f3 06 fb ff               	call	0x454e20 <.text+0x53e20>
  4a472d: 59                           	pop	ecx
  4a472e: 59                           	pop	ecx
  4a472f: 57                           	push	edi
  4a4730: 0f be 05 18 49 5e 00         	movsx	eax, byte ptr [0x5e4918]
  4a4737: 50                           	push	eax
  4a4738: e8 c3 da ff ff               	call	0x4a2200 <.text+0xa1200>
  4a473d: 59                           	pop	ecx
  4a473e: 59                           	pop	ecx
  4a473f: e8 ac 77 fc ff               	call	0x46bef0 <.text+0x6aef0>
  4a4744: 8b 5b 06                     	mov	ebx, dword ptr [ebx + 0x6]
  4a4747: 85 db                        	test	ebx, ebx
  4a4749: 75 a5                        	jne	0x4a46f0 <.text+0xa36f0>
  4a474b: 83 c4 08                     	add	esp, 0x8
  4a474e: 5d                           	pop	ebp
  4a474f: 5f                           	pop	edi
  4a4750: 5e                           	pop	esi
  4a4751: 5b                           	pop	ebx
  4a4752: c3                           	ret
		...
  4a475f: 00 c6                        	add	dh, al
  4a4761: 05 69 a3 5e 00               	add	eax, 0x5ea369
  4a4766: 01 e8                        	add	eax, ebp
  4a4768: 44                           	inc	esp
  4a4769: fd                           	std
  4a476a: ff ff                        	<unknown>
  4a476c: e8 4f 37 fc ff               	call	0x467ec0 <.text+0x66ec0>
  4a4771: c3                           	ret
		...
  4a477e: 00 00                        	add	byte ptr [eax], al
  4a4780: 53                           	push	ebx
  4a4781: 56                           	push	esi
  4a4782: 57                           	push	edi
  4a4783: 8b 74 24 10                  	mov	esi, dword ptr [esp + 0x10]
  4a4787: 80 3e 03                     	cmp	byte ptr [esi], 0x3
  4a478a: 0f 85 b0 01 00 00            	jne	0x4a4940 <.text+0xa3940>
  4a4790: 8a 46 01                     	mov	al, byte ptr [esi + 0x1]
  4a4793: 3c 1e                        	cmp	al, 0x1e
  4a4795: 0f 85 07 01 00 00            	jne	0x4a48a2 <.text+0xa38a2>
  4a479b: 8b 5e 20                     	mov	ebx, dword ptr [esi + 0x20]
  4a479e: 8b 76 24                     	mov	esi, dword ptr [esi + 0x24]
  4a47a1: 80 3b 02                     	cmp	byte ptr [ebx], 0x2
  4a47a4: 0f 85 96 01 00 00            	jne	0x4a4940 <.text+0xa3940>
  4a47aa: 80 7b 01 04                  	cmp	byte ptr [ebx + 0x1], 0x4
  4a47ae: 0f 85 8c 01 00 00            	jne	0x4a4940 <.text+0xa3940>
  4a47b4: 8b 4b 20                     	mov	ecx, dword ptr [ebx + 0x20]
  4a47b7: 8b 41 02                     	mov	eax, dword ptr [ecx + 0x2]
  4a47ba: 25 00 01 00 00               	and	eax, 0x100
  4a47bf: 0f 84 7b 01 00 00            	je	0x4a4940 <.text+0xa3940>
  4a47c5: 80 3e 02                     	cmp	byte ptr [esi], 0x2
  4a47c8: 75 26                        	jne	0x4a47f0 <.text+0xa37f0>
  4a47ca: 80 7e 01 30                  	cmp	byte ptr [esi + 0x1], 0x30
  4a47ce: 75 20                        	jne	0x4a47f0 <.text+0xa37f0>
  4a47d0: 8b 46 20                     	mov	eax, dword ptr [esi + 0x20]
  4a47d3: 8b 78 0e                     	mov	edi, dword ptr [eax + 0xe]
  4a47d6: 8b 56 0e                     	mov	edx, dword ptr [esi + 0xe]
  4a47d9: 8a 0a                        	mov	cl, byte ptr [edx]
  4a47db: 3a 0f                        	cmp	cl, byte ptr [edi]
  4a47dd: 75 11                        	jne	0x4a47f0 <.text+0xa37f0>
  4a47df: 80 f9 01                     	cmp	cl, 0x1
  4a47e2: 75 0c                        	jne	0x4a47f0 <.text+0xa37f0>
  4a47e4: 8b 52 02                     	mov	edx, dword ptr [edx + 0x2]
  4a47e7: 8b 4f 02                     	mov	ecx, dword ptr [edi + 0x2]
  4a47ea: 39 ca                        	cmp	edx, ecx
  4a47ec: 7d 02                        	jge	0x4a47f0 <.text+0xa37f0>
  4a47ee: 89 c6                        	mov	esi, eax
  4a47f0: 80 3e 03                     	cmp	byte ptr [esi], 0x3
  4a47f3: 0f 85 47 01 00 00            	jne	0x4a4940 <.text+0xa3940>
  4a47f9: 8a 46 01                     	mov	al, byte ptr [esi + 0x1]
  4a47fc: 3c 0f                        	cmp	al, 0xf
  4a47fe: 74 08                        	je	0x4a4808 <.text+0xa3808>
  4a4800: 3c 10                        	cmp	al, 0x10
  4a4802: 0f 85 38 01 00 00            	jne	0x4a4940 <.text+0xa3940>
  4a4808: 56                           	push	esi
  4a4809: 53                           	push	ebx
  4a480a: e8 41 01 00 00               	call	0x4a4950 <.text+0xa3950>
  4a480f: 59                           	pop	ecx
  4a4810: 59                           	pop	ecx
  4a4811: 8b 4e 20                     	mov	ecx, dword ptr [esi + 0x20]
  4a4814: 80 39 02                     	cmp	byte ptr [ecx], 0x2
  4a4817: 75 09                        	jne	0x4a4822 <.text+0xa3822>
  4a4819: 80 79 01 30                  	cmp	byte ptr [ecx + 0x1], 0x30
  4a481d: 75 03                        	jne	0x4a4822 <.text+0xa3822>
  4a481f: 8b 49 20                     	mov	ecx, dword ptr [ecx + 0x20]
  4a4822: 80 39 02                     	cmp	byte ptr [ecx], 0x2
  4a4825: 0f 85 15 01 00 00            	jne	0x4a4940 <.text+0xa3940>
  4a482b: 80 79 01 04                  	cmp	byte ptr [ecx + 0x1], 0x4
  4a482f: 0f 85 0b 01 00 00            	jne	0x4a4940 <.text+0xa3940>
  4a4835: 8b 51 20                     	mov	edx, dword ptr [ecx + 0x20]
  4a4838: 8b 42 02                     	mov	eax, dword ptr [edx + 0x2]
  4a483b: 25 00 01 00 00               	and	eax, 0x100
  4a4840: 0f 84 fa 00 00 00            	je	0x4a4940 <.text+0xa3940>
  4a4846: 51                           	push	ecx
  4a4847: 53                           	push	ebx
  4a4848: e8 83 55 fc ff               	call	0x469dd0 <.text+0x68dd0>
  4a484d: 59                           	pop	ecx
  4a484e: 59                           	pop	ecx
  4a484f: 84 c0                        	test	al, al
  4a4851: 0f 84 e9 00 00 00            	je	0x4a4940 <.text+0xa3940>
  4a4857: 8b 46 24                     	mov	eax, dword ptr [esi + 0x24]
  4a485a: 80 38 03                     	cmp	byte ptr [eax], 0x3
  4a485d: 0f 85 dd 00 00 00            	jne	0x4a4940 <.text+0xa3940>
  4a4863: 8a 50 01                     	mov	dl, byte ptr [eax + 0x1]
  4a4866: 80 fa 0f                     	cmp	dl, 0xf
  4a4869: 75 09                        	jne	0x4a4874 <.text+0xa3874>
  4a486b: b8 01 00 00 00               	mov	eax, 0x1
  4a4870: 5f                           	pop	edi
  4a4871: 5e                           	pop	esi
  4a4872: 5b                           	pop	ebx
  4a4873: c3                           	ret
  4a4874: 80 fa 10                     	cmp	dl, 0x10
  4a4877: 75 09                        	jne	0x4a4882 <.text+0xa3882>
  4a4879: b8 01 00 00 00               	mov	eax, 0x1
  4a487e: 5f                           	pop	edi
  4a487f: 5e                           	pop	esi
  4a4880: 5b                           	pop	ebx
  4a4881: c3                           	ret
  4a4882: 80 fa 09                     	cmp	dl, 0x9
  4a4885: 75 09                        	jne	0x4a4890 <.text+0xa3890>
  4a4887: b8 01 00 00 00               	mov	eax, 0x1
  4a488c: 5f                           	pop	edi
  4a488d: 5e                           	pop	esi
  4a488e: 5b                           	pop	ebx
  4a488f: c3                           	ret
  4a4890: 80 fa 0b                     	cmp	dl, 0xb
  4a4893: 0f 85 a7 00 00 00            	jne	0x4a4940 <.text+0xa3940>
  4a4899: b8 01 00 00 00               	mov	eax, 0x1
  4a489e: 5f                           	pop	edi
  4a489f: 5e                           	pop	esi
  4a48a0: 5b                           	pop	ebx
  4a48a1: c3                           	ret
  4a48a2: 04 de                        	add	al, -0x22
  4a48a4: 3c 01                        	cmp	al, 0x1
  4a48a6: 0f 87 94 00 00 00            	ja	0x4a4940 <.text+0xa3940>
  4a48ac: 8b 4e 20                     	mov	ecx, dword ptr [esi + 0x20]
  4a48af: 8b 56 24                     	mov	edx, dword ptr [esi + 0x24]
  4a48b2: 80 3a 02                     	cmp	byte ptr [edx], 0x2
  4a48b5: 75 26                        	jne	0x4a48dd <.text+0xa38dd>
  4a48b7: 80 7a 01 30                  	cmp	byte ptr [edx + 0x1], 0x30
  4a48bb: 75 20                        	jne	0x4a48dd <.text+0xa38dd>
  4a48bd: 8b 42 20                     	mov	eax, dword ptr [edx + 0x20]
  4a48c0: 8b 78 0e                     	mov	edi, dword ptr [eax + 0xe]
  4a48c3: 8b 72 0e                     	mov	esi, dword ptr [edx + 0xe]
  4a48c6: 8a 1e                        	mov	bl, byte ptr [esi]
  4a48c8: 3a 1f                        	cmp	bl, byte ptr [edi]
  4a48ca: 75 11                        	jne	0x4a48dd <.text+0xa38dd>
  4a48cc: 80 fb 01                     	cmp	bl, 0x1
  4a48cf: 75 0c                        	jne	0x4a48dd <.text+0xa38dd>
  4a48d1: 8b 5e 02                     	mov	ebx, dword ptr [esi + 0x2]
  4a48d4: 8b 77 02                     	mov	esi, dword ptr [edi + 0x2]
  4a48d7: 39 f3                        	cmp	ebx, esi
  4a48d9: 7d 02                        	jge	0x4a48dd <.text+0xa38dd>
  4a48db: 89 c2                        	mov	edx, eax
  4a48dd: 80 39 02                     	cmp	byte ptr [ecx], 0x2
  4a48e0: 75 5e                        	jne	0x4a4940 <.text+0xa3940>
  4a48e2: 80 79 01 04                  	cmp	byte ptr [ecx + 0x1], 0x4
  4a48e6: 75 58                        	jne	0x4a4940 <.text+0xa3940>
  4a48e8: 8b 59 20                     	mov	ebx, dword ptr [ecx + 0x20]
  4a48eb: 8b 43 02                     	mov	eax, dword ptr [ebx + 0x2]
  4a48ee: 25 00 01 00 00               	and	eax, 0x100
  4a48f3: 74 4b                        	je	0x4a4940 <.text+0xa3940>
  4a48f5: 80 3a 03                     	cmp	byte ptr [edx], 0x3
  4a48f8: 75 46                        	jne	0x4a4940 <.text+0xa3940>
  4a48fa: 8a 42 01                     	mov	al, byte ptr [edx + 0x1]
  4a48fd: 3c 0f                        	cmp	al, 0xf
  4a48ff: 75 0f                        	jne	0x4a4910 <.text+0xa3910>
  4a4901: b8 01 00 00 00               	mov	eax, 0x1
  4a4906: 5f                           	pop	edi
  4a4907: 5e                           	pop	esi
  4a4908: 5b                           	pop	ebx
  4a4909: c3                           	ret
  4a490a: 8d 80 00 00 00 00            	lea	eax, [eax]
  4a4910: 3c 10                        	cmp	al, 0x10
  4a4912: 75 0c                        	jne	0x4a4920 <.text+0xa3920>
  4a4914: b8 01 00 00 00               	mov	eax, 0x1
  4a4919: 5f                           	pop	edi
  4a491a: 5e                           	pop	esi
  4a491b: 5b                           	pop	ebx
  4a491c: c3                           	ret
  4a491d: 8d 40 00                     	lea	eax, [eax]
  4a4920: 3c 09                        	cmp	al, 0x9
  4a4922: 75 0c                        	jne	0x4a4930 <.text+0xa3930>
  4a4924: b8 01 00 00 00               	mov	eax, 0x1
  4a4929: 5f                           	pop	edi
  4a492a: 5e                           	pop	esi
  4a492b: 5b                           	pop	ebx
  4a492c: c3                           	ret
  4a492d: 8d 40 00                     	lea	eax, [eax]
  4a4930: 3c 0b                        	cmp	al, 0xb
  4a4932: 75 0c                        	jne	0x4a4940 <.text+0xa3940>
  4a4934: b8 01 00 00 00               	mov	eax, 0x1
  4a4939: 5f                           	pop	edi
  4a493a: 5e                           	pop	esi
  4a493b: 5b                           	pop	ebx
  4a493c: c3                           	ret
  4a493d: 8d 40 00                     	lea	eax, [eax]
  4a4940: 31 c0                        	xor	eax, eax
  4a4942: 5f                           	pop	edi
  4a4943: 5e                           	pop	esi
  4a4944: 5b                           	pop	ebx
  4a4945: c3                           	ret
		...
  4a494e: 00 00                        	add	byte ptr [eax], al
  4a4950: 53                           	push	ebx
  4a4951: 56                           	push	esi
  4a4952: 57                           	push	edi
  4a4953: 55                           	push	ebp
  4a4954: 83 ec 08                     	sub	esp, 0x8
  4a4957: 8b 5c 24 20                  	mov	ebx, dword ptr [esp + 0x20]
  4a495b: 8b 73 20                     	mov	esi, dword ptr [ebx + 0x20]
  4a495e: 8b 7b 24                     	mov	edi, dword ptr [ebx + 0x24]
  4a4961: 80 7b 01 0f                  	cmp	byte ptr [ebx + 0x1], 0xf
  4a4965: 0f 85 82 00 00 00            	jne	0x4a49ed <.text+0xa39ed>
  4a496b: 8d 44 24 07                  	lea	eax, [esp + 0x7]
  4a496f: 50                           	push	eax
  4a4970: 53                           	push	ebx
  4a4971: 8b 44 24 24                  	mov	eax, dword ptr [esp + 0x24]
  4a4975: 50                           	push	eax
  4a4976: e8 85 00 00 00               	call	0x4a4a00 <.text+0xa3a00>
  4a497b: 83 c4 0c                     	add	esp, 0xc
  4a497e: 89 c5                        	mov	ebp, eax
  4a4980: 85 ed                        	test	ebp, ebp
  4a4982: 74 69                        	je	0x4a49ed <.text+0xa39ed>
  4a4984: 39 f5                        	cmp	ebp, esi
  4a4986: 74 65                        	je	0x4a49ed <.text+0xa39ed>
  4a4988: 80 7c 24 07 00               	cmp	byte ptr [esp + 0x7], 0x0
  4a498d: 74 2d                        	je	0x4a49bc <.text+0xa39bc>
  4a498f: 80 3e 03                     	cmp	byte ptr [esi], 0x3
  4a4992: 75 28                        	jne	0x4a49bc <.text+0xa39bc>
  4a4994: 8a 46 01                     	mov	al, byte ptr [esi + 0x1]
  4a4997: 3c 0f                        	cmp	al, 0xf
  4a4999: 74 04                        	je	0x4a499f <.text+0xa399f>
  4a499b: 3c 10                        	cmp	al, 0x10
  4a499d: 75 1d                        	jne	0x4a49bc <.text+0xa39bc>
  4a499f: 8b 55 0e                     	mov	edx, dword ptr [ebp + 0xe]
  4a49a2: 8b 47 0e                     	mov	eax, dword ptr [edi + 0xe]
  4a49a5: 39 c2                        	cmp	edx, eax
  4a49a7: 75 13                        	jne	0x4a49bc <.text+0xa39bc>
  4a49a9: 89 f0                        	mov	eax, esi
  4a49ab: 89 7b 20                     	mov	dword ptr [ebx + 0x20], edi
  4a49ae: 8b 73 20                     	mov	esi, dword ptr [ebx + 0x20]
  4a49b1: 89 43 24                     	mov	dword ptr [ebx + 0x24], eax
  4a49b4: 8b 7b 24                     	mov	edi, dword ptr [ebx + 0x24]
  4a49b7: c6 44 24 07 00               	mov	byte ptr [esp + 0x7], 0x0
  4a49bc: 80 7c 24 07 00               	cmp	byte ptr [esp + 0x7], 0x0
  4a49c1: 75 2a                        	jne	0x4a49ed <.text+0xa39ed>
  4a49c3: 80 3f 03                     	cmp	byte ptr [edi], 0x3
  4a49c6: 75 25                        	jne	0x4a49ed <.text+0xa39ed>
  4a49c8: 8a 47 01                     	mov	al, byte ptr [edi + 0x1]
  4a49cb: 3c 0f                        	cmp	al, 0xf
  4a49cd: 74 04                        	je	0x4a49d3 <.text+0xa39d3>
  4a49cf: 3c 10                        	cmp	al, 0x10
  4a49d1: 75 1a                        	jne	0x4a49ed <.text+0xa39ed>
  4a49d3: 8b 4d 0e                     	mov	ecx, dword ptr [ebp + 0xe]
  4a49d6: 8b 46 0e                     	mov	eax, dword ptr [esi + 0xe]
  4a49d9: 39 c1                        	cmp	ecx, eax
  4a49db: 75 10                        	jne	0x4a49ed <.text+0xa39ed>
  4a49dd: 56                           	push	esi
  4a49de: 55                           	push	ebp
  4a49df: e8 ac 3e fc ff               	call	0x468890 <.text+0x67890>
  4a49e4: 59                           	pop	ecx
  4a49e5: 59                           	pop	ecx
  4a49e6: 85 c0                        	test	eax, eax
  4a49e8: 74 03                        	je	0x4a49ed <.text+0xa39ed>
  4a49ea: 89 6b 20                     	mov	dword ptr [ebx + 0x20], ebp
  4a49ed: 83 c4 08                     	add	esp, 0x8
  4a49f0: 5d                           	pop	ebp
  4a49f1: 5f                           	pop	edi
  4a49f2: 5e                           	pop	esi
  4a49f3: 5b                           	pop	ebx
  4a49f4: c3                           	ret
		...
  4a49fd: 00 00                        	add	byte ptr [eax], al
  4a49ff: 00 53 56                     	add	byte ptr [ebx + 0x56], dl
  4a4a02: 57                           	push	edi
  4a4a03: 55                           	push	ebp
  4a4a04: 83 ec 10                     	sub	esp, 0x10
  4a4a07: 8b 6c 24 28                  	mov	ebp, dword ptr [esp + 0x28]
  4a4a0b: 8b 5c 24 2c                  	mov	ebx, dword ptr [esp + 0x2c]
  4a4a0f: 8b 7d 20                     	mov	edi, dword ptr [ebp + 0x20]
  4a4a12: 8b 45 24                     	mov	eax, dword ptr [ebp + 0x24]
  4a4a15: 89 44 24 08                  	mov	dword ptr [esp + 0x8], eax
  4a4a19: 8a 45 01                     	mov	al, byte ptr [ebp + 0x1]
  4a4a1c: 3c 0f                        	cmp	al, 0xf
  4a4a1e: 74 04                        	je	0x4a4a24 <.text+0xa3a24>
  4a4a20: 3c 10                        	cmp	al, 0x10
  4a4a22: 75 7d                        	jne	0x4a4aa1 <.text+0xa3aa1>
  4a4a24: 89 fe                        	mov	esi, edi
  4a4a26: eb 03                        	jmp	0x4a4a2b <.text+0xa3a2b>
  4a4a28: 8b 76 20                     	mov	esi, dword ptr [esi + 0x20]
  4a4a2b: 8a 06                        	mov	al, byte ptr [esi]
  4a4a2d: 3c 02                        	cmp	al, 0x2
  4a4a2f: 75 06                        	jne	0x4a4a37 <.text+0xa3a37>
  4a4a31: 80 7e 01 30                  	cmp	byte ptr [esi + 0x1], 0x30
  4a4a35: 74 f1                        	je	0x4a4a28 <.text+0xa3a28>
  4a4a37: 3c 02                        	cmp	al, 0x2
  4a4a39: 75 35                        	jne	0x4a4a70 <.text+0xa3a70>
  4a4a3b: 80 7e 01 04                  	cmp	byte ptr [esi + 0x1], 0x4
  4a4a3f: 75 2f                        	jne	0x4a4a70 <.text+0xa3a70>
  4a4a41: 8b 56 20                     	mov	edx, dword ptr [esi + 0x20]
  4a4a44: 8b 42 02                     	mov	eax, dword ptr [edx + 0x2]
  4a4a47: 25 00 01 00 00               	and	eax, 0x100
  4a4a4c: 74 22                        	je	0x4a4a70 <.text+0xa3a70>
  4a4a4e: 56                           	push	esi
  4a4a4f: ff 74 24 28                  	push	dword ptr [esp + 0x28]
  4a4a53: e8 78 53 fc ff               	call	0x469dd0 <.text+0x68dd0>
  4a4a58: 59                           	pop	ecx
  4a4a59: 59                           	pop	ecx
  4a4a5a: 84 c0                        	test	al, al
  4a4a5c: 74 12                        	je	0x4a4a70 <.text+0xa3a70>
  4a4a5e: c6 03 01                     	mov	byte ptr [ebx], 0x1
  4a4a61: 89 f8                        	mov	eax, edi
  4a4a63: 83 c4 10                     	add	esp, 0x10
  4a4a66: 5d                           	pop	ebp
  4a4a67: 5f                           	pop	edi
  4a4a68: 5e                           	pop	esi
  4a4a69: 5b                           	pop	ebx
  4a4a6a: c3                           	ret
  4a4a6b: 89 c0                        	mov	eax, eax
  4a4a6d: 8d 40 00                     	lea	eax, [eax]
  4a4a70: 80 3e 03                     	cmp	byte ptr [esi], 0x3
  4a4a73: 75 2c                        	jne	0x4a4aa1 <.text+0xa3aa1>
  4a4a75: 8a 46 01                     	mov	al, byte ptr [esi + 0x1]
  4a4a78: 3c 0f                        	cmp	al, 0xf
  4a4a7a: 74 04                        	je	0x4a4a80 <.text+0xa3a80>
  4a4a7c: 3c 10                        	cmp	al, 0x10
  4a4a7e: 75 21                        	jne	0x4a4aa1 <.text+0xa3aa1>
  4a4a80: 8d 44 24 0f                  	lea	eax, [esp + 0xf]
  4a4a84: 50                           	push	eax
  4a4a85: 56                           	push	esi
  4a4a86: ff 74 24 2c                  	push	dword ptr [esp + 0x2c]
  4a4a8a: e8 71 ff ff ff               	call	0x4a4a00 <.text+0xa3a00>
  4a4a8f: 83 c4 0c                     	add	esp, 0xc
  4a4a92: 85 c0                        	test	eax, eax
  4a4a94: 74 0b                        	je	0x4a4aa1 <.text+0xa3aa1>
  4a4a96: c6 03 01                     	mov	byte ptr [ebx], 0x1
  4a4a99: 83 c4 10                     	add	esp, 0x10
  4a4a9c: 5d                           	pop	ebp
  4a4a9d: 5f                           	pop	edi
  4a4a9e: 5e                           	pop	esi
  4a4a9f: 5b                           	pop	ebx
  4a4aa0: c3                           	ret
  4a4aa1: c6 03 00                     	mov	byte ptr [ebx], 0x0
  4a4aa4: 80 7d 01 0f                  	cmp	byte ptr [ebp + 0x1], 0xf
  4a4aa8: 75 76                        	jne	0x4a4b20 <.text+0xa3b20>
  4a4aaa: 8b 74 24 08                  	mov	esi, dword ptr [esp + 0x8]
  4a4aae: eb 03                        	jmp	0x4a4ab3 <.text+0xa3ab3>
  4a4ab0: 8b 76 20                     	mov	esi, dword ptr [esi + 0x20]
  4a4ab3: 8a 06                        	mov	al, byte ptr [esi]
  4a4ab5: 3c 02                        	cmp	al, 0x2
  4a4ab7: 75 06                        	jne	0x4a4abf <.text+0xa3abf>
  4a4ab9: 80 7e 01 30                  	cmp	byte ptr [esi + 0x1], 0x30
  4a4abd: 74 f1                        	je	0x4a4ab0 <.text+0xa3ab0>
  4a4abf: 3c 02                        	cmp	al, 0x2
  4a4ac1: 75 2f                        	jne	0x4a4af2 <.text+0xa3af2>
  4a4ac3: 80 7e 01 04                  	cmp	byte ptr [esi + 0x1], 0x4
  4a4ac7: 75 29                        	jne	0x4a4af2 <.text+0xa3af2>
  4a4ac9: 8b 4e 20                     	mov	ecx, dword ptr [esi + 0x20]
  4a4acc: 8b 41 02                     	mov	eax, dword ptr [ecx + 0x2]
  4a4acf: 25 00 01 00 00               	and	eax, 0x100
  4a4ad4: 74 1c                        	je	0x4a4af2 <.text+0xa3af2>
  4a4ad6: 56                           	push	esi
  4a4ad7: ff 74 24 28                  	push	dword ptr [esp + 0x28]
  4a4adb: e8 f0 52 fc ff               	call	0x469dd0 <.text+0x68dd0>
  4a4ae0: 59                           	pop	ecx
  4a4ae1: 59                           	pop	ecx
  4a4ae2: 84 c0                        	test	al, al
  4a4ae4: 74 0c                        	je	0x4a4af2 <.text+0xa3af2>
  4a4ae6: 8b 44 24 08                  	mov	eax, dword ptr [esp + 0x8]
  4a4aea: 83 c4 10                     	add	esp, 0x10
  4a4aed: 5d                           	pop	ebp
  4a4aee: 5f                           	pop	edi
  4a4aef: 5e                           	pop	esi
  4a4af0: 5b                           	pop	ebx
  4a4af1: c3                           	ret
  4a4af2: 80 3e 03                     	cmp	byte ptr [esi], 0x3
  4a4af5: 75 29                        	jne	0x4a4b20 <.text+0xa3b20>
  4a4af7: 8a 46 01                     	mov	al, byte ptr [esi + 0x1]
  4a4afa: 3c 0f                        	cmp	al, 0xf
  4a4afc: 74 04                        	je	0x4a4b02 <.text+0xa3b02>
  4a4afe: 3c 10                        	cmp	al, 0x10
  4a4b00: 75 1e                        	jne	0x4a4b20 <.text+0xa3b20>
  4a4b02: 8d 44 24 0f                  	lea	eax, [esp + 0xf]
  4a4b06: 50                           	push	eax
  4a4b07: 56                           	push	esi
  4a4b08: ff 74 24 2c                  	push	dword ptr [esp + 0x2c]
  4a4b0c: e8 ef fe ff ff               	call	0x4a4a00 <.text+0xa3a00>
  4a4b11: 83 c4 0c                     	add	esp, 0xc
  4a4b14: 85 c0                        	test	eax, eax
  4a4b16: 74 08                        	je	0x4a4b20 <.text+0xa3b20>
  4a4b18: 83 c4 10                     	add	esp, 0x10
  4a4b1b: 5d                           	pop	ebp
  4a4b1c: 5f                           	pop	edi
  4a4b1d: 5e                           	pop	esi
  4a4b1e: 5b                           	pop	ebx
  4a4b1f: c3                           	ret
  4a4b20: 31 c0                        	xor	eax, eax
  4a4b22: 83 c4 10                     	add	esp, 0x10
  4a4b25: 5d                           	pop	ebp
  4a4b26: 5f                           	pop	edi
  4a4b27: 5e                           	pop	esi
  4a4b28: 5b                           	pop	ebx
  4a4b29: c3                           	ret
  4a4b2a: 00 00                        	add	byte ptr [eax], al
  4a4b2c: 00 00                        	add	byte ptr [eax], al
  4a4b2e: 00 00                        	add	byte ptr [eax], al
  4a4b30: 53                           	push	ebx
  4a4b31: 56                           	push	esi
  4a4b32: 57                           	push	edi
  4a4b33: 55                           	push	ebp
  4a4b34: 83 ec 08                     	sub	esp, 0x8
  4a4b37: 8b 7c 24 1c                  	mov	edi, dword ptr [esp + 0x1c]
  4a4b3b: ff 74 24 20                  	push	dword ptr [esp + 0x20]
  4a4b3f: e8 ac 43 fc ff               	call	0x468ef0 <.text+0x67ef0>
  4a4b44: 59                           	pop	ecx
  4a4b45: c7 05 3c f3 5d 00 00 00 00 00	mov	dword ptr [0x5df33c], 0x0
  4a4b4f: a1 3c f3 5d 00               	mov	eax, dword ptr [0x5df33c]
  4a4b54: a3 40 f3 5d 00               	mov	dword ptr [0x5df340], eax
  4a4b59: 8b 47 20                     	mov	eax, dword ptr [edi + 0x20]
  4a4b5c: 50                           	push	eax
  4a4b5d: e8 fe 01 00 00               	call	0x4a4d60 <.text+0xa3d60>
  4a4b62: 59                           	pop	ecx
  4a4b63: 8b 47 24                     	mov	eax, dword ptr [edi + 0x24]
  4a4b66: 50                           	push	eax
  4a4b67: e8 f4 01 00 00               	call	0x4a4d60 <.text+0xa3d60>
  4a4b6c: 59                           	pop	ecx
  4a4b6d: c7 04 24 00 00 00 00         	mov	dword ptr [esp], 0x0
  4a4b74: 31 ed                        	xor	ebp, ebp
  4a4b76: 8b 35 40 f3 5d 00            	mov	esi, dword ptr [0x5df340]
  4a4b7c: 39 ee                        	cmp	esi, ebp
  4a4b7e: 0f 84 ab 00 00 00            	je	0x4a4c2f <.text+0xa3c2f>
  4a4b84: 8b 1e                        	mov	ebx, dword ptr [esi]
  4a4b86: 53                           	push	ebx
  4a4b87: e8 04 57 fc ff               	call	0x46a290 <.text+0x69290>
  4a4b8c: 59                           	pop	ecx
  4a4b8d: 84 c0                        	test	al, al
  4a4b8f: 0f 85 8c 00 00 00            	jne	0x4a4c21 <.text+0xa3c21>
  4a4b95: 8b 43 02                     	mov	eax, dword ptr [ebx + 0x2]
  4a4b98: 25 00 01 00 00               	and	eax, 0x100
  4a4b9d: 0f 84 7e 00 00 00            	je	0x4a4c21 <.text+0xa3c21>
  4a4ba3: 85 ed                        	test	ebp, ebp
  4a4ba5: 74 51                        	je	0x4a4bf8 <.text+0xa3bf8>
  4a4ba7: 6a 03                        	push	0x3
  4a4ba9: e8 c2 ad fc ff               	call	0x46f970 <.text+0x6e970>
  4a4bae: 59                           	pop	ecx
  4a4baf: 89 c7                        	mov	edi, eax
  4a4bb1: ff 05 00 90 5e 00            	inc	dword ptr [0x5e9000]
  4a4bb7: 66 a1 00 90 5e 00            	mov	ax, word ptr [0x5e9000]
  4a4bbd: 66 89 47 08                  	mov	word ptr [edi + 0x8], ax
  4a4bc1: c6 47 01 0f                  	mov	byte ptr [edi + 0x1], 0xf
  4a4bc5: 89 6f 20                     	mov	dword ptr [edi + 0x20], ebp
  4a4bc8: ff 74 24 20                  	push	dword ptr [esp + 0x20]
  4a4bcc: 53                           	push	ebx
  4a4bcd: e8 be 40 fc ff               	call	0x468c90 <.text+0x67c90>
  4a4bd2: 59                           	pop	ecx
  4a4bd3: 59                           	pop	ecx
  4a4bd4: 89 47 24                     	mov	dword ptr [edi + 0x24], eax
  4a4bd7: ff 74 24 20                  	push	dword ptr [esp + 0x20]
  4a4bdb: 57                           	push	edi
  4a4bdc: e8 df 42 fc ff               	call	0x468ec0 <.text+0x67ec0>
  4a4be1: 59                           	pop	ecx
  4a4be2: 59                           	pop	ecx
  4a4be3: 81 4f 02 00 01 00 00         	or	dword ptr [edi + 0x2], 0x100
  4a4bea: 83 4f 02 02                  	or	dword ptr [edi + 0x2], 0x2
  4a4bee: 8b 45 0e                     	mov	eax, dword ptr [ebp + 0xe]
  4a4bf1: 89 47 0e                     	mov	dword ptr [edi + 0xe], eax
  4a4bf4: 89 fd                        	mov	ebp, edi
  4a4bf6: eb 0e                        	jmp	0x4a4c06 <.text+0xa3c06>
  4a4bf8: ff 74 24 20                  	push	dword ptr [esp + 0x20]
  4a4bfc: 53                           	push	ebx
  4a4bfd: e8 8e 40 fc ff               	call	0x468c90 <.text+0x67c90>
  4a4c02: 59                           	pop	ecx
  4a4c03: 59                           	pop	ecx
  4a4c04: 89 c5                        	mov	ebp, eax
  4a4c06: 83 3c 24 00                  	cmp	dword ptr [esp], 0x0
  4a4c0a: 74 0b                        	je	0x4a4c17 <.text+0xa3c17>
  4a4c0c: 8b 4e 04                     	mov	ecx, dword ptr [esi + 0x4]
  4a4c0f: 8b 04 24                     	mov	eax, dword ptr [esp]
  4a4c12: 89 48 04                     	mov	dword ptr [eax + 0x4], ecx
  4a4c15: eb 0d                        	jmp	0x4a4c24 <.text+0xa3c24>
  4a4c17: 8b 46 04                     	mov	eax, dword ptr [esi + 0x4]
  4a4c1a: a3 40 f3 5d 00               	mov	dword ptr [0x5df340], eax
  4a4c1f: eb 03                        	jmp	0x4a4c24 <.text+0xa3c24>
  4a4c21: 89 34 24                     	mov	dword ptr [esp], esi
  4a4c24: 8b 76 04                     	mov	esi, dword ptr [esi + 0x4]
  4a4c27: 85 f6                        	test	esi, esi
  4a4c29: 0f 85 55 ff ff ff            	jne	0x4a4b84 <.text+0xa3b84>
  4a4c2f: 8b 1d 40 f3 5d 00            	mov	ebx, dword ptr [0x5df340]
  4a4c35: 31 f6                        	xor	esi, esi
  4a4c37: 39 f3                        	cmp	ebx, esi
  4a4c39: 0f 84 9e 00 00 00            	je	0x4a4cdd <.text+0xa3cdd>
  4a4c3f: 90                           	nop
  4a4c40: 8b 03                        	mov	eax, dword ptr [ebx]
  4a4c42: 89 44 24 04                  	mov	dword ptr [esp + 0x4], eax
  4a4c46: 50                           	push	eax
  4a4c47: e8 44 56 fc ff               	call	0x46a290 <.text+0x69290>
  4a4c4c: 59                           	pop	ecx
  4a4c4d: 84 c0                        	test	al, al
  4a4c4f: 75 7f                        	jne	0x4a4cd0 <.text+0xa3cd0>
  4a4c51: 85 ed                        	test	ebp, ebp
  4a4c53: 74 4d                        	je	0x4a4ca2 <.text+0xa3ca2>
  4a4c55: 6a 03                        	push	0x3
  4a4c57: e8 14 ad fc ff               	call	0x46f970 <.text+0x6e970>
  4a4c5c: 59                           	pop	ecx
  4a4c5d: 89 c7                        	mov	edi, eax
  4a4c5f: ff 05 00 90 5e 00            	inc	dword ptr [0x5e9000]
  4a4c65: 66 a1 00 90 5e 00            	mov	ax, word ptr [0x5e9000]
  4a4c6b: 66 89 47 08                  	mov	word ptr [edi + 0x8], ax
  4a4c6f: c6 47 01 0f                  	mov	byte ptr [edi + 0x1], 0xf
  4a4c73: 89 6f 20                     	mov	dword ptr [edi + 0x20], ebp
  4a4c76: ff 74 24 20                  	push	dword ptr [esp + 0x20]
  4a4c7a: ff 74 24 08                  	push	dword ptr [esp + 0x8]
  4a4c7e: e8 0d 40 fc ff               	call	0x468c90 <.text+0x67c90>
  4a4c83: 59                           	pop	ecx
  4a4c84: 59                           	pop	ecx
  4a4c85: 89 47 24                     	mov	dword ptr [edi + 0x24], eax
  4a4c88: ff 74 24 20                  	push	dword ptr [esp + 0x20]
  4a4c8c: 57                           	push	edi
  4a4c8d: e8 2e 42 fc ff               	call	0x468ec0 <.text+0x67ec0>
  4a4c92: 59                           	pop	ecx
  4a4c93: 59                           	pop	ecx
  4a4c94: 83 4f 02 02                  	or	dword ptr [edi + 0x2], 0x2
  4a4c98: 8b 45 0e                     	mov	eax, dword ptr [ebp + 0xe]
  4a4c9b: 89 47 0e                     	mov	dword ptr [edi + 0xe], eax
  4a4c9e: 89 fd                        	mov	ebp, edi
  4a4ca0: eb 11                        	jmp	0x4a4cb3 <.text+0xa3cb3>
  4a4ca2: ff 74 24 20                  	push	dword ptr [esp + 0x20]
  4a4ca6: ff 74 24 08                  	push	dword ptr [esp + 0x8]
  4a4caa: e8 e1 3f fc ff               	call	0x468c90 <.text+0x67c90>
  4a4caf: 59                           	pop	ecx
  4a4cb0: 59                           	pop	ecx
  4a4cb1: 89 c5                        	mov	ebp, eax
  4a4cb3: 85 f6                        	test	esi, esi
  4a4cb5: 74 09                        	je	0x4a4cc0 <.text+0xa3cc0>
  4a4cb7: 8b 43 04                     	mov	eax, dword ptr [ebx + 0x4]
  4a4cba: 89 46 04                     	mov	dword ptr [esi + 0x4], eax
  4a4cbd: eb 13                        	jmp	0x4a4cd2 <.text+0xa3cd2>
  4a4cbf: 90                           	nop
  4a4cc0: 8b 43 04                     	mov	eax, dword ptr [ebx + 0x4]
  4a4cc3: a3 40 f3 5d 00               	mov	dword ptr [0x5df340], eax
  4a4cc8: eb 08                        	jmp	0x4a4cd2 <.text+0xa3cd2>
  4a4cca: 8d 80 00 00 00 00            	lea	eax, [eax]
  4a4cd0: 89 de                        	mov	esi, ebx
  4a4cd2: 8b 5b 04                     	mov	ebx, dword ptr [ebx + 0x4]
  4a4cd5: 85 db                        	test	ebx, ebx
  4a4cd7: 0f 85 63 ff ff ff            	jne	0x4a4c40 <.text+0xa3c40>
  4a4cdd: 8b 35 40 f3 5d 00            	mov	esi, dword ptr [0x5df340]
  4a4ce3: 85 f6                        	test	esi, esi
  4a4ce5: 74 6e                        	je	0x4a4d55 <.text+0xa3d55>
  4a4ce7: 8b 3e                        	mov	edi, dword ptr [esi]
  4a4ce9: 85 ed                        	test	ebp, ebp
  4a4ceb: 74 53                        	je	0x4a4d40 <.text+0xa3d40>
  4a4ced: 6a 03                        	push	0x3
  4a4cef: e8 7c ac fc ff               	call	0x46f970 <.text+0x6e970>
  4a4cf4: 59                           	pop	ecx
  4a4cf5: 89 c3                        	mov	ebx, eax
  4a4cf7: ff 05 00 90 5e 00            	inc	dword ptr [0x5e9000]
  4a4cfd: 66 a1 00 90 5e 00            	mov	ax, word ptr [0x5e9000]
  4a4d03: 66 89 43 08                  	mov	word ptr [ebx + 0x8], ax
  4a4d07: c6 43 01 0f                  	mov	byte ptr [ebx + 0x1], 0xf
  4a4d0b: 89 6b 20                     	mov	dword ptr [ebx + 0x20], ebp
  4a4d0e: 89 7b 24                     	mov	dword ptr [ebx + 0x24], edi
  4a4d11: ff 74 24 20                  	push	dword ptr [esp + 0x20]
  4a4d15: 57                           	push	edi
  4a4d16: e8 75 3f fc ff               	call	0x468c90 <.text+0x67c90>
  4a4d1b: 59                           	pop	ecx
  4a4d1c: 59                           	pop	ecx
  4a4d1d: 89 43 24                     	mov	dword ptr [ebx + 0x24], eax
  4a4d20: ff 74 24 20                  	push	dword ptr [esp + 0x20]
  4a4d24: 53                           	push	ebx
  4a4d25: e8 96 41 fc ff               	call	0x468ec0 <.text+0x67ec0>
  4a4d2a: 59                           	pop	ecx
  4a4d2b: 59                           	pop	ecx
  4a4d2c: 83 4b 02 02                  	or	dword ptr [ebx + 0x2], 0x2
  4a4d30: 8b 45 0e                     	mov	eax, dword ptr [ebp + 0xe]
  4a4d33: 89 43 0e                     	mov	dword ptr [ebx + 0xe], eax
  4a4d36: 89 dd                        	mov	ebp, ebx
  4a4d38: eb 14                        	jmp	0x4a4d4e <.text+0xa3d4e>
  4a4d3a: 8d 80 00 00 00 00            	lea	eax, [eax]
  4a4d40: ff 74 24 20                  	push	dword ptr [esp + 0x20]
  4a4d44: 57                           	push	edi
  4a4d45: e8 46 3f fc ff               	call	0x468c90 <.text+0x67c90>
  4a4d4a: 59                           	pop	ecx
  4a4d4b: 59                           	pop	ecx
  4a4d4c: 89 c5                        	mov	ebp, eax
  4a4d4e: 8b 76 04                     	mov	esi, dword ptr [esi + 0x4]
  4a4d51: 85 f6                        	test	esi, esi
  4a4d53: 75 92                        	jne	0x4a4ce7 <.text+0xa3ce7>
  4a4d55: 89 e8                        	mov	eax, ebp
  4a4d57: 83 c4 08                     	add	esp, 0x8
  4a4d5a: 5d                           	pop	ebp
  4a4d5b: 5f                           	pop	edi
  4a4d5c: 5e                           	pop	esi
  4a4d5d: 5b                           	pop	ebx
  4a4d5e: c3                           	ret
  4a4d5f: 00 53 56                     	add	byte ptr [ebx + 0x56], dl
  4a4d62: 57                           	push	edi
  4a4d63: 8b 5c 24 10                  	mov	ebx, dword ptr [esp + 0x10]
  4a4d67: 80 3b 03                     	cmp	byte ptr [ebx], 0x3
  4a4d6a: 0f 85 f7 01 00 00            	jne	0x4a4f67 <.text+0xa3f67>
  4a4d70: 80 7b 01 0f                  	cmp	byte ptr [ebx + 0x1], 0xf
  4a4d74: 0f 85 ed 01 00 00            	jne	0x4a4f67 <.text+0xa3f67>
  4a4d7a: 8b 73 20                     	mov	esi, dword ptr [ebx + 0x20]
  4a4d7d: 80 3e 03                     	cmp	byte ptr [esi], 0x3
  4a4d80: 0f 85 ba 00 00 00            	jne	0x4a4e40 <.text+0xa3e40>
  4a4d86: 80 7e 01 0f                  	cmp	byte ptr [esi + 0x1], 0xf
  4a4d8a: 0f 85 b0 00 00 00            	jne	0x4a4e40 <.text+0xa3e40>
  4a4d90: 8b 7e 20                     	mov	edi, dword ptr [esi + 0x20]
  4a4d93: 80 3f 03                     	cmp	byte ptr [edi], 0x3
  4a4d96: 75 1c                        	jne	0x4a4db4 <.text+0xa3db4>
  4a4d98: 80 7f 01 0f                  	cmp	byte ptr [edi + 0x1], 0xf
  4a4d9c: 75 16                        	jne	0x4a4db4 <.text+0xa3db4>
  4a4d9e: 8b 47 20                     	mov	eax, dword ptr [edi + 0x20]
  4a4da1: 50                           	push	eax
  4a4da2: e8 b9 ff ff ff               	call	0x4a4d60 <.text+0xa3d60>
  4a4da7: 59                           	pop	ecx
  4a4da8: 8b 47 24                     	mov	eax, dword ptr [edi + 0x24]
  4a4dab: 50                           	push	eax
  4a4dac: e8 af ff ff ff               	call	0x4a4d60 <.text+0xa3d60>
  4a4db1: 59                           	pop	ecx
  4a4db2: eb 36                        	jmp	0x4a4dea <.text+0xa3dea>
  4a4db4: 6a 08                        	push	0x8
  4a4db6: e8 25 bf f9 ff               	call	0x440ce0 <.text+0x3fce0>
  4a4dbb: 59                           	pop	ecx
  4a4dbc: 89 38                        	mov	dword ptr [eax], edi
  4a4dbe: c7 40 04 00 00 00 00         	mov	dword ptr [eax + 0x4], 0x0
  4a4dc5: 83 3d 40 f3 5d 00 00         	cmp	dword ptr [0x5df340], 0x0
  4a4dcc: 74 12                        	je	0x4a4de0 <.text+0xa3de0>
  4a4dce: 8b 0d 3c f3 5d 00            	mov	ecx, dword ptr [0x5df33c]
  4a4dd4: 89 41 04                     	mov	dword ptr [ecx + 0x4], eax
  4a4dd7: eb 0c                        	jmp	0x4a4de5 <.text+0xa3de5>
  4a4dd9: 8d 84 20 00 00 00 00         	lea	eax, [eax + eiz]
  4a4de0: a3 40 f3 5d 00               	mov	dword ptr [0x5df340], eax
  4a4de5: a3 3c f3 5d 00               	mov	dword ptr [0x5df33c], eax
  4a4dea: 8b 7e 24                     	mov	edi, dword ptr [esi + 0x24]
  4a4ded: 80 3f 03                     	cmp	byte ptr [edi], 0x3
  4a4df0: 75 1e                        	jne	0x4a4e10 <.text+0xa3e10>
  4a4df2: 80 7f 01 0f                  	cmp	byte ptr [edi + 0x1], 0xf
  4a4df6: 75 18                        	jne	0x4a4e10 <.text+0xa3e10>
  4a4df8: 8b 47 20                     	mov	eax, dword ptr [edi + 0x20]
  4a4dfb: 50                           	push	eax
  4a4dfc: e8 5f ff ff ff               	call	0x4a4d60 <.text+0xa3d60>
  4a4e01: 59                           	pop	ecx
  4a4e02: 8b 47 24                     	mov	eax, dword ptr [edi + 0x24]
  4a4e05: 50                           	push	eax
  4a4e06: e8 55 ff ff ff               	call	0x4a4d60 <.text+0xa3d60>
  4a4e0b: 59                           	pop	ecx
  4a4e0c: eb 61                        	jmp	0x4a4e6f <.text+0xa3e6f>
  4a4e0e: 89 c0                        	mov	eax, eax
  4a4e10: 6a 08                        	push	0x8
  4a4e12: e8 c9 be f9 ff               	call	0x440ce0 <.text+0x3fce0>
  4a4e17: 59                           	pop	ecx
  4a4e18: 89 38                        	mov	dword ptr [eax], edi
  4a4e1a: c7 40 04 00 00 00 00         	mov	dword ptr [eax + 0x4], 0x0
  4a4e21: 83 3d 40 f3 5d 00 00         	cmp	dword ptr [0x5df340], 0x0
  4a4e28: 74 0b                        	je	0x4a4e35 <.text+0xa3e35>
  4a4e2a: 8b 35 3c f3 5d 00            	mov	esi, dword ptr [0x5df33c]
  4a4e30: 89 46 04                     	mov	dword ptr [esi + 0x4], eax
  4a4e33: eb 35                        	jmp	0x4a4e6a <.text+0xa3e6a>
  4a4e35: a3 40 f3 5d 00               	mov	dword ptr [0x5df340], eax
  4a4e3a: eb 2e                        	jmp	0x4a4e6a <.text+0xa3e6a>
  4a4e3c: 8d 44 20 00                  	lea	eax, [eax + eiz]
  4a4e40: 6a 08                        	push	0x8
  4a4e42: e8 99 be f9 ff               	call	0x440ce0 <.text+0x3fce0>
  4a4e47: 59                           	pop	ecx
  4a4e48: 89 30                        	mov	dword ptr [eax], esi
  4a4e4a: c7 40 04 00 00 00 00         	mov	dword ptr [eax + 0x4], 0x0
  4a4e51: 83 3d 40 f3 5d 00 00         	cmp	dword ptr [0x5df340], 0x0
  4a4e58: 74 0b                        	je	0x4a4e65 <.text+0xa3e65>
  4a4e5a: 8b 15 3c f3 5d 00            	mov	edx, dword ptr [0x5df33c]
  4a4e60: 89 42 04                     	mov	dword ptr [edx + 0x4], eax
  4a4e63: eb 05                        	jmp	0x4a4e6a <.text+0xa3e6a>
  4a4e65: a3 40 f3 5d 00               	mov	dword ptr [0x5df340], eax
  4a4e6a: a3 3c f3 5d 00               	mov	dword ptr [0x5df33c], eax
  4a4e6f: 8b 5b 24                     	mov	ebx, dword ptr [ebx + 0x24]
  4a4e72: 80 3b 03                     	cmp	byte ptr [ebx], 0x3
  4a4e75: 0f 85 bc 00 00 00            	jne	0x4a4f37 <.text+0xa3f37>
  4a4e7b: 80 7b 01 0f                  	cmp	byte ptr [ebx + 0x1], 0xf
  4a4e7f: 0f 85 b2 00 00 00            	jne	0x4a4f37 <.text+0xa3f37>
  4a4e85: 8b 7b 20                     	mov	edi, dword ptr [ebx + 0x20]
  4a4e88: 80 3f 03                     	cmp	byte ptr [edi], 0x3
  4a4e8b: 75 23                        	jne	0x4a4eb0 <.text+0xa3eb0>
  4a4e8d: 80 7f 01 0f                  	cmp	byte ptr [edi + 0x1], 0xf
  4a4e91: 75 1d                        	jne	0x4a4eb0 <.text+0xa3eb0>
  4a4e93: 8b 47 20                     	mov	eax, dword ptr [edi + 0x20]
  4a4e96: 50                           	push	eax
  4a4e97: e8 c4 fe ff ff               	call	0x4a4d60 <.text+0xa3d60>
  4a4e9c: 59                           	pop	ecx
  4a4e9d: 8b 47 24                     	mov	eax, dword ptr [edi + 0x24]
  4a4ea0: 50                           	push	eax
  4a4ea1: e8 ba fe ff ff               	call	0x4a4d60 <.text+0xa3d60>
  4a4ea6: 59                           	pop	ecx
  4a4ea7: eb 36                        	jmp	0x4a4edf <.text+0xa3edf>
  4a4ea9: 8d 84 20 00 00 00 00         	lea	eax, [eax + eiz]
  4a4eb0: 6a 08                        	push	0x8
  4a4eb2: e8 29 be f9 ff               	call	0x440ce0 <.text+0x3fce0>
  4a4eb7: 59                           	pop	ecx
  4a4eb8: 89 38                        	mov	dword ptr [eax], edi
  4a4eba: c7 40 04 00 00 00 00         	mov	dword ptr [eax + 0x4], 0x0
  4a4ec1: 83 3d 40 f3 5d 00 00         	cmp	dword ptr [0x5df340], 0x0
  4a4ec8: 74 0b                        	je	0x4a4ed5 <.text+0xa3ed5>
  4a4eca: 8b 0d 3c f3 5d 00            	mov	ecx, dword ptr [0x5df33c]
  4a4ed0: 89 41 04                     	mov	dword ptr [ecx + 0x4], eax
  4a4ed3: eb 05                        	jmp	0x4a4eda <.text+0xa3eda>
  4a4ed5: a3 40 f3 5d 00               	mov	dword ptr [0x5df340], eax
  4a4eda: a3 3c f3 5d 00               	mov	dword ptr [0x5df33c], eax
  4a4edf: 8b 73 24                     	mov	esi, dword ptr [ebx + 0x24]
  4a4ee2: 80 3e 03                     	cmp	byte ptr [esi], 0x3
  4a4ee5: 75 1f                        	jne	0x4a4f06 <.text+0xa3f06>
  4a4ee7: 80 7e 01 0f                  	cmp	byte ptr [esi + 0x1], 0xf
  4a4eeb: 75 19                        	jne	0x4a4f06 <.text+0xa3f06>
  4a4eed: 8b 46 20                     	mov	eax, dword ptr [esi + 0x20]
  4a4ef0: 50                           	push	eax
  4a4ef1: e8 6a fe ff ff               	call	0x4a4d60 <.text+0xa3d60>
  4a4ef6: 59                           	pop	ecx
  4a4ef7: 8b 46 24                     	mov	eax, dword ptr [esi + 0x24]
  4a4efa: 50                           	push	eax
  4a4efb: e8 60 fe ff ff               	call	0x4a4d60 <.text+0xa3d60>
  4a4f00: 59                           	pop	ecx
  4a4f01: e9 94 00 00 00               	jmp	0x4a4f9a <.text+0xa3f9a>
  4a4f06: 6a 08                        	push	0x8
  4a4f08: e8 d3 bd f9 ff               	call	0x440ce0 <.text+0x3fce0>
  4a4f0d: 59                           	pop	ecx
  4a4f0e: 89 30                        	mov	dword ptr [eax], esi
  4a4f10: c7 40 04 00 00 00 00         	mov	dword ptr [eax + 0x4], 0x0
  4a4f17: 83 3d 40 f3 5d 00 00         	cmp	dword ptr [0x5df340], 0x0
  4a4f1e: 74 10                        	je	0x4a4f30 <.text+0xa3f30>
  4a4f20: 8b 1d 3c f3 5d 00            	mov	ebx, dword ptr [0x5df33c]
  4a4f26: 89 43 04                     	mov	dword ptr [ebx + 0x4], eax
  4a4f29: eb 6a                        	jmp	0x4a4f95 <.text+0xa3f95>
  4a4f2b: 89 c0                        	mov	eax, eax
  4a4f2d: 8d 40 00                     	lea	eax, [eax]
  4a4f30: a3 40 f3 5d 00               	mov	dword ptr [0x5df340], eax
  4a4f35: eb 5e                        	jmp	0x4a4f95 <.text+0xa3f95>
  4a4f37: 6a 08                        	push	0x8
  4a4f39: e8 a2 bd f9 ff               	call	0x440ce0 <.text+0x3fce0>
  4a4f3e: 59                           	pop	ecx
  4a4f3f: 89 18                        	mov	dword ptr [eax], ebx
  4a4f41: c7 40 04 00 00 00 00         	mov	dword ptr [eax + 0x4], 0x0
  4a4f48: 83 3d 40 f3 5d 00 00         	cmp	dword ptr [0x5df340], 0x0
  4a4f4f: 74 0f                        	je	0x4a4f60 <.text+0xa3f60>
  4a4f51: 8b 15 3c f3 5d 00            	mov	edx, dword ptr [0x5df33c]
  4a4f57: 89 42 04                     	mov	dword ptr [edx + 0x4], eax
  4a4f5a: eb 39                        	jmp	0x4a4f95 <.text+0xa3f95>
  4a4f5c: 8d 44 20 00                  	lea	eax, [eax + eiz]
  4a4f60: a3 40 f3 5d 00               	mov	dword ptr [0x5df340], eax
  4a4f65: eb 2e                        	jmp	0x4a4f95 <.text+0xa3f95>
  4a4f67: 6a 08                        	push	0x8
  4a4f69: e8 72 bd f9 ff               	call	0x440ce0 <.text+0x3fce0>
  4a4f6e: 59                           	pop	ecx
  4a4f6f: 89 18                        	mov	dword ptr [eax], ebx
  4a4f71: c7 40 04 00 00 00 00         	mov	dword ptr [eax + 0x4], 0x0
  4a4f78: 83 3d 40 f3 5d 00 00         	cmp	dword ptr [0x5df340], 0x0
  4a4f7f: 74 0f                        	je	0x4a4f90 <.text+0xa3f90>
  4a4f81: 8b 0d 3c f3 5d 00            	mov	ecx, dword ptr [0x5df33c]
  4a4f87: 89 41 04                     	mov	dword ptr [ecx + 0x4], eax
  4a4f8a: eb 09                        	jmp	0x4a4f95 <.text+0xa3f95>
  4a4f8c: 8d 44 20 00                  	lea	eax, [eax + eiz]
  4a4f90: a3 40 f3 5d 00               	mov	dword ptr [0x5df340], eax
  4a4f95: a3 3c f3 5d 00               	mov	dword ptr [0x5df33c], eax
  4a4f9a: 5f                           	pop	edi
  4a4f9b: 5e                           	pop	esi
  4a4f9c: 5b                           	pop	ebx
  4a4f9d: c3                           	ret
  4a4f9e: 00 00                        	add	byte ptr [eax], al
  4a4fa0: 53                           	push	ebx
  4a4fa1: 56                           	push	esi
  4a4fa2: 55                           	push	ebp
  4a4fa3: 83 ec 08                     	sub	esp, 0x8
  4a4fa6: c7 05 c0 97 5e 00 00 00 00 00	mov	dword ptr [0x5e97c0], 0x0
  4a4fb0: a1 c0 97 5e 00               	mov	eax, dword ptr [0x5e97c0]
  4a4fb5: a3 4c 98 5e 00               	mov	dword ptr [0x5e984c], eax
  4a4fba: c7 05 cc 8f 5e 00 00 00 00 00	mov	dword ptr [0x5e8fcc], 0x0
  4a4fc4: 8b 35 68 98 5e 00            	mov	esi, dword ptr [0x5e9868]
  4a4fca: 85 f6                        	test	esi, esi
  4a4fcc: 0f 84 95 00 00 00            	je	0x4a5067 <.text+0xa4067>
  4a4fd2: 0f b7 0e                     	movzx	ecx, word ptr [esi]
  4a4fd5: 89 cd                        	mov	ebp, ecx
  4a4fd7: c1 fd 05                     	sar	ebp, 0x5
  4a4fda: a1 64 9b 5e 00               	mov	eax, dword ptr [0x5e9b64]
  4a4fdf: 3b 28                        	cmp	ebp, dword ptr [eax]
  4a4fe1: 73 79                        	jae	0x4a505c <.text+0xa405c>
  4a4fe3: ba 01 00 00 00               	mov	edx, 0x1
  4a4fe8: d3 e2                        	shl	edx, cl
  4a4fea: 23 54 a8 04                  	and	edx, dword ptr [eax + 4*ebp + 0x4]
  4a4fee: 74 6c                        	je	0x4a505c <.text+0xa405c>
  4a4ff0: 8b 5e 0e                     	mov	ebx, dword ptr [esi + 0xe]
  4a4ff3: 85 db                        	test	ebx, ebx
  4a4ff5: 74 65                        	je	0x4a505c <.text+0xa405c>
  4a4ff7: 80 3b 02                     	cmp	byte ptr [ebx], 0x2
  4a4ffa: 75 54                        	jne	0x4a5050 <.text+0xa4050>
  4a4ffc: 8a 43 01                     	mov	al, byte ptr [ebx + 0x1]
  4a4fff: 3c 04                        	cmp	al, 0x4
  4a5001: 74 04                        	je	0x4a5007 <.text+0xa4007>
  4a5003: 3c 04                        	cmp	al, 0x4
  4a5005: 75 49                        	jne	0x4a5050 <.text+0xa4050>
  4a5007: 8b 53 20                     	mov	edx, dword ptr [ebx + 0x20]
  4a500a: 80 3a 03                     	cmp	byte ptr [edx], 0x3
  4a500d: 75 41                        	jne	0x4a5050 <.text+0xa4050>
  4a500f: 80 7a 01 0f                  	cmp	byte ptr [edx + 0x1], 0xf
  4a5013: 75 3b                        	jne	0x4a5050 <.text+0xa4050>
  4a5015: 8d 04 24                     	lea	eax, [esp]
  4a5018: 50                           	push	eax
  4a5019: 52                           	push	edx
  4a501a: e8 11 fb ff ff               	call	0x4a4b30 <.text+0xa3b30>
  4a501f: 59                           	pop	ecx
  4a5020: 59                           	pop	ecx
  4a5021: 8b 43 20                     	mov	eax, dword ptr [ebx + 0x20]
  4a5024: 50                           	push	eax
  4a5025: e8 46 33 fc ff               	call	0x468370 <.text+0x67370>
  4a502a: 59                           	pop	ecx
  4a502b: 89 c5                        	mov	ebp, eax
  4a502d: 8b 4c 24 04                  	mov	ecx, dword ptr [esp + 0x4]
  4a5031: 51                           	push	ecx
  4a5032: 8b 43 20                     	mov	eax, dword ptr [ebx + 0x20]
  4a5035: 50                           	push	eax
  4a5036: e8 95 39 fc ff               	call	0x4689d0 <.text+0x679d0>
  4a503b: 59                           	pop	ecx
  4a503c: 59                           	pop	ecx
  4a503d: 55                           	push	ebp
  4a503e: 8b 54 24 08                  	mov	edx, dword ptr [esp + 0x8]
  4a5042: 52                           	push	edx
  4a5043: 8b 44 24 08                  	mov	eax, dword ptr [esp + 0x8]
  4a5047: 50                           	push	eax
  4a5048: e8 73 40 fc ff               	call	0x4690c0 <.text+0x680c0>
  4a504d: 83 c4 0c                     	add	esp, 0xc
  4a5050: 3b 5e 12                     	cmp	ebx, dword ptr [esi + 0x12]
  4a5053: 74 07                        	je	0x4a505c <.text+0xa405c>
  4a5055: 8b 5b 34                     	mov	ebx, dword ptr [ebx + 0x34]
  4a5058: 85 db                        	test	ebx, ebx
  4a505a: 75 9b                        	jne	0x4a4ff7 <.text+0xa3ff7>
  4a505c: 8b 76 32                     	mov	esi, dword ptr [esi + 0x32]
  4a505f: 85 f6                        	test	esi, esi
  4a5061: 0f 85 6b ff ff ff            	jne	0x4a4fd2 <.text+0xa3fd2>
  4a5067: e8 84 6e fc ff               	call	0x46bef0 <.text+0x6aef0>
  4a506c: e8 3f 1e 00 00               	call	0x4a6eb0 <.text+0xa5eb0>
  4a5071: 83 c4 08                     	add	esp, 0x8
  4a5074: 5d                           	pop	ebp
  4a5075: 5e                           	pop	esi
  4a5076: 5b                           	pop	ebx
  4a5077: c3                           	ret
		...
  4a5080: 53                           	push	ebx
  4a5081: 6a 08                        	push	0x8
  4a5083: e8 e8 a8 fc ff               	call	0x46f970 <.text+0x6e970>
  4a5088: 59                           	pop	ecx
  4a5089: 89 c3                        	mov	ebx, eax
  4a508b: 66 a1 00 90 5e 00            	mov	ax, word ptr [0x5e9000]
  4a5091: 66 89 43 08                  	mov	word ptr [ebx + 0x8], ax
  4a5095: ff 05 00 90 5e 00            	inc	dword ptr [0x5e9000]
  4a509b: e8 10 4d fc ff               	call	0x469db0 <.text+0x68db0>
  4a50a0: 89 43 20                     	mov	dword ptr [ebx + 0x20], eax
  4a50a3: 83 4b 02 01                  	or	dword ptr [ebx + 0x2], 0x1
  4a50a7: 8b 44 24 08                  	mov	eax, dword ptr [esp + 0x8]
  4a50ab: 50                           	push	eax
  4a50ac: 53                           	push	ebx
  4a50ad: e8 0e 3e fc ff               	call	0x468ec0 <.text+0x67ec0>
  4a50b2: 59                           	pop	ecx
  4a50b3: 59                           	pop	ecx
  4a50b4: 8b 43 20                     	mov	eax, dword ptr [ebx + 0x20]
  4a50b7: 5b                           	pop	ebx
  4a50b8: c3                           	ret
  4a50b9: 00 00                        	add	byte ptr [eax], al
  4a50bb: 00 00                        	add	byte ptr [eax], al
  4a50bd: 00 00                        	add	byte ptr [eax], al
  4a50bf: 00 53 56                     	add	byte ptr [ebx + 0x56], dl
  4a50c2: 57                           	push	edi
  4a50c3: 55                           	push	ebp
  4a50c4: 83 ec 28                     	sub	esp, 0x28
  4a50c7: c6 44 24 1c 00               	mov	byte ptr [esp + 0x1c], 0x0
  4a50cc: c6 44 24 08 00               	mov	byte ptr [esp + 0x8], 0x0
  4a50d1: c6 44 24 14 00               	mov	byte ptr [esp + 0x14], 0x0
  4a50d6: c7 44 24 0c 00 00 00 00      	mov	dword ptr [esp + 0xc], 0x0
  4a50de: 8b 44 24 3c                  	mov	eax, dword ptr [esp + 0x3c]
  4a50e2: a3 5c 97 5e 00               	mov	dword ptr [0x5e975c], eax
  4a50e7: 6a 3c                        	push	0x3c
  4a50e9: e8 f2 bb f9 ff               	call	0x440ce0 <.text+0x3fce0>
  4a50ee: 59                           	pop	ecx
  4a50ef: 89 c3                        	mov	ebx, eax
  4a50f1: 8b 44 24 3c                  	mov	eax, dword ptr [esp + 0x3c]
  4a50f5: 89 43 04                     	mov	dword ptr [ebx + 0x4], eax
  4a50f8: 8b 15 5c 97 5e 00            	mov	edx, dword ptr [0x5e975c]
  4a50fe: 8b 42 12                     	mov	eax, dword ptr [edx + 0x12]
  4a5101: 8b 70 24                     	mov	esi, dword ptr [eax + 0x24]
  4a5104: 89 73 18                     	mov	dword ptr [ebx + 0x18], esi
  4a5107: c7 03 00 00 00 00            	mov	dword ptr [ebx], 0x0
  4a510d: c7 43 08 00 00 00 00         	mov	dword ptr [ebx + 0x8], 0x0
  4a5114: c7 43 14 00 00 00 00         	mov	dword ptr [ebx + 0x14], 0x0
  4a511b: c7 43 1c 00 00 00 00         	mov	dword ptr [ebx + 0x1c], 0x0
  4a5122: 83 4b 20 ff                  	or	dword ptr [ebx + 0x20], -0x1
  4a5126: 83 4b 24 ff                  	or	dword ptr [ebx + 0x24], -0x1
  4a512a: c7 43 38 00 00 00 00         	mov	dword ptr [ebx + 0x38], 0x0
  4a5131: e8 6a 70 fc ff               	call	0x46c1a0 <.text+0x6b1a0>
  4a5136: 8a 16                        	mov	dl, byte ptr [esi]
  4a5138: 80 fa 03                     	cmp	dl, 0x3
  4a513b: 0f 85 4f 02 00 00            	jne	0x4a5390 <.text+0xa4390>
  4a5141: 8b 46 0e                     	mov	eax, dword ptr [esi + 0xe]
  4a5144: 80 38 01                     	cmp	byte ptr [eax], 0x1
  4a5147: 0f 85 43 02 00 00            	jne	0x4a5390 <.text+0xa4390>
  4a514d: c7 44 24 24 00 00 00 00      	mov	dword ptr [esp + 0x24], 0x0
  4a5155: 8b 7e 20                     	mov	edi, dword ptr [esi + 0x20]
  4a5158: 8b 76 24                     	mov	esi, dword ptr [esi + 0x24]
  4a515b: 57                           	push	edi
  4a515c: e8 cf 51 fc ff               	call	0x46a330 <.text+0x69330>
  4a5161: 59                           	pop	ecx
  4a5162: 85 c0                        	test	eax, eax
  4a5164: 75 24                        	jne	0x4a518a <.text+0xa418a>
  4a5166: 80 3f 02                     	cmp	byte ptr [edi], 0x2
  4a5169: 75 19                        	jne	0x4a5184 <.text+0xa4184>
  4a516b: 80 7f 01 30                  	cmp	byte ptr [edi + 0x1], 0x30
  4a516f: 75 13                        	jne	0x4a5184 <.text+0xa4184>
  4a5171: 8b 47 20                     	mov	eax, dword ptr [edi + 0x20]
  4a5174: 50                           	push	eax
  4a5175: e8 b6 51 fc ff               	call	0x46a330 <.text+0x69330>
  4a517a: 59                           	pop	ecx
  4a517b: 85 c0                        	test	eax, eax
  4a517d: 74 05                        	je	0x4a5184 <.text+0xa4184>
  4a517f: 8b 7f 20                     	mov	edi, dword ptr [edi + 0x20]
  4a5182: eb 02                        	jmp	0x4a5186 <.text+0xa4186>
  4a5184: 31 ff                        	xor	edi, edi
  4a5186: 85 ff                        	test	edi, edi
  4a5188: 74 40                        	je	0x4a51ca <.text+0xa41ca>
  4a518a: 6a 01                        	push	0x1
  4a518c: 6a 00                        	push	0x0
  4a518e: 8b 6f 20                     	mov	ebp, dword ptr [edi + 0x20]
  4a5191: 8b 4d 20                     	mov	ecx, dword ptr [ebp + 0x20]
  4a5194: 8b 41 0e                     	mov	eax, dword ptr [ecx + 0xe]
  4a5197: 50                           	push	eax
  4a5198: e8 f3 dc fb ff               	call	0x462e90 <.text+0x61e90>
  4a519d: 83 c4 0c                     	add	esp, 0xc
  4a51a0: 85 c0                        	test	eax, eax
  4a51a2: 74 26                        	je	0x4a51ca <.text+0xa41ca>
  4a51a4: 8b 15 70 90 5e 00            	mov	edx, dword ptr [0x5e9070]
  4a51aa: eb 07                        	jmp	0x4a51b3 <.text+0xa41b3>
  4a51ac: 8d 44 20 00                  	lea	eax, [eax + eiz]
  4a51b0: 8b 52 16                     	mov	edx, dword ptr [edx + 0x16]
  4a51b3: 85 d2                        	test	edx, edx
  4a51b5: 74 05                        	je	0x4a51bc <.text+0xa41bc>
  4a51b7: 39 42 02                     	cmp	dword ptr [edx + 0x2], eax
  4a51ba: 75 f4                        	jne	0x4a51b0 <.text+0xa41b0>
  4a51bc: 85 d2                        	test	edx, edx
  4a51be: 74 0a                        	je	0x4a51ca <.text+0xa41ca>
  4a51c0: 89 54 24 24                  	mov	dword ptr [esp + 0x24], edx
  4a51c4: 83 0b 01                     	or	dword ptr [ebx], 0x1
  4a51c7: 89 53 1c                     	mov	dword ptr [ebx + 0x1c], edx
  4a51ca: 56                           	push	esi
  4a51cb: e8 60 51 fc ff               	call	0x46a330 <.text+0x69330>
  4a51d0: 59                           	pop	ecx
  4a51d1: 85 c0                        	test	eax, eax
  4a51d3: 75 24                        	jne	0x4a51f9 <.text+0xa41f9>
  4a51d5: 80 3e 02                     	cmp	byte ptr [esi], 0x2
  4a51d8: 75 19                        	jne	0x4a51f3 <.text+0xa41f3>
  4a51da: 80 7e 01 30                  	cmp	byte ptr [esi + 0x1], 0x30
  4a51de: 75 13                        	jne	0x4a51f3 <.text+0xa41f3>
  4a51e0: 8b 46 20                     	mov	eax, dword ptr [esi + 0x20]
  4a51e3: 50                           	push	eax
  4a51e4: e8 47 51 fc ff               	call	0x46a330 <.text+0x69330>
  4a51e9: 59                           	pop	ecx
  4a51ea: 85 c0                        	test	eax, eax
  4a51ec: 74 05                        	je	0x4a51f3 <.text+0xa41f3>
  4a51ee: 8b 76 20                     	mov	esi, dword ptr [esi + 0x20]
  4a51f1: eb 02                        	jmp	0x4a51f5 <.text+0xa41f5>
  4a51f3: 31 f6                        	xor	esi, esi
  4a51f5: 85 f6                        	test	esi, esi
  4a51f7: 74 41                        	je	0x4a523a <.text+0xa423a>
  4a51f9: 6a 01                        	push	0x1
  4a51fb: 6a 00                        	push	0x0
  4a51fd: 8b 56 20                     	mov	edx, dword ptr [esi + 0x20]
  4a5200: 8b 6a 20                     	mov	ebp, dword ptr [edx + 0x20]
  4a5203: 8b 45 0e                     	mov	eax, dword ptr [ebp + 0xe]
  4a5206: 50                           	push	eax
  4a5207: e8 84 dc fb ff               	call	0x462e90 <.text+0x61e90>
  4a520c: 83 c4 0c                     	add	esp, 0xc
  4a520f: 85 c0                        	test	eax, eax
  4a5211: 74 27                        	je	0x4a523a <.text+0xa423a>
  4a5213: 8b 0d 70 90 5e 00            	mov	ecx, dword ptr [0x5e9070]
  4a5219: eb 08                        	jmp	0x4a5223 <.text+0xa4223>
  4a521b: 89 c0                        	mov	eax, eax
  4a521d: 8d 40 00                     	lea	eax, [eax]
  4a5220: 8b 49 16                     	mov	ecx, dword ptr [ecx + 0x16]
  4a5223: 85 c9                        	test	ecx, ecx
  4a5225: 74 05                        	je	0x4a522c <.text+0xa422c>
  4a5227: 39 41 02                     	cmp	dword ptr [ecx + 0x2], eax
  4a522a: 75 f4                        	jne	0x4a5220 <.text+0xa4220>
  4a522c: 85 c9                        	test	ecx, ecx
  4a522e: 74 0a                        	je	0x4a523a <.text+0xa423a>
  4a5230: 89 4c 24 24                  	mov	dword ptr [esp + 0x24], ecx
  4a5234: 83 23 fe                     	and	dword ptr [ebx], -0x2
  4a5237: 89 4b 1c                     	mov	dword ptr [ebx + 0x1c], ecx
  4a523a: 83 7c 24 24 00               	cmp	dword ptr [esp + 0x24], 0x0
  4a523f: 0f 84 3d 01 00 00            	je	0x4a5382 <.text+0xa4382>
  4a5245: 8b 44 24 24                  	mov	eax, dword ptr [esp + 0x24]
  4a5249: 83 78 0e 00                  	cmp	dword ptr [eax + 0xe], 0x0
  4a524d: 0f 8e 2f 01 00 00            	jle	0x4a5382 <.text+0xa4382>
  4a5253: 8b 03                        	mov	eax, dword ptr [ebx]
  4a5255: 83 e0 01                     	and	eax, 0x1
  4a5258: 74 4c                        	je	0x4a52a6 <.text+0xa42a6>
  4a525a: 8b 7b 18                     	mov	edi, dword ptr [ebx + 0x18]
  4a525d: 80 3f 03                     	cmp	byte ptr [edi], 0x3
  4a5260: 75 37                        	jne	0x4a5299 <.text+0xa4299>
  4a5262: 8a 47 01                     	mov	al, byte ptr [edi + 0x1]
  4a5265: 3c 13                        	cmp	al, 0x13
  4a5267: 74 06                        	je	0x4a526f <.text+0xa426f>
  4a5269: 04 ec                        	add	al, -0x14
  4a526b: 3c 02                        	cmp	al, 0x2
  4a526d: 77 2a                        	ja	0x4a5299 <.text+0xa4299>
  4a526f: 8b 47 20                     	mov	eax, dword ptr [edi + 0x20]
  4a5272: 85 c0                        	test	eax, eax
  4a5274: 74 23                        	je	0x4a5299 <.text+0xa4299>
  4a5276: 8b 48 0e                     	mov	ecx, dword ptr [eax + 0xe]
  4a5279: 85 c9                        	test	ecx, ecx
  4a527b: 74 1c                        	je	0x4a5299 <.text+0xa4299>
  4a527d: 80 39 01                     	cmp	byte ptr [ecx], 0x1
  4a5280: 75 17                        	jne	0x4a5299 <.text+0xa4299>
  4a5282: 8b 47 24                     	mov	eax, dword ptr [edi + 0x24]
  4a5285: 85 c0                        	test	eax, eax
  4a5287: 74 10                        	je	0x4a5299 <.text+0xa4299>
  4a5289: 8b 70 0e                     	mov	esi, dword ptr [eax + 0xe]
  4a528c: 85 f6                        	test	esi, esi
  4a528e: 74 09                        	je	0x4a5299 <.text+0xa4299>
  4a5290: 80 3e 01                     	cmp	byte ptr [esi], 0x1
  4a5293: 0f 84 b7 01 00 00            	je	0x4a5450 <.text+0xa4450>
  4a5299: 83 0b 20                     	or	dword ptr [ebx], 0x20
  4a529c: 89 d8                        	mov	eax, ebx
  4a529e: 83 c4 28                     	add	esp, 0x28
  4a52a1: 5d                           	pop	ebp
  4a52a2: 5f                           	pop	edi
  4a52a3: 5e                           	pop	esi
  4a52a4: 5b                           	pop	ebx
  4a52a5: c3                           	ret
  4a52a6: 8b 53 18                     	mov	edx, dword ptr [ebx + 0x18]
  4a52a9: 8a 02                        	mov	al, byte ptr [edx]
  4a52ab: 88 44 24 20                  	mov	byte ptr [esp + 0x20], al
  4a52af: 80 7c 24 20 03               	cmp	byte ptr [esp + 0x20], 0x3
  4a52b4: 75 5c                        	jne	0x4a5312 <.text+0xa4312>
  4a52b6: 8a 42 01                     	mov	al, byte ptr [edx + 0x1]
  4a52b9: 3c 14                        	cmp	al, 0x14
  4a52bb: 74 04                        	je	0x4a52c1 <.text+0xa42c1>
  4a52bd: 3c 16                        	cmp	al, 0x16
  4a52bf: 75 51                        	jne	0x4a5312 <.text+0xa4312>
  4a52c1: 8b 6a 20                     	mov	ebp, dword ptr [edx + 0x20]
  4a52c4: 85 ed                        	test	ebp, ebp
  4a52c6: 74 4a                        	je	0x4a5312 <.text+0xa4312>
  4a52c8: 8b 45 0e                     	mov	eax, dword ptr [ebp + 0xe]
  4a52cb: 85 c0                        	test	eax, eax
  4a52cd: 74 43                        	je	0x4a5312 <.text+0xa4312>
  4a52cf: 80 38 01                     	cmp	byte ptr [eax], 0x1
  4a52d2: 75 3e                        	jne	0x4a5312 <.text+0xa4312>
  4a52d4: 8b 42 24                     	mov	eax, dword ptr [edx + 0x24]
  4a52d7: 85 c0                        	test	eax, eax
  4a52d9: 74 37                        	je	0x4a5312 <.text+0xa4312>
  4a52db: 8b 48 0e                     	mov	ecx, dword ptr [eax + 0xe]
  4a52de: 85 c9                        	test	ecx, ecx
  4a52e0: 74 30                        	je	0x4a5312 <.text+0xa4312>
  4a52e2: 80 39 01                     	cmp	byte ptr [ecx], 0x1
  4a52e5: 75 2b                        	jne	0x4a5312 <.text+0xa4312>
  4a52e7: 89 42 20                     	mov	dword ptr [edx + 0x20], eax
  4a52ea: 8b 43 18                     	mov	eax, dword ptr [ebx + 0x18]
  4a52ed: 89 68 24                     	mov	dword ptr [eax + 0x24], ebp
  4a52f0: 8b 43 18                     	mov	eax, dword ptr [ebx + 0x18]
  4a52f3: 8a 50 01                     	mov	dl, byte ptr [eax + 0x1]
  4a52f6: 80 fa 14                     	cmp	dl, 0x14
  4a52f9: 75 06                        	jne	0x4a5301 <.text+0xa4301>
  4a52fb: c6 40 01 13                  	mov	byte ptr [eax + 0x1], 0x13
  4a52ff: eb 09                        	jmp	0x4a530a <.text+0xa430a>
  4a5301: 80 fa 16                     	cmp	dl, 0x16
  4a5304: 75 04                        	jne	0x4a530a <.text+0xa430a>
  4a5306: c6 40 01 15                  	mov	byte ptr [eax + 0x1], 0x15
  4a530a: 83 0b 01                     	or	dword ptr [ebx], 0x1
  4a530d: e9 3e 01 00 00               	jmp	0x4a5450 <.text+0xa4450>
  4a5312: 80 7c 24 20 03               	cmp	byte ptr [esp + 0x20], 0x3
  4a5317: 75 5c                        	jne	0x4a5375 <.text+0xa4375>
  4a5319: 8a 42 01                     	mov	al, byte ptr [edx + 0x1]
  4a531c: 3c 13                        	cmp	al, 0x13
  4a531e: 74 04                        	je	0x4a5324 <.text+0xa4324>
  4a5320: 3c 15                        	cmp	al, 0x15
  4a5322: 75 51                        	jne	0x4a5375 <.text+0xa4375>
  4a5324: 8b 72 20                     	mov	esi, dword ptr [edx + 0x20]
  4a5327: 85 f6                        	test	esi, esi
  4a5329: 74 4a                        	je	0x4a5375 <.text+0xa4375>
  4a532b: 8b 46 0e                     	mov	eax, dword ptr [esi + 0xe]
  4a532e: 85 c0                        	test	eax, eax
  4a5330: 74 43                        	je	0x4a5375 <.text+0xa4375>
  4a5332: 80 38 01                     	cmp	byte ptr [eax], 0x1
  4a5335: 75 3e                        	jne	0x4a5375 <.text+0xa4375>
  4a5337: 8b 42 24                     	mov	eax, dword ptr [edx + 0x24]
  4a533a: 85 c0                        	test	eax, eax
  4a533c: 74 37                        	je	0x4a5375 <.text+0xa4375>
  4a533e: 8b 78 0e                     	mov	edi, dword ptr [eax + 0xe]
  4a5341: 85 ff                        	test	edi, edi
  4a5343: 74 30                        	je	0x4a5375 <.text+0xa4375>
  4a5345: 80 3f 01                     	cmp	byte ptr [edi], 0x1
  4a5348: 75 2b                        	jne	0x4a5375 <.text+0xa4375>
  4a534a: 89 42 20                     	mov	dword ptr [edx + 0x20], eax
  4a534d: 8b 43 18                     	mov	eax, dword ptr [ebx + 0x18]
  4a5350: 89 70 24                     	mov	dword ptr [eax + 0x24], esi
  4a5353: 8b 43 18                     	mov	eax, dword ptr [ebx + 0x18]
  4a5356: 8a 48 01                     	mov	cl, byte ptr [eax + 0x1]
  4a5359: 80 f9 13                     	cmp	cl, 0x13
  4a535c: 75 06                        	jne	0x4a5364 <.text+0xa4364>
  4a535e: c6 40 01 14                  	mov	byte ptr [eax + 0x1], 0x14
  4a5362: eb 09                        	jmp	0x4a536d <.text+0xa436d>
  4a5364: 80 f9 15                     	cmp	cl, 0x15
  4a5367: 75 04                        	jne	0x4a536d <.text+0xa436d>
  4a5369: c6 40 01 16                  	mov	byte ptr [eax + 0x1], 0x16
  4a536d: 83 0b 01                     	or	dword ptr [ebx], 0x1
  4a5370: e9 db 00 00 00               	jmp	0x4a5450 <.text+0xa4450>
  4a5375: 83 0b 20                     	or	dword ptr [ebx], 0x20
  4a5378: 89 d8                        	mov	eax, ebx
  4a537a: 83 c4 28                     	add	esp, 0x28
  4a537d: 5d                           	pop	ebp
  4a537e: 5f                           	pop	edi
  4a537f: 5e                           	pop	esi
  4a5380: 5b                           	pop	ebx
  4a5381: c3                           	ret
  4a5382: 83 0b 10                     	or	dword ptr [ebx], 0x10
  4a5385: 89 d8                        	mov	eax, ebx
  4a5387: 83 c4 28                     	add	esp, 0x28
  4a538a: 5d                           	pop	ebp
  4a538b: 5f                           	pop	edi
  4a538c: 5e                           	pop	esi
  4a538d: 5b                           	pop	ebx
  4a538e: c3                           	ret
  4a538f: 90                           	nop
  4a5390: 80 fa 02                     	cmp	dl, 0x2
  4a5393: 0f 85 a7 00 00 00            	jne	0x4a5440 <.text+0xa4440>
  4a5399: 8b 46 0e                     	mov	eax, dword ptr [esi + 0xe]
  4a539c: 80 38 01                     	cmp	byte ptr [eax], 0x1
  4a539f: 0f 85 9b 00 00 00            	jne	0x4a5440 <.text+0xa4440>
  4a53a5: 8a 46 01                     	mov	al, byte ptr [esi + 0x1]
  4a53a8: 3c 02                        	cmp	al, 0x2
  4a53aa: 74 08                        	je	0x4a53b4 <.text+0xa43b4>
  4a53ac: 3c 03                        	cmp	al, 0x3
  4a53ae: 74 04                        	je	0x4a53b4 <.text+0xa43b4>
  4a53b0: 3c 01                        	cmp	al, 0x1
  4a53b2: 77 7c                        	ja	0x4a5430 <.text+0xa4430>
  4a53b4: 8b 46 20                     	mov	eax, dword ptr [esi + 0x20]
  4a53b7: 50                           	push	eax
  4a53b8: e8 73 4f fc ff               	call	0x46a330 <.text+0x69330>
  4a53bd: 59                           	pop	ecx
  4a53be: 85 c0                        	test	eax, eax
  4a53c0: 74 5e                        	je	0x4a5420 <.text+0xa4420>
  4a53c2: 6a 01                        	push	0x1
  4a53c4: 6a 00                        	push	0x0
  4a53c6: 8b 46 20                     	mov	eax, dword ptr [esi + 0x20]
  4a53c9: 8b 78 20                     	mov	edi, dword ptr [eax + 0x20]
  4a53cc: 8b 4f 20                     	mov	ecx, dword ptr [edi + 0x20]
  4a53cf: 8b 41 0e                     	mov	eax, dword ptr [ecx + 0xe]
  4a53d2: 50                           	push	eax
  4a53d3: e8 b8 da fb ff               	call	0x462e90 <.text+0x61e90>
  4a53d8: 83 c4 0c                     	add	esp, 0xc
  4a53db: 85 c0                        	test	eax, eax
  4a53dd: 74 34                        	je	0x4a5413 <.text+0xa4413>
  4a53df: 8b 15 70 90 5e 00            	mov	edx, dword ptr [0x5e9070]
  4a53e5: eb 03                        	jmp	0x4a53ea <.text+0xa43ea>
  4a53e7: 8b 52 16                     	mov	edx, dword ptr [edx + 0x16]
  4a53ea: 85 d2                        	test	edx, edx
  4a53ec: 74 05                        	je	0x4a53f3 <.text+0xa43f3>
  4a53ee: 39 42 02                     	cmp	dword ptr [edx + 0x2], eax
  4a53f1: 75 f4                        	jne	0x4a53e7 <.text+0xa43e7>
  4a53f3: 85 d2                        	test	edx, edx
  4a53f5: 74 0f                        	je	0x4a5406 <.text+0xa4406>
  4a53f7: 89 54 24 24                  	mov	dword ptr [esp + 0x24], edx
  4a53fb: 81 0b 00 00 01 00            	or	dword ptr [ebx], 0x10000
  4a5401: 89 53 1c                     	mov	dword ptr [ebx + 0x1c], edx
  4a5404: eb 4a                        	jmp	0x4a5450 <.text+0xa4450>
  4a5406: 83 0b 10                     	or	dword ptr [ebx], 0x10
  4a5409: 89 d8                        	mov	eax, ebx
  4a540b: 83 c4 28                     	add	esp, 0x28
  4a540e: 5d                           	pop	ebp
  4a540f: 5f                           	pop	edi
  4a5410: 5e                           	pop	esi
  4a5411: 5b                           	pop	ebx
  4a5412: c3                           	ret
  4a5413: 83 0b 10                     	or	dword ptr [ebx], 0x10
  4a5416: 89 d8                        	mov	eax, ebx
  4a5418: 83 c4 28                     	add	esp, 0x28
  4a541b: 5d                           	pop	ebp
  4a541c: 5f                           	pop	edi
  4a541d: 5e                           	pop	esi
  4a541e: 5b                           	pop	ebx
  4a541f: c3                           	ret
  4a5420: 83 0b 10                     	or	dword ptr [ebx], 0x10
  4a5423: 89 d8                        	mov	eax, ebx
  4a5425: 83 c4 28                     	add	esp, 0x28
  4a5428: 5d                           	pop	ebp
  4a5429: 5f                           	pop	edi
  4a542a: 5e                           	pop	esi
  4a542b: 5b                           	pop	ebx
  4a542c: c3                           	ret
  4a542d: 8d 40 00                     	lea	eax, [eax]
  4a5430: 83 0b 10                     	or	dword ptr [ebx], 0x10
  4a5433: 89 d8                        	mov	eax, ebx
  4a5435: 83 c4 28                     	add	esp, 0x28
  4a5438: 5d                           	pop	ebp
  4a5439: 5f                           	pop	edi
  4a543a: 5e                           	pop	esi
  4a543b: 5b                           	pop	ebx
  4a543c: c3                           	ret
  4a543d: 8d 40 00                     	lea	eax, [eax]
  4a5440: 83 0b 20                     	or	dword ptr [ebx], 0x20
  4a5443: 89 d8                        	mov	eax, ebx
  4a5445: 83 c4 28                     	add	esp, 0x28
  4a5448: 5d                           	pop	ebp
  4a5449: 5f                           	pop	edi
  4a544a: 5e                           	pop	esi
  4a544b: 5b                           	pop	ebx
  4a544c: c3                           	ret
  4a544d: 8d 40 00                     	lea	eax, [eax]
  4a5450: 31 c0                        	xor	eax, eax
  4a5452: 8b 2d 70 90 5e 00            	mov	ebp, dword ptr [0x5e9070]
  4a5458: 39 c5                        	cmp	ebp, eax
  4a545a: 74 0c                        	je	0x4a5468 <.text+0xa4468>
  4a545c: 8d 44 20 00                  	lea	eax, [eax + eiz]
  4a5460: 40                           	inc	eax
  4a5461: 8b 6d 16                     	mov	ebp, dword ptr [ebp + 0x16]
  4a5464: 85 ed                        	test	ebp, ebp
  4a5466: 75 f8                        	jne	0x4a5460 <.text+0xa4460>
  4a5468: 83 f8 01                     	cmp	eax, 0x1
  4a546b: 76 03                        	jbe	0x4a5470 <.text+0xa4470>
  4a546d: 83 0b 40                     	or	dword ptr [ebx], 0x40
  4a5470: 8b 73 1c                     	mov	esi, dword ptr [ebx + 0x1c]
  4a5473: 85 f6                        	test	esi, esi
  4a5475: 0f 84 07 01 00 00            	je	0x4a5582 <.text+0xa4582>
  4a547b: 8b 7e 0a                     	mov	edi, dword ptr [esi + 0xa]
  4a547e: 8a 07                        	mov	al, byte ptr [edi]
  4a5480: 3c 03                        	cmp	al, 0x3
  4a5482: 0f 85 9b 00 00 00            	jne	0x4a5523 <.text+0xa4523>
  4a5488: 8b 43 18                     	mov	eax, dword ptr [ebx + 0x18]
  4a548b: 80 38 03                     	cmp	byte ptr [eax], 0x3
  4a548e: 0f 85 d9 00 00 00            	jne	0x4a556d <.text+0xa456d>
  4a5494: 8a 50 01                     	mov	dl, byte ptr [eax + 0x1]
  4a5497: 80 fa 13                     	cmp	dl, 0x13
  4a549a: 74 09                        	je	0x4a54a5 <.text+0xa44a5>
  4a549c: 80 fa 15                     	cmp	dl, 0x15
  4a549f: 0f 85 c8 00 00 00            	jne	0x4a556d <.text+0xa456d>
  4a54a5: 8a 47 01                     	mov	al, byte ptr [edi + 0x1]
  4a54a8: 3c 22                        	cmp	al, 0x22
  4a54aa: 75 24                        	jne	0x4a54d0 <.text+0xa44d0>
  4a54ac: 83 7e 0e 01                  	cmp	dword ptr [esi + 0xe], 0x1
  4a54b0: 75 06                        	jne	0x4a54b8 <.text+0xa44b8>
  4a54b2: 81 0b 00 01 00 00            	or	dword ptr [ebx], 0x100
  4a54b8: 83 7e 0e 00                  	cmp	dword ptr [esi + 0xe], 0x0
  4a54bc: 0f 8e ab 00 00 00            	jle	0x4a556d <.text+0xa456d>
  4a54c2: 81 0b 00 04 00 00            	or	dword ptr [ebx], 0x400
  4a54c8: e9 a0 00 00 00               	jmp	0x4a556d <.text+0xa456d>
  4a54cd: 8d 40 00                     	lea	eax, [eax]
  4a54d0: 3c 1e                        	cmp	al, 0x1e
  4a54d2: 0f 85 95 00 00 00            	jne	0x4a556d <.text+0xa456d>
  4a54d8: 8b 47 24                     	mov	eax, dword ptr [edi + 0x24]
  4a54db: 80 38 03                     	cmp	byte ptr [eax], 0x3
  4a54de: 0f 85 89 00 00 00            	jne	0x4a556d <.text+0xa456d>
  4a54e4: 80 78 01 0f                  	cmp	byte ptr [eax + 0x1], 0xf
  4a54e8: 0f 85 7f 00 00 00            	jne	0x4a556d <.text+0xa456d>
  4a54ee: 8b 70 24                     	mov	esi, dword ptr [eax + 0x24]
  4a54f1: 56                           	push	esi
  4a54f2: e8 99 4d fc ff               	call	0x46a290 <.text+0x69290>
  4a54f7: 59                           	pop	ecx
  4a54f8: 84 c0                        	test	al, al
  4a54fa: 74 71                        	je	0x4a556d <.text+0xa456d>
  4a54fc: 8b 4e 20                     	mov	ecx, dword ptr [esi + 0x20]
  4a54ff: 8b 41 0e                     	mov	eax, dword ptr [ecx + 0xe]
  4a5502: 85 c0                        	test	eax, eax
  4a5504: 75 67                        	jne	0x4a556d <.text+0xa456d>
  4a5506: 83 79 12 01                  	cmp	dword ptr [ecx + 0x12], 0x1
  4a550a: 75 06                        	jne	0x4a5512 <.text+0xa4512>
  4a550c: 81 0b 00 01 00 00            	or	dword ptr [ebx], 0x100
  4a5512: 8b 46 20                     	mov	eax, dword ptr [esi + 0x20]
  4a5515: 83 78 12 00                  	cmp	dword ptr [eax + 0x12], 0x0
  4a5519: 74 52                        	je	0x4a556d <.text+0xa456d>
  4a551b: 81 0b 00 04 00 00            	or	dword ptr [ebx], 0x400
  4a5521: eb 4a                        	jmp	0x4a556d <.text+0xa456d>
  4a5523: 3c 02                        	cmp	al, 0x2
  4a5525: 75 46                        	jne	0x4a556d <.text+0xa456d>
  4a5527: 8a 47 01                     	mov	al, byte ptr [edi + 0x1]
  4a552a: 3c 02                        	cmp	al, 0x2
  4a552c: 74 04                        	je	0x4a5532 <.text+0xa4532>
  4a552e: 84 c0                        	test	al, al
  4a5530: 75 18                        	jne	0x4a554a <.text+0xa454a>
  4a5532: 83 7e 0e 01                  	cmp	dword ptr [esi + 0xe], 0x1
  4a5536: 75 06                        	jne	0x4a553e <.text+0xa453e>
  4a5538: 81 0b 00 01 00 00            	or	dword ptr [ebx], 0x100
  4a553e: 83 7e 0e 00                  	cmp	dword ptr [esi + 0xe], 0x0
  4a5542: 7e 06                        	jle	0x4a554a <.text+0xa454a>
  4a5544: 81 0b 00 04 00 00            	or	dword ptr [ebx], 0x400
  4a554a: 8a 47 01                     	mov	al, byte ptr [edi + 0x1]
  4a554d: 3c 03                        	cmp	al, 0x3
  4a554f: 74 04                        	je	0x4a5555 <.text+0xa4555>
  4a5551: 3c 01                        	cmp	al, 0x1
  4a5553: 75 18                        	jne	0x4a556d <.text+0xa456d>
  4a5555: 83 7e 0e 01                  	cmp	dword ptr [esi + 0xe], 0x1
  4a5559: 75 06                        	jne	0x4a5561 <.text+0xa4561>
  4a555b: 81 0b 00 20 00 00            	or	dword ptr [ebx], 0x2000
  4a5561: 83 7e 0e 00                  	cmp	dword ptr [esi + 0xe], 0x0
  4a5565: 7e 06                        	jle	0x4a556d <.text+0xa456d>
  4a5567: 81 0b 00 40 00 00            	or	dword ptr [ebx], 0x4000
  4a556d: 0f b7 47 08                  	movzx	eax, word ptr [edi + 0x8]
  4a5571: 89 43 24                     	mov	dword ptr [ebx + 0x24], eax
  4a5574: 57                           	push	edi
  4a5575: e8 f6 2d fc ff               	call	0x468370 <.text+0x67370>
  4a557a: 59                           	pop	ecx
  4a557b: 0f b7 40 08                  	movzx	eax, word ptr [eax + 0x8]
  4a557f: 89 43 20                     	mov	dword ptr [ebx + 0x20], eax
  4a5582: 83 7c 24 24 00               	cmp	dword ptr [esp + 0x24], 0x0
  4a5587: 0f 84 a1 00 00 00            	je	0x4a562e <.text+0xa462e>
  4a558d: 8b 44 24 3c                  	mov	eax, dword ptr [esp + 0x3c]
  4a5591: 8b 50 12                     	mov	edx, dword ptr [eax + 0x12]
  4a5594: 8b 42 24                     	mov	eax, dword ptr [edx + 0x24]
  4a5597: 50                           	push	eax
  4a5598: e8 d3 2d fc ff               	call	0x468370 <.text+0x67370>
  4a559d: 59                           	pop	ecx
  4a559e: 81 0b 00 02 00 00            	or	dword ptr [ebx], 0x200
  4a55a4: 8b 2b                        	mov	ebp, dword ptr [ebx]
  4a55a6: 81 e5 00 00 01 00            	and	ebp, 0x10000
  4a55ac: 74 26                        	je	0x4a55d4 <.text+0xa45d4>
  4a55ae: 8b 7b 04                     	mov	edi, dword ptr [ebx + 0x4]
  4a55b1: 8b 4f 0e                     	mov	ecx, dword ptr [edi + 0xe]
  4a55b4: eb 14                        	jmp	0x4a55ca <.text+0xa45ca>
  4a55b6: 8a 11                        	mov	dl, byte ptr [ecx]
  4a55b8: 80 fa 08                     	cmp	dl, 0x8
  4a55bb: 74 0a                        	je	0x4a55c7 <.text+0xa45c7>
  4a55bd: 84 d2                        	test	dl, dl
  4a55bf: 74 06                        	je	0x4a55c7 <.text+0xa45c7>
  4a55c1: 81 23 ff fd ff ff            	and	dword ptr [ebx], 0xfffffdff
  4a55c7: 8b 49 34                     	mov	ecx, dword ptr [ecx + 0x34]
  4a55ca: 85 c9                        	test	ecx, ecx
  4a55cc: 74 60                        	je	0x4a562e <.text+0xa462e>
  4a55ce: 39 c1                        	cmp	ecx, eax
  4a55d0: 75 e4                        	jne	0x4a55b6 <.text+0xa45b6>
  4a55d2: eb 5a                        	jmp	0x4a562e <.text+0xa462e>
  4a55d4: 8b 4c 24 24                  	mov	ecx, dword ptr [esp + 0x24]
  4a55d8: 8b 71 0a                     	mov	esi, dword ptr [ecx + 0xa]
  4a55db: 8b 7e 34                     	mov	edi, dword ptr [esi + 0x34]
  4a55de: eb 14                        	jmp	0x4a55f4 <.text+0xa45f4>
  4a55e0: 8a 17                        	mov	dl, byte ptr [edi]
  4a55e2: 80 fa 08                     	cmp	dl, 0x8
  4a55e5: 74 0a                        	je	0x4a55f1 <.text+0xa45f1>
  4a55e7: 84 d2                        	test	dl, dl
  4a55e9: 74 06                        	je	0x4a55f1 <.text+0xa45f1>
  4a55eb: 81 23 ff fd ff ff            	and	dword ptr [ebx], 0xfffffdff
  4a55f1: 8b 7f 34                     	mov	edi, dword ptr [edi + 0x34]
  4a55f4: 85 ff                        	test	edi, edi
  4a55f6: 74 04                        	je	0x4a55fc <.text+0xa45fc>
  4a55f8: 39 c7                        	cmp	edi, eax
  4a55fa: 75 e4                        	jne	0x4a55e0 <.text+0xa45e0>
  4a55fc: 8b 4b 04                     	mov	ecx, dword ptr [ebx + 0x4]
  4a55ff: 8b 71 0e                     	mov	esi, dword ptr [ecx + 0xe]
  4a5602: eb 22                        	jmp	0x4a5626 <.text+0xa4626>
  4a5604: 0f b7 7e 08                  	movzx	edi, word ptr [esi + 0x8]
  4a5608: 3b 7b 20                     	cmp	edi, dword ptr [ebx + 0x20]
  4a560b: 7c 05                        	jl	0x4a5612 <.text+0xa4612>
  4a560d: 3b 7b 24                     	cmp	edi, dword ptr [ebx + 0x24]
  4a5610: 7e 11                        	jle	0x4a5623 <.text+0xa4623>
  4a5612: 8a 16                        	mov	dl, byte ptr [esi]
  4a5614: 80 fa 08                     	cmp	dl, 0x8
  4a5617: 74 0a                        	je	0x4a5623 <.text+0xa4623>
  4a5619: 84 d2                        	test	dl, dl
  4a561b: 74 06                        	je	0x4a5623 <.text+0xa4623>
  4a561d: 81 23 ff fd ff ff            	and	dword ptr [ebx], 0xfffffdff
  4a5623: 8b 76 34                     	mov	esi, dword ptr [esi + 0x34]
  4a5626: 85 f6                        	test	esi, esi
  4a5628: 74 04                        	je	0x4a562e <.text+0xa462e>
  4a562a: 39 c6                        	cmp	esi, eax
  4a562c: 75 d6                        	jne	0x4a5604 <.text+0xa4604>
  4a562e: a1 68 98 5e 00               	mov	eax, dword ptr [0x5e9868]
  4a5633: 89 44 24 04                  	mov	dword ptr [esp + 0x4], eax
  4a5637: 85 c0                        	test	eax, eax
  4a5639: 0f 84 d4 02 00 00            	je	0x4a5913 <.text+0xa4913>
  4a563f: 90                           	nop
  4a5640: 8b 44 24 04                  	mov	eax, dword ptr [esp + 0x4]
  4a5644: 0f b7 08                     	movzx	ecx, word ptr [eax]
  4a5647: 89 ce                        	mov	esi, ecx
  4a5649: c1 fe 05                     	sar	esi, 0x5
  4a564c: a1 64 9b 5e 00               	mov	eax, dword ptr [0x5e9b64]
  4a5651: 3b 30                        	cmp	esi, dword ptr [eax]
  4a5653: 0f 83 eb 01 00 00            	jae	0x4a5844 <.text+0xa4844>
  4a5659: ba 01 00 00 00               	mov	edx, 0x1
  4a565e: d3 e2                        	shl	edx, cl
  4a5660: 23 54 b0 04                  	and	edx, dword ptr [eax + 4*esi + 0x4]
  4a5664: 0f 84 da 01 00 00            	je	0x4a5844 <.text+0xa4844>
  4a566a: 8b 44 24 04                  	mov	eax, dword ptr [esp + 0x4]
  4a566e: 3b 44 24 3c                  	cmp	eax, dword ptr [esp + 0x3c]
  4a5672: 0f 84 cc 01 00 00            	je	0x4a5844 <.text+0xa4844>
  4a5678: 8b 68 0e                     	mov	ebp, dword ptr [eax + 0xe]
  4a567b: 85 ed                        	test	ebp, ebp
  4a567d: 0f 84 c1 01 00 00            	je	0x4a5844 <.text+0xa4844>
  4a5683: 8a 4d 00                     	mov	cl, byte ptr [ebp]
  4a5686: 80 f9 0b                     	cmp	cl, 0xb
  4a5689: 75 05                        	jne	0x4a5690 <.text+0xa4690>
  4a568b: c6 44 24 1c 01               	mov	byte ptr [esp + 0x1c], 0x1
  4a5690: 80 f9 04                     	cmp	cl, 0x4
  4a5693: 75 04                        	jne	0x4a5699 <.text+0xa4699>
  4a5695: fe 44 24 14                  	inc	byte ptr [esp + 0x14]
  4a5699: 80 7c 24 14 01               	cmp	byte ptr [esp + 0x14], 0x1
  4a569e: 72 05                        	jb	0x4a56a5 <.text+0xa46a5>
  4a56a0: c6 44 24 08 01               	mov	byte ptr [esp + 0x8], 0x1
  4a56a5: 80 f9 09                     	cmp	cl, 0x9
  4a56a8: 74 08                        	je	0x4a56b2 <.text+0xa46b2>
  4a56aa: 88 c8                        	mov	al, cl
  4a56ac: 04 fb                        	add	al, -0x5
  4a56ae: 3c 02                        	cmp	al, 0x2
  4a56b0: 77 05                        	ja	0x4a56b7 <.text+0xa46b7>
  4a56b2: c6 44 24 08 01               	mov	byte ptr [esp + 0x8], 0x1
  4a56b7: 80 f9 11                     	cmp	cl, 0x11
  4a56ba: 75 06                        	jne	0x4a56c2 <.text+0xa46c2>
  4a56bc: 81 0b 00 80 00 00            	or	dword ptr [ebx], 0x8000
  4a56c2: 8b 45 02                     	mov	eax, dword ptr [ebp + 0x2]
  4a56c5: 83 e0 02                     	and	eax, 0x2
  4a56c8: 75 54                        	jne	0x4a571e <.text+0xa471e>
  4a56ca: 8a 45 00                     	mov	al, byte ptr [ebp]
  4a56cd: 84 c0                        	test	al, al
  4a56cf: 74 4d                        	je	0x4a571e <.text+0xa471e>
  4a56d1: 3c 08                        	cmp	al, 0x8
  4a56d3: 74 49                        	je	0x4a571e <.text+0xa471e>
  4a56d5: 0f b6 45 01                  	movzx	eax, byte ptr [ebp + 0x1]
  4a56d9: 80 b8 a9 a2 5e 00 00         	cmp	byte ptr [eax + 0x5ea2a9], 0x0
  4a56e0: 75 05                        	jne	0x4a56e7 <.text+0xa46e7>
  4a56e2: 83 0b 08                     	or	dword ptr [ebx], 0x8
  4a56e5: eb 37                        	jmp	0x4a571e <.text+0xa471e>
  4a56e7: 0f b7 45 08                  	movzx	eax, word ptr [ebp + 0x8]
  4a56eb: 3b 43 20                     	cmp	eax, dword ptr [ebx + 0x20]
  4a56ee: 7c 05                        	jl	0x4a56f5 <.text+0xa46f5>
  4a56f0: 3b 43 24                     	cmp	eax, dword ptr [ebx + 0x24]
  4a56f3: 7e 29                        	jle	0x4a571e <.text+0xa471e>
  4a56f5: ff 44 24 0c                  	inc	dword ptr [esp + 0xc]
  4a56f9: 55                           	push	ebp
  4a56fa: e8 81 f0 ff ff               	call	0x4a4780 <.text+0xa3780>
  4a56ff: 59                           	pop	ecx
  4a5700: 85 c0                        	test	eax, eax
  4a5702: 74 0d                        	je	0x4a5711 <.text+0xa4711>
  4a5704: 83 7c 24 0c 01               	cmp	dword ptr [esp + 0xc], 0x1
  4a5709: 75 06                        	jne	0x4a5711 <.text+0xa4711>
  4a570b: 81 0b 00 00 04 00            	or	dword ptr [ebx], 0x40000
  4a5711: 83 7c 24 0c 01               	cmp	dword ptr [esp + 0xc], 0x1
  4a5716: 76 06                        	jbe	0x4a571e <.text+0xa471e>
  4a5718: 81 23 ff ff fb ff            	and	dword ptr [ebx], 0xfffbffff
  4a571e: 0f b7 45 08                  	movzx	eax, word ptr [ebp + 0x8]
  4a5722: 3b 43 20                     	cmp	eax, dword ptr [ebx + 0x20]
  4a5725: 7c 09                        	jl	0x4a5730 <.text+0xa4730>
  4a5727: 3b 43 24                     	cmp	eax, dword ptr [ebx + 0x24]
  4a572a: 0f 8e 00 01 00 00            	jle	0x4a5830 <.text+0xa4830>
  4a5730: 80 7d 00 01                  	cmp	byte ptr [ebp], 0x1
  4a5734: 75 41                        	jne	0x4a5777 <.text+0xa4777>
  4a5736: 8b 45 20                     	mov	eax, dword ptr [ebp + 0x20]
  4a5739: 80 38 38                     	cmp	byte ptr [eax], 0x38
  4a573c: 75 39                        	jne	0x4a5777 <.text+0xa4777>
  4a573e: 8b 48 0e                     	mov	ecx, dword ptr [eax + 0xe]
  4a5741: 8b 45 02                     	mov	eax, dword ptr [ebp + 0x2]
  4a5744: 89 c7                        	mov	edi, eax
  4a5746: 83 e7 20                     	and	edi, 0x20
  4a5749: 74 2c                        	je	0x4a5777 <.text+0xa4777>
  4a574b: 85 c9                        	test	ecx, ecx
  4a574d: 74 28                        	je	0x4a5777 <.text+0xa4777>
  4a574f: 8b 73 1c                     	mov	esi, dword ptr [ebx + 0x1c]
  4a5752: 8b 56 02                     	mov	edx, dword ptr [esi + 0x2]
  4a5755: 3b 4a 02                     	cmp	ecx, dword ptr [edx + 0x2]
  4a5758: 75 1d                        	jne	0x4a5777 <.text+0xa4777>
  4a575a: 89 c1                        	mov	ecx, eax
  4a575c: 83 e1 04                     	and	ecx, 0x4
  4a575f: 74 05                        	je	0x4a5766 <.text+0xa4766>
  4a5761: 83 e0 10                     	and	eax, 0x10
  4a5764: 74 11                        	je	0x4a5777 <.text+0xa4777>
  4a5766: 68 f0 ec 5a 00               	push	0x5aecf0
  4a576b: e8 20 f3 fa ff               	call	0x454a90 <.text+0x53a90>
  4a5770: 59                           	pop	ecx
  4a5771: 81 0b 00 08 00 00            	or	dword ptr [ebx], 0x800
  4a5777: 80 7d 00 03                  	cmp	byte ptr [ebp], 0x3
  4a577b: 75 58                        	jne	0x4a57d5 <.text+0xa47d5>
  4a577d: 80 7d 01 12                  	cmp	byte ptr [ebp + 0x1], 0x12
  4a5781: 75 52                        	jne	0x4a57d5 <.text+0xa47d5>
  4a5783: 8b 45 20                     	mov	eax, dword ptr [ebp + 0x20]
  4a5786: 50                           	push	eax
  4a5787: e8 a4 4b fc ff               	call	0x46a330 <.text+0x69330>
  4a578c: 59                           	pop	ecx
  4a578d: 89 c7                        	mov	edi, eax
  4a578f: 85 ff                        	test	edi, edi
  4a5791: 74 42                        	je	0x4a57d5 <.text+0xa47d5>
  4a5793: 8b 45 24                     	mov	eax, dword ptr [ebp + 0x24]
  4a5796: 50                           	push	eax
  4a5797: e8 f4 4a fc ff               	call	0x46a290 <.text+0x69290>
  4a579c: 59                           	pop	ecx
  4a579d: 84 c0                        	test	al, al
  4a579f: 74 34                        	je	0x4a57d5 <.text+0xa47d5>
  4a57a1: 8b 35 70 90 5e 00            	mov	esi, dword ptr [0x5e9070]
  4a57a7: 85 f6                        	test	esi, esi
  4a57a9: 74 2a                        	je	0x4a57d5 <.text+0xa47d5>
  4a57ab: 89 c0                        	mov	eax, eax
  4a57ad: 8d 40 00                     	lea	eax, [eax]
  4a57b0: 8b 46 02                     	mov	eax, dword ptr [esi + 0x2]
  4a57b3: 39 78 02                     	cmp	dword ptr [eax + 0x2], edi
  4a57b6: 75 16                        	jne	0x4a57ce <.text+0xa47ce>
  4a57b8: 8b 47 0a                     	mov	eax, dword ptr [edi + 0xa]
  4a57bb: 83 c0 0a                     	add	eax, 0xa
  4a57be: 50                           	push	eax
  4a57bf: 68 08 ed 5a 00               	push	0x5aed08
  4a57c4: e8 c7 f2 fa ff               	call	0x454a90 <.text+0x53a90>
  4a57c9: 59                           	pop	ecx
  4a57ca: 59                           	pop	ecx
  4a57cb: 80 0e 02                     	or	byte ptr [esi], 0x2
  4a57ce: 8b 76 16                     	mov	esi, dword ptr [esi + 0x16]
  4a57d1: 85 f6                        	test	esi, esi
  4a57d3: 75 db                        	jne	0x4a57b0 <.text+0xa47b0>
  4a57d5: 80 7d 00 03                  	cmp	byte ptr [ebp], 0x3
  4a57d9: 75 55                        	jne	0x4a5830 <.text+0xa4830>
  4a57db: 80 7d 01 19                  	cmp	byte ptr [ebp + 0x1], 0x19
  4a57df: 75 4f                        	jne	0x4a5830 <.text+0xa4830>
  4a57e1: 8b 45 20                     	mov	eax, dword ptr [ebp + 0x20]
  4a57e4: 50                           	push	eax
  4a57e5: e8 46 4b fc ff               	call	0x46a330 <.text+0x69330>
  4a57ea: 59                           	pop	ecx
  4a57eb: 89 c7                        	mov	edi, eax
  4a57ed: 85 ff                        	test	edi, edi
  4a57ef: 74 3f                        	je	0x4a5830 <.text+0xa4830>
  4a57f1: 8b 45 24                     	mov	eax, dword ptr [ebp + 0x24]
  4a57f4: 50                           	push	eax
  4a57f5: e8 96 4a fc ff               	call	0x46a290 <.text+0x69290>
  4a57fa: 59                           	pop	ecx
  4a57fb: 84 c0                        	test	al, al
  4a57fd: 74 31                        	je	0x4a5830 <.text+0xa4830>
  4a57ff: 8b 35 70 90 5e 00            	mov	esi, dword ptr [0x5e9070]
  4a5805: eb 21                        	jmp	0x4a5828 <.text+0xa4828>
  4a5807: 8b 46 02                     	mov	eax, dword ptr [esi + 0x2]
  4a580a: 39 78 02                     	cmp	dword ptr [eax + 0x2], edi
  4a580d: 75 16                        	jne	0x4a5825 <.text+0xa4825>
  4a580f: 8b 47 0a                     	mov	eax, dword ptr [edi + 0xa]
  4a5812: 83 c0 0a                     	add	eax, 0xa
  4a5815: 50                           	push	eax
  4a5816: 68 20 ed 5a 00               	push	0x5aed20
  4a581b: e8 70 f2 fa ff               	call	0x454a90 <.text+0x53a90>
  4a5820: 59                           	pop	ecx
  4a5821: 59                           	pop	ecx
  4a5822: 80 0e 01                     	or	byte ptr [esi], 0x1
  4a5825: 8b 76 16                     	mov	esi, dword ptr [esi + 0x16]
  4a5828: 85 f6                        	test	esi, esi
  4a582a: 74 04                        	je	0x4a5830 <.text+0xa4830>
  4a582c: 85 ff                        	test	edi, edi
  4a582e: 75 d7                        	jne	0x4a5807 <.text+0xa4807>
  4a5830: ff 43 38                     	inc	dword ptr [ebx + 0x38]
  4a5833: 8b 44 24 04                  	mov	eax, dword ptr [esp + 0x4]
  4a5837: 3b 68 12                     	cmp	ebp, dword ptr [eax + 0x12]
  4a583a: 74 08                        	je	0x4a5844 <.text+0xa4844>
  4a583c: 8b 6d 34                     	mov	ebp, dword ptr [ebp + 0x34]
  4a583f: e9 3f fe ff ff               	jmp	0x4a5683 <.text+0xa4683>
  4a5844: 80 7c 24 1c 00               	cmp	byte ptr [esp + 0x1c], 0x0
  4a5849: 74 03                        	je	0x4a584e <.text+0xa484e>
  4a584b: 83 0b 02                     	or	dword ptr [ebx], 0x2
  4a584e: 80 7c 24 08 00               	cmp	byte ptr [esp + 0x8], 0x0
  4a5853: 74 03                        	je	0x4a5858 <.text+0xa4858>
  4a5855: 83 0b 04                     	or	dword ptr [ebx], 0x4
  4a5858: 31 ed                        	xor	ebp, ebp
  4a585a: e9 87 00 00 00               	jmp	0x4a58e6 <.text+0xa48e6>
  4a585f: 90                           	nop
  4a5860: 8b 44 24 04                  	mov	eax, dword ptr [esp + 0x4]
  4a5864: 0f b7 10                     	movzx	edx, word ptr [eax]
  4a5867: 89 d7                        	mov	edi, edx
  4a5869: c1 ff 05                     	sar	edi, 0x5
  4a586c: a1 64 9b 5e 00               	mov	eax, dword ptr [0x5e9b64]
  4a5871: 8b 30                        	mov	esi, dword ptr [eax]
  4a5873: 39 f7                        	cmp	edi, esi
  4a5875: 73 6e                        	jae	0x4a58e5 <.text+0xa48e5>
  4a5877: 89 d1                        	mov	ecx, edx
  4a5879: b8 01 00 00 00               	mov	eax, 0x1
  4a587e: d3 e0                        	shl	eax, cl
  4a5880: 8b 0d 64 9b 5e 00            	mov	ecx, dword ptr [0x5e9b64]
  4a5886: 23 44 b9 04                  	and	eax, dword ptr [ecx + 4*edi + 0x4]
  4a588a: 74 59                        	je	0x4a58e5 <.text+0xa48e5>
  4a588c: 8b 44 24 04                  	mov	eax, dword ptr [esp + 0x4]
  4a5890: 8b 40 04                     	mov	eax, dword ptr [eax + 0x4]
  4a5893: 0f b7 0c 68                  	movzx	ecx, word ptr [eax + 2*ebp]
  4a5897: 89 c8                        	mov	eax, ecx
  4a5899: c1 f8 05                     	sar	eax, 0x5
  4a589c: 39 f0                        	cmp	eax, esi
  4a589e: 73 13                        	jae	0x4a58b3 <.text+0xa48b3>
  4a58a0: be 01 00 00 00               	mov	esi, 0x1
  4a58a5: d3 e6                        	shl	esi, cl
  4a58a7: 8b 3d 64 9b 5e 00            	mov	edi, dword ptr [0x5e9b64]
  4a58ad: 23 74 87 04                  	and	esi, dword ptr [edi + 4*eax + 0x4]
  4a58b1: 75 32                        	jne	0x4a58e5 <.text+0xa48e5>
  4a58b3: 51                           	push	ecx
  4a58b4: 52                           	push	edx
  4a58b5: 68 38 ed 5a 00               	push	0x5aed38
  4a58ba: e8 d1 f1 fa ff               	call	0x454a90 <.text+0x53a90>
  4a58bf: 83 c4 0c                     	add	esp, 0xc
  4a58c2: a1 64 9b 5e 00               	mov	eax, dword ptr [0x5e9b64]
  4a58c7: 50                           	push	eax
  4a58c8: 68 64 ed 5a 00               	push	0x5aed64
  4a58cd: e8 4e f5 fa ff               	call	0x454e20 <.text+0x53e20>
  4a58d2: 59                           	pop	ecx
  4a58d3: 59                           	pop	ecx
  4a58d4: 68 74 ed 5a 00               	push	0x5aed74
  4a58d9: e8 b2 f1 fa ff               	call	0x454a90 <.text+0x53a90>
  4a58de: 59                           	pop	ecx
  4a58df: 81 0b 00 10 00 00            	or	dword ptr [ebx], 0x1000
  4a58e5: 45                           	inc	ebp
  4a58e6: 8b 44 24 04                  	mov	eax, dword ptr [esp + 0x4]
  4a58ea: 0f b7 40 02                  	movzx	eax, word ptr [eax + 0x2]
  4a58ee: 39 c5                        	cmp	ebp, eax
  4a58f0: 73 0e                        	jae	0x4a5900 <.text+0xa4900>
  4a58f2: 8b 44 24 04                  	mov	eax, dword ptr [esp + 0x4]
  4a58f6: 3b 44 24 3c                  	cmp	eax, dword ptr [esp + 0x3c]
  4a58fa: 0f 85 60 ff ff ff            	jne	0x4a5860 <.text+0xa4860>
  4a5900: 8b 4c 24 04                  	mov	ecx, dword ptr [esp + 0x4]
  4a5904: 8b 41 32                     	mov	eax, dword ptr [ecx + 0x32]
  4a5907: 89 44 24 04                  	mov	dword ptr [esp + 0x4], eax
  4a590b: 85 c0                        	test	eax, eax
  4a590d: 0f 85 2d fd ff ff            	jne	0x4a5640 <.text+0xa4640>
  4a5913: 89 d8                        	mov	eax, ebx
  4a5915: 83 c4 28                     	add	esp, 0x28
  4a5918: 5d                           	pop	ebp
  4a5919: 5f                           	pop	edi
  4a591a: 5e                           	pop	esi
  4a591b: 5b                           	pop	ebx
  4a591c: c3                           	ret
  4a591d: 00 00                        	add	byte ptr [eax], al
  4a591f: 00 53 56                     	add	byte ptr [ebx + 0x56], dl
  4a5922: 57                           	push	edi
  4a5923: 55                           	push	ebp
  4a5924: 83 ec 08                     	sub	esp, 0x8
  4a5927: 8b 6c 24 1c                  	mov	ebp, dword ptr [esp + 0x1c]
  4a592b: 8b 5c 24 20                  	mov	ebx, dword ptr [esp + 0x20]
  4a592f: 8b 55 1c                     	mov	edx, dword ptr [ebp + 0x1c]
  4a5932: 85 d2                        	test	edx, edx
  4a5934: 75 0f                        	jne	0x4a5945 <.text+0xa4945>
  4a5936: c7 45 14 00 00 00 00         	mov	dword ptr [ebp + 0x14], 0x0
  4a593d: 83 c4 08                     	add	esp, 0x8
  4a5940: 5d                           	pop	ebp
  4a5941: 5f                           	pop	edi
  4a5942: 5e                           	pop	esi
  4a5943: 5b                           	pop	ebx
  4a5944: c3                           	ret
  4a5945: 8b 42 02                     	mov	eax, dword ptr [edx + 0x2]
  4a5948: 0f b7 08                     	movzx	ecx, word ptr [eax]
  4a594b: 8b 73 0e                     	mov	esi, dword ptr [ebx + 0xe]
  4a594e: 85 f6                        	test	esi, esi
  4a5950: 74 4e                        	je	0x4a59a0 <.text+0xa49a0>
  4a5952: 89 cf                        	mov	edi, ecx
  4a5954: c1 ef 05                     	shr	edi, 0x5
  4a5957: 89 7c 24 04                  	mov	dword ptr [esp + 0x4], edi
  4a595b: c7 04 24 01 00 00 00         	mov	dword ptr [esp], 0x1
  4a5962: d3 24 24                     	shl	dword ptr [esp], cl
  4a5965: a1 b0 9a 5e 00               	mov	eax, dword ptr [0x5e9ab0]
  4a596a: 50                           	push	eax
  4a596b: e8 60 64 08 00               	call	0x52bdd0 <.text+0x12add0>
  4a5970: 59                           	pop	ecx
  4a5971: 56                           	push	esi
  4a5972: e8 99 c7 fb ff               	call	0x462110 <.text+0x61110>
  4a5977: 59                           	pop	ecx
  4a5978: 8b 0d b0 9a 5e 00            	mov	ecx, dword ptr [0x5e9ab0]
  4a597e: 8b 44 24 04                  	mov	eax, dword ptr [esp + 0x4]
  4a5982: 3b 01                        	cmp	eax, dword ptr [ecx]
  4a5984: 73 0e                        	jae	0x4a5994 <.text+0xa4994>
  4a5986: 89 ca                        	mov	edx, ecx
  4a5988: 8b 44 ba 04                  	mov	eax, dword ptr [edx + 4*edi + 0x4]
  4a598c: 23 04 24                     	and	eax, dword ptr [esp]
  4a598f: 74 03                        	je	0x4a5994 <.text+0xa4994>
  4a5991: 89 75 14                     	mov	dword ptr [ebp + 0x14], esi
  4a5994: 3b 73 12                     	cmp	esi, dword ptr [ebx + 0x12]
  4a5997: 74 07                        	je	0x4a59a0 <.text+0xa49a0>
  4a5999: 8b 76 34                     	mov	esi, dword ptr [esi + 0x34]
  4a599c: 85 f6                        	test	esi, esi
  4a599e: 75 c5                        	jne	0x4a5965 <.text+0xa4965>
  4a59a0: 8b 45 14                     	mov	eax, dword ptr [ebp + 0x14]
  4a59a3: 85 c0                        	test	eax, eax
  4a59a5: 74 0c                        	je	0x4a59b3 <.text+0xa49b3>
  4a59a7: 80 38 03                     	cmp	byte ptr [eax], 0x3
  4a59aa: 74 07                        	je	0x4a59b3 <.text+0xa49b3>
  4a59ac: c7 45 14 00 00 00 00         	mov	dword ptr [ebp + 0x14], 0x0
  4a59b3: 83 c4 08                     	add	esp, 0x8
  4a59b6: 5d                           	pop	ebp
  4a59b7: 5f                           	pop	edi
  4a59b8: 5e                           	pop	esi
  4a59b9: 5b                           	pop	ebx
  4a59ba: c3                           	ret
  4a59bb: 00 00                        	add	byte ptr [eax], al
  4a59bd: 00 00                        	add	byte ptr [eax], al
  4a59bf: 00 53 56                     	add	byte ptr [ebx + 0x56], dl
  4a59c2: 55                           	push	ebp
  4a59c3: 8b 74 24 10                  	mov	esi, dword ptr [esp + 0x10]
  4a59c7: 8b 6c 24 14                  	mov	ebp, dword ptr [esp + 0x14]
  4a59cb: 8b 5c 24 1c                  	mov	ebx, dword ptr [esp + 0x1c]
  4a59cf: 8b 45 06                     	mov	eax, dword ptr [ebp + 0x6]
  4a59d2: 8b 08                        	mov	ecx, dword ptr [eax]
  4a59d4: 8b 51 20                     	mov	edx, dword ptr [ecx + 0x20]
  4a59d7: 8b 42 0e                     	mov	eax, dword ptr [edx + 0xe]
  4a59da: 50                           	push	eax
  4a59db: e8 50 b1 fc ff               	call	0x470b30 <.text+0x6fb30>
  4a59e0: 59                           	pop	ecx
  4a59e1: 85 c0                        	test	eax, eax
  4a59e3: 0f 85 08 01 00 00            	jne	0x4a5af1 <.text+0xa4af1>
  4a59e9: 8b 4e 20                     	mov	ecx, dword ptr [esi + 0x20]
  4a59ec: 8b 41 02                     	mov	eax, dword ptr [ecx + 0x2]
  4a59ef: 25 00 01 00 00               	and	eax, 0x100
  4a59f4: 0f 84 f7 00 00 00            	je	0x4a5af1 <.text+0xa4af1>
  4a59fa: 56                           	push	esi
  4a59fb: e8 40 28 fc ff               	call	0x468240 <.text+0x67240>
  4a5a00: 59                           	pop	ecx
  4a5a01: 85 c0                        	test	eax, eax
  4a5a03: 0f 85 e8 00 00 00            	jne	0x4a5af1 <.text+0xa4af1>
  4a5a09: 83 3d 70 98 5e 00 00         	cmp	dword ptr [0x5e9870], 0x0
  4a5a10: 75 0f                        	jne	0x4a5a21 <.text+0xa4a21>
  4a5a12: 6a 12                        	push	0x12
  4a5a14: e8 c7 b2 f9 ff               	call	0x440ce0 <.text+0x3fce0>
  4a5a19: 59                           	pop	ecx
  4a5a1a: a3 70 98 5e 00               	mov	dword ptr [0x5e9870], eax
  4a5a1f: eb 1a                        	jmp	0x4a5a3b <.text+0xa4a3b>
  4a5a21: 6a 12                        	push	0x12
  4a5a23: e8 b8 b2 f9 ff               	call	0x440ce0 <.text+0x3fce0>
  4a5a28: 59                           	pop	ecx
  4a5a29: 8b 15 d0 9a 5e 00            	mov	edx, dword ptr [0x5e9ad0]
  4a5a2f: 89 42 0e                     	mov	dword ptr [edx + 0xe], eax
  4a5a32: 8b 0d d0 9a 5e 00            	mov	ecx, dword ptr [0x5e9ad0]
  4a5a38: 8b 41 0e                     	mov	eax, dword ptr [ecx + 0xe]
  4a5a3b: a3 d0 9a 5e 00               	mov	dword ptr [0x5e9ad0], eax
  4a5a40: a1 d0 9a 5e 00               	mov	eax, dword ptr [0x5e9ad0]
  4a5a45: c6 00 10                     	mov	byte ptr [eax], 0x10
  4a5a48: a1 d0 9a 5e 00               	mov	eax, dword ptr [0x5e9ad0]
  4a5a4d: 89 70 02                     	mov	dword ptr [eax + 0x2], esi
  4a5a50: a1 d0 9a 5e 00               	mov	eax, dword ptr [0x5e9ad0]
  4a5a55: 89 68 0a                     	mov	dword ptr [eax + 0xa], ebp
  4a5a58: a1 d0 9a 5e 00               	mov	eax, dword ptr [0x5e9ad0]
  4a5a5d: c7 40 0e 00 00 00 00         	mov	dword ptr [eax + 0xe], 0x0
  4a5a64: a1 d0 9a 5e 00               	mov	eax, dword ptr [0x5e9ad0]
  4a5a69: c7 40 06 00 00 00 00         	mov	dword ptr [eax + 0x6], 0x0
  4a5a70: 6a 08                        	push	0x8
  4a5a72: e8 69 b2 f9 ff               	call	0x440ce0 <.text+0x3fce0>
  4a5a77: 59                           	pop	ecx
  4a5a78: 89 30                        	mov	dword ptr [eax], esi
  4a5a7a: c7 40 04 00 00 00 00         	mov	dword ptr [eax + 0x4], 0x0
  4a5a81: 8b 15 d0 9a 5e 00            	mov	edx, dword ptr [0x5e9ad0]
  4a5a87: 8b 4a 06                     	mov	ecx, dword ptr [edx + 0x6]
  4a5a8a: 85 c9                        	test	ecx, ecx
  4a5a8c: 75 07                        	jne	0x4a5a95 <.text+0xa4a95>
  4a5a8e: 89 d1                        	mov	ecx, edx
  4a5a90: 89 41 06                     	mov	dword ptr [ecx + 0x6], eax
  4a5a93: eb 0c                        	jmp	0x4a5aa1 <.text+0xa4aa1>
  4a5a95: 89 48 04                     	mov	dword ptr [eax + 0x4], ecx
  4a5a98: 8b 15 d0 9a 5e 00            	mov	edx, dword ptr [0x5e9ad0]
  4a5a9e: 89 42 06                     	mov	dword ptr [edx + 0x6], eax
  4a5aa1: 8b 4d 06                     	mov	ecx, dword ptr [ebp + 0x6]
  4a5aa4: 8b 31                        	mov	esi, dword ptr [ecx]
  4a5aa6: 8b 46 02                     	mov	eax, dword ptr [esi + 0x2]
  4a5aa9: 83 e0 04                     	and	eax, 0x4
  4a5aac: 74 15                        	je	0x4a5ac3 <.text+0xa4ac3>
  4a5aae: a1 d0 9a 5e 00               	mov	eax, dword ptr [0x5e9ad0]
  4a5ab3: 80 08 02                     	or	byte ptr [eax], 0x2
  4a5ab6: 8b 55 06                     	mov	edx, dword ptr [ebp + 0x6]
  4a5ab9: 8b 0a                        	mov	ecx, dword ptr [edx]
  4a5abb: 8b 41 02                     	mov	eax, dword ptr [ecx + 0x2]
  4a5abe: 83 e0 10                     	and	eax, 0x10
  4a5ac1: 74 08                        	je	0x4a5acb <.text+0xa4acb>
  4a5ac3: a1 d0 9a 5e 00               	mov	eax, dword ptr [0x5e9ad0]
  4a5ac8: 80 08 01                     	or	byte ptr [eax], 0x1
  4a5acb: 80 7c 24 18 00               	cmp	byte ptr [esp + 0x18], 0x0
  4a5ad0: 75 0c                        	jne	0x4a5ade <.text+0xa4ade>
  4a5ad2: 84 db                        	test	bl, bl
  4a5ad4: 74 08                        	je	0x4a5ade <.text+0xa4ade>
  4a5ad6: a1 d0 9a 5e 00               	mov	eax, dword ptr [0x5e9ad0]
  4a5adb: 80 08 08                     	or	byte ptr [eax], 0x8
  4a5ade: 80 7c 24 18 00               	cmp	byte ptr [esp + 0x18], 0x0
  4a5ae3: 75 04                        	jne	0x4a5ae9 <.text+0xa4ae9>
  4a5ae5: 84 db                        	test	bl, bl
  4a5ae7: 74 08                        	je	0x4a5af1 <.text+0xa4af1>
  4a5ae9: a1 d0 9a 5e 00               	mov	eax, dword ptr [0x5e9ad0]
  4a5aee: 80 20 ef                     	and	byte ptr [eax], -0x11
  4a5af1: 5d                           	pop	ebp
  4a5af2: 5e                           	pop	esi
  4a5af3: 5b                           	pop	ebx
  4a5af4: c3                           	ret
		...
  4a5afd: 00 00                        	add	byte ptr [eax], al
  4a5aff: 00 53 56                     	add	byte ptr [ebx + 0x56], dl
  4a5b02: 57                           	push	edi
  4a5b03: 55                           	push	ebp
  4a5b04: 8b 74 24 14                  	mov	esi, dword ptr [esp + 0x14]
  4a5b08: 8b 5c 24 18                  	mov	ebx, dword ptr [esp + 0x18]
  4a5b0c: 8b 6c 24 1c                  	mov	ebp, dword ptr [esp + 0x1c]
  4a5b10: 8a 45 00                     	mov	al, byte ptr [ebp]
  4a5b13: 85 f6                        	test	esi, esi
  4a5b15: 74 7f                        	je	0x4a5b96 <.text+0xa4b96>
  4a5b17: 0f b7 0e                     	movzx	ecx, word ptr [esi]
  4a5b1a: 89 cf                        	mov	edi, ecx
  4a5b1c: c1 ff 05                     	sar	edi, 0x5
  4a5b1f: 3b 3b                        	cmp	edi, dword ptr [ebx]
  4a5b21: 73 6c                        	jae	0x4a5b8f <.text+0xa4b8f>
  4a5b23: ba 01 00 00 00               	mov	edx, 0x1
  4a5b28: d3 e2                        	shl	edx, cl
  4a5b2a: 23 54 bb 04                  	and	edx, dword ptr [ebx + 4*edi + 0x4]
  4a5b2e: 74 5f                        	je	0x4a5b8f <.text+0xa4b8f>
  4a5b30: 8b 7e 0e                     	mov	edi, dword ptr [esi + 0xe]
  4a5b33: 85 ff                        	test	edi, edi
  4a5b35: 74 58                        	je	0x4a5b8f <.text+0xa4b8f>
  4a5b37: 84 c0                        	test	al, al
  4a5b39: 74 50                        	je	0x4a5b8b <.text+0xa4b8b>
  4a5b3b: 89 c0                        	mov	eax, eax
  4a5b3d: 8d 40 00                     	lea	eax, [eax]
  4a5b40: 8a 17                        	mov	dl, byte ptr [edi]
  4a5b42: 80 fa 02                     	cmp	dl, 0x2
  4a5b45: 75 19                        	jne	0x4a5b60 <.text+0xa4b60>
  4a5b47: 80 7f 01 04                  	cmp	byte ptr [edi + 0x1], 0x4
  4a5b4b: 75 13                        	jne	0x4a5b60 <.text+0xa4b60>
  4a5b4d: 8a 46 42                     	mov	al, byte ptr [esi + 0x42]
  4a5b50: 50                           	push	eax
  4a5b51: 57                           	push	edi
  4a5b52: e8 49 00 00 00               	call	0x4a5ba0 <.text+0xa4ba0>
  4a5b57: 59                           	pop	ecx
  4a5b58: 59                           	pop	ecx
  4a5b59: eb 24                        	jmp	0x4a5b7f <.text+0xa4b7f>
  4a5b5b: 89 c0                        	mov	eax, eax
  4a5b5d: 8d 40 00                     	lea	eax, [eax]
  4a5b60: 80 fa 0b                     	cmp	dl, 0xb
  4a5b63: 75 13                        	jne	0x4a5b78 <.text+0xa4b78>
  4a5b65: 80 fa 0b                     	cmp	dl, 0xb
  4a5b68: 75 0e                        	jne	0x4a5b78 <.text+0xa4b78>
  4a5b6a: 8b 4f 2c                     	mov	ecx, dword ptr [edi + 0x2c]
  4a5b6d: 8b 49 16                     	mov	ecx, dword ptr [ecx + 0x16]
  4a5b70: 81 e1 00 02 00 00            	and	ecx, 0x200
  4a5b76: 74 05                        	je	0x4a5b7d <.text+0xa4b7d>
  4a5b78: 80 fa 11                     	cmp	dl, 0x11
  4a5b7b: 75 02                        	jne	0x4a5b7f <.text+0xa4b7f>
  4a5b7d: 30 c0                        	xor	al, al
  4a5b7f: 3b 7e 12                     	cmp	edi, dword ptr [esi + 0x12]
  4a5b82: 74 07                        	je	0x4a5b8b <.text+0xa4b8b>
  4a5b84: 8b 7f 34                     	mov	edi, dword ptr [edi + 0x34]
  4a5b87: 84 c0                        	test	al, al
  4a5b89: 75 b5                        	jne	0x4a5b40 <.text+0xa4b40>
  4a5b8b: 84 c0                        	test	al, al
  4a5b8d: 74 07                        	je	0x4a5b96 <.text+0xa4b96>
  4a5b8f: 8b 76 32                     	mov	esi, dword ptr [esi + 0x32]
  4a5b92: 85 f6                        	test	esi, esi
  4a5b94: 75 81                        	jne	0x4a5b17 <.text+0xa4b17>
  4a5b96: 88 45 00                     	mov	byte ptr [ebp], al
  4a5b99: 5d                           	pop	ebp
  4a5b9a: 5f                           	pop	edi
  4a5b9b: 5e                           	pop	esi
  4a5b9c: 5b                           	pop	ebx
  4a5b9d: c3                           	ret
  4a5b9e: 00 00                        	add	byte ptr [eax], al
  4a5ba0: 53                           	push	ebx
  4a5ba1: 56                           	push	esi
  4a5ba2: 57                           	push	edi
  4a5ba3: 55                           	push	ebp
  4a5ba4: 8b 44 24 14                  	mov	eax, dword ptr [esp + 0x14]
  4a5ba8: 8b 78 20                     	mov	edi, dword ptr [eax + 0x20]
  4a5bab: 57                           	push	edi
  4a5bac: e8 7f 27 fc ff               	call	0x468330 <.text+0x67330>
  4a5bb1: 59                           	pop	ecx
  4a5bb2: 89 c5                        	mov	ebp, eax
  4a5bb4: 8a 17                        	mov	dl, byte ptr [edi]
  4a5bb6: 80 fa 01                     	cmp	dl, 0x1
  4a5bb9: 75 1a                        	jne	0x4a5bd5 <.text+0xa4bd5>
  4a5bbb: 8b 47 20                     	mov	eax, dword ptr [edi + 0x20]
  4a5bbe: 80 38 38                     	cmp	byte ptr [eax], 0x38
  4a5bc1: 75 12                        	jne	0x4a5bd5 <.text+0xa4bd5>
  4a5bc3: 66 ff 45 04                  	inc	word ptr [ebp + 0x4]
  4a5bc7: 8d 45 06                     	lea	eax, [ebp + 0x6]
  4a5bca: 50                           	push	eax
  4a5bcb: 57                           	push	edi
  4a5bcc: e8 2f ce fb ff               	call	0x462a00 <.text+0x61a00>
  4a5bd1: 59                           	pop	ecx
  4a5bd2: 59                           	pop	ecx
  4a5bd3: eb 22                        	jmp	0x4a5bf7 <.text+0xa4bf7>
  4a5bd5: 80 fa 03                     	cmp	dl, 0x3
  4a5bd8: 75 16                        	jne	0x4a5bf0 <.text+0xa4bf0>
  4a5bda: 80 7f 01 0f                  	cmp	byte ptr [edi + 0x1], 0xf
  4a5bde: 75 10                        	jne	0x4a5bf0 <.text+0xa4bf0>
  4a5be0: 55                           	push	ebp
  4a5be1: 57                           	push	edi
  4a5be2: e8 99 cc fb ff               	call	0x462880 <.text+0x61880>
  4a5be7: 59                           	pop	ecx
  4a5be8: 59                           	pop	ecx
  4a5be9: eb 0c                        	jmp	0x4a5bf7 <.text+0xa4bf7>
  4a5beb: 89 c0                        	mov	eax, eax
  4a5bed: 8d 40 00                     	lea	eax, [eax]
  4a5bf0: 30 c0                        	xor	al, al
  4a5bf2: 5d                           	pop	ebp
  4a5bf3: 5f                           	pop	edi
  4a5bf4: 5e                           	pop	esi
  4a5bf5: 5b                           	pop	ebx
  4a5bf6: c3                           	ret
  4a5bf7: 66 83 7d 04 01               	cmp	word ptr [ebp + 0x4], 0x1
  4a5bfc: 74 07                        	je	0x4a5c05 <.text+0xa4c05>
  4a5bfe: 30 c0                        	xor	al, al
  4a5c00: 5d                           	pop	ebp
  4a5c01: 5f                           	pop	edi
  4a5c02: 5e                           	pop	esi
  4a5c03: 5b                           	pop	ebx
  4a5c04: c3                           	ret
  4a5c05: bb 01 00 00 00               	mov	ebx, 0x1
  4a5c0a: 8b 44 24 14                  	mov	eax, dword ptr [esp + 0x14]
  4a5c0e: 8b 40 02                     	mov	eax, dword ptr [eax + 0x2]
  4a5c11: 89 c1                        	mov	ecx, eax
  4a5c13: 81 e1 00 00 10 00            	and	ecx, 0x100000
  4a5c19: 75 07                        	jne	0x4a5c22 <.text+0xa4c22>
  4a5c1b: 83 e0 02                     	and	eax, 0x2
  4a5c1e: 74 02                        	je	0x4a5c22 <.text+0xa4c22>
  4a5c20: 31 db                        	xor	ebx, ebx
  4a5c22: 83 3d 70 98 5e 00 00         	cmp	dword ptr [0x5e9870], 0x0
  4a5c29: 0f 84 a0 00 00 00            	je	0x4a5ccf <.text+0xa4ccf>
  4a5c2f: 8b 35 70 98 5e 00            	mov	esi, dword ptr [0x5e9870]
  4a5c35: 85 f6                        	test	esi, esi
  4a5c37: 0f 84 8e 00 00 00            	je	0x4a5ccb <.text+0xa4ccb>
  4a5c3d: 8d 40 00                     	lea	eax, [eax]
  4a5c40: 8b 56 0a                     	mov	edx, dword ptr [esi + 0xa]
  4a5c43: 8b 4a 06                     	mov	ecx, dword ptr [edx + 0x6]
  4a5c46: 8b 01                        	mov	eax, dword ptr [ecx]
  4a5c48: 8b 48 20                     	mov	ecx, dword ptr [eax + 0x20]
  4a5c4b: 8b 45 06                     	mov	eax, dword ptr [ebp + 0x6]
  4a5c4e: 8b 00                        	mov	eax, dword ptr [eax]
  4a5c50: 8b 40 20                     	mov	eax, dword ptr [eax + 0x20]
  4a5c53: 8b 40 0e                     	mov	eax, dword ptr [eax + 0xe]
  4a5c56: 8b 49 0e                     	mov	ecx, dword ptr [ecx + 0xe]
  4a5c59: 39 c8                        	cmp	eax, ecx
  4a5c5b: 75 63                        	jne	0x4a5cc0 <.text+0xa4cc0>
  4a5c5d: 8b 02                        	mov	eax, dword ptr [edx]
  4a5c5f: 50                           	push	eax
  4a5c60: 57                           	push	edi
  4a5c61: e8 6a 41 fc ff               	call	0x469dd0 <.text+0x68dd0>
  4a5c66: 59                           	pop	ecx
  4a5c67: 59                           	pop	ecx
  4a5c68: 84 c0                        	test	al, al
  4a5c6a: 74 2c                        	je	0x4a5c98 <.text+0xa4c98>
  4a5c6c: 6a 08                        	push	0x8
  4a5c6e: e8 6d b0 f9 ff               	call	0x440ce0 <.text+0x3fce0>
  4a5c73: 59                           	pop	ecx
  4a5c74: 8b 4c 24 14                  	mov	ecx, dword ptr [esp + 0x14]
  4a5c78: 89 08                        	mov	dword ptr [eax], ecx
  4a5c7a: c7 40 04 00 00 00 00         	mov	dword ptr [eax + 0x4], 0x0
  4a5c81: 8b 4e 06                     	mov	ecx, dword ptr [esi + 0x6]
  4a5c84: 85 c9                        	test	ecx, ecx
  4a5c86: 75 08                        	jne	0x4a5c90 <.text+0xa4c90>
  4a5c88: 89 46 06                     	mov	dword ptr [esi + 0x6], eax
  4a5c8b: eb 0e                        	jmp	0x4a5c9b <.text+0xa4c9b>
  4a5c8d: 8d 40 00                     	lea	eax, [eax]
  4a5c90: 89 48 04                     	mov	dword ptr [eax + 0x4], ecx
  4a5c93: 89 46 06                     	mov	dword ptr [esi + 0x6], eax
  4a5c96: eb 03                        	jmp	0x4a5c9b <.text+0xa4c9b>
  4a5c98: 80 0e 08                     	or	byte ptr [esi], 0x8
  4a5c9b: 80 7c 24 18 00               	cmp	byte ptr [esp + 0x18], 0x0
  4a5ca0: 75 07                        	jne	0x4a5ca9 <.text+0xa4ca9>
  4a5ca2: 84 db                        	test	bl, bl
  4a5ca4: 74 03                        	je	0x4a5ca9 <.text+0xa4ca9>
  4a5ca6: 80 0e 08                     	or	byte ptr [esi], 0x8
  4a5ca9: 80 7c 24 18 00               	cmp	byte ptr [esp + 0x18], 0x0
  4a5cae: 75 04                        	jne	0x4a5cb4 <.text+0xa4cb4>
  4a5cb0: 84 db                        	test	bl, bl
  4a5cb2: 74 17                        	je	0x4a5ccb <.text+0xa4ccb>
  4a5cb4: 80 26 ef                     	and	byte ptr [esi], -0x11
  4a5cb7: eb 12                        	jmp	0x4a5ccb <.text+0xa4ccb>
  4a5cb9: 8d 84 20 00 00 00 00         	lea	eax, [eax + eiz]
  4a5cc0: 8b 76 0e                     	mov	esi, dword ptr [esi + 0xe]
  4a5cc3: 85 f6                        	test	esi, esi
  4a5cc5: 0f 85 75 ff ff ff            	jne	0x4a5c40 <.text+0xa4c40>
  4a5ccb: 85 f6                        	test	esi, esi
  4a5ccd: 75 13                        	jne	0x4a5ce2 <.text+0xa4ce2>
  4a5ccf: 53                           	push	ebx
  4a5cd0: 8a 44 24 1c                  	mov	al, byte ptr [esp + 0x1c]
  4a5cd4: 50                           	push	eax
  4a5cd5: 55                           	push	ebp
  4a5cd6: ff 74 24 20                  	push	dword ptr [esp + 0x20]
  4a5cda: e8 e1 fc ff ff               	call	0x4a59c0 <.text+0xa49c0>
  4a5cdf: 83 c4 10                     	add	esp, 0x10
  4a5ce2: b0 01                        	mov	al, 0x1
  4a5ce4: 5d                           	pop	ebp
  4a5ce5: 5f                           	pop	edi
  4a5ce6: 5e                           	pop	esi
  4a5ce7: 5b                           	pop	ebx
  4a5ce8: c3                           	ret
  4a5ce9: 00 00                        	add	byte ptr [eax], al
  4a5ceb: 00 00                        	add	byte ptr [eax], al
  4a5ced: 00 00                        	add	byte ptr [eax], al
  4a5cef: 00 53 56                     	add	byte ptr [ebx + 0x56], dl
