
build/compilers/GC/2.0/mwcceppc.exe:     file format pei-i386


Disassembly of section .text:

00577b40 <.text+0x176b40>:
  577b40:	53                   	push   %ebx
  577b41:	56                   	push   %esi
  577b42:	57                   	push   %edi
  577b43:	55                   	push   %ebp
  577b44:	83 ec 08             	sub    $0x8,%esp
  577b47:	c7 44 24 04 00 00 00 	movl   $0x0,0x4(%esp)
  577b4e:	00 
  577b4f:	8b 1d c4 99 5e 00    	mov    0x5e99c4,%ebx
  577b55:	85 db                	test   %ebx,%ebx
  577b57:	0f 84 3a 01 00 00    	je     0x577c97
  577b5d:	8d 40 00             	lea    0x0(%eax),%eax
  577b60:	8b 53 04             	mov    0x4(%ebx),%edx
  577b63:	85 d2                	test   %edx,%edx
  577b65:	0f 84 22 01 00 00    	je     0x577c8d
  577b6b:	b9 01 00 00 00       	mov    $0x1,%ecx
  577b70:	8b 72 0e             	mov    0xe(%edx),%esi
  577b73:	8a 06                	mov    (%esi),%al
  577b75:	3c 0b                	cmp    $0xb,%al
  577b77:	74 06                	je     0x577b7f
  577b79:	3c 0c                	cmp    $0xc,%al
  577b7b:	74 02                	je     0x577b7f
  577b7d:	31 c9                	xor    %ecx,%ecx
  577b7f:	85 c9                	test   %ecx,%ecx
  577b81:	74 05                	je     0x577b88
  577b83:	8b 56 0a             	mov    0xa(%esi),%edx
  577b86:	eb 03                	jmp    0x577b8b
  577b88:	8b 52 12             	mov    0x12(%edx),%edx
  577b8b:	83 e2 02             	and    $0x2,%edx
  577b8e:	85 d2                	test   %edx,%edx
  577b90:	0f 85 f7 00 00 00    	jne    0x577c8d
  577b96:	85 f6                	test   %esi,%esi
  577b98:	0f 84 ef 00 00 00    	je     0x577c8d
  577b9e:	3c 0c                	cmp    $0xc,%al
  577ba0:	0f 85 e7 00 00 00    	jne    0x577c8d
  577ba6:	8b 46 06             	mov    0x6(%esi),%eax
  577ba9:	80 38 04             	cmpb   $0x4,(%eax)
  577bac:	0f 85 db 00 00 00    	jne    0x577c8d
  577bb2:	0f be 48 0e          	movsbl 0xe(%eax),%ecx
  577bb6:	83 f9 04             	cmp    $0x4,%ecx
  577bb9:	0f 8c ce 00 00 00    	jl     0x577c8d
  577bbf:	83 f9 0e             	cmp    $0xe,%ecx
  577bc2:	0f 8f c5 00 00 00    	jg     0x577c8d
  577bc8:	8b 6e 02             	mov    0x2(%esi),%ebp
  577bcb:	89 e8                	mov    %ebp,%eax
  577bcd:	99                   	cltd
  577bce:	83 e2 0f             	and    $0xf,%edx
  577bd1:	01 d0                	add    %edx,%eax
  577bd3:	c1 f8 04             	sar    $0x4,%eax
  577bd6:	89 c7                	mov    %eax,%edi
  577bd8:	89 fe                	mov    %edi,%esi
  577bda:	85 f6                	test   %esi,%esi
  577bdc:	0f 8e ab 00 00 00    	jle    0x577c8d
  577be2:	83 fe 08             	cmp    $0x8,%esi
  577be5:	0f 8f a2 00 00 00    	jg     0x577c8d
  577beb:	89 f0                	mov    %esi,%eax
  577bed:	48                   	dec    %eax
  577bee:	8d 04 85 1c 00 00 00 	lea    0x1c(,%eax,4),%eax
  577bf5:	50                   	push   %eax
  577bf6:	e8 e5 90 ec ff       	call   0x440ce0
  577bfb:	59                   	pop    %ecx
  577bfc:	8b 4c 24 04          	mov    0x4(%esp),%ecx
  577c00:	89 08                	mov    %ecx,(%eax)
  577c02:	89 44 24 04          	mov    %eax,0x4(%esp)
  577c06:	8b 53 04             	mov    0x4(%ebx),%edx
  577c09:	89 50 04             	mov    %edx,0x4(%eax)
  577c0c:	89 68 0c             	mov    %ebp,0xc(%eax)
  577c0f:	89 78 10             	mov    %edi,0x10(%eax)
  577c12:	c7 40 14 00 00 00 00 	movl   $0x0,0x14(%eax)
  577c19:	8a 48 08             	mov    0x8(%eax),%cl
  577c1c:	80 e1 fe             	and    $0xfe,%cl
  577c1f:	88 48 08             	mov    %cl,0x8(%eax)
  577c22:	31 d2                	xor    %edx,%edx
  577c24:	39 f2                	cmp    %esi,%edx
  577c26:	7d 65                	jge    0x577c8d
  577c28:	8d 6e f8             	lea    -0x8(%esi),%ebp
  577c2b:	83 fe 08             	cmp    $0x8,%esi
  577c2e:	7e 47                	jle    0x577c77
  577c30:	c7 44 90 18 00 00 00 	movl   $0x0,0x18(%eax,%edx,4)
  577c37:	00 
  577c38:	c7 44 90 1c 00 00 00 	movl   $0x0,0x1c(%eax,%edx,4)
  577c3f:	00 
  577c40:	c7 44 90 20 00 00 00 	movl   $0x0,0x20(%eax,%edx,4)
  577c47:	00 
  577c48:	c7 44 90 24 00 00 00 	movl   $0x0,0x24(%eax,%edx,4)
  577c4f:	00 
  577c50:	c7 44 90 28 00 00 00 	movl   $0x0,0x28(%eax,%edx,4)
  577c57:	00 
  577c58:	c7 44 90 2c 00 00 00 	movl   $0x0,0x2c(%eax,%edx,4)
  577c5f:	00 
  577c60:	c7 44 90 30 00 00 00 	movl   $0x0,0x30(%eax,%edx,4)
  577c67:	00 
  577c68:	c7 44 90 34 00 00 00 	movl   $0x0,0x34(%eax,%edx,4)
  577c6f:	00 
  577c70:	83 c2 08             	add    $0x8,%edx
  577c73:	39 ea                	cmp    %ebp,%edx
  577c75:	7c b9                	jl     0x577c30
  577c77:	39 f2                	cmp    %esi,%edx
  577c79:	7d 12                	jge    0x577c8d
  577c7b:	89 c0                	mov    %eax,%eax
  577c7d:	8d 40 00             	lea    0x0(%eax),%eax
  577c80:	c7 44 90 18 00 00 00 	movl   $0x0,0x18(%eax,%edx,4)
  577c87:	00 
  577c88:	42                   	inc    %edx
  577c89:	39 f2                	cmp    %esi,%edx
  577c8b:	7c f3                	jl     0x577c80
  577c8d:	8b 1b                	mov    (%ebx),%ebx
  577c8f:	85 db                	test   %ebx,%ebx
  577c91:	0f 85 c9 fe ff ff    	jne    0x577b60
  577c97:	8b 44 24 04          	mov    0x4(%esp),%eax
  577c9b:	83 c4 08             	add    $0x8,%esp
  577c9e:	5d                   	pop    %ebp
  577c9f:	5f                   	pop    %edi
  577ca0:	5e                   	pop    %esi
  577ca1:	5b                   	pop    %ebx
  577ca2:	c3                   	ret
	...
  577caf:	00 8b 54 24 04 0f    	add    %cl,0xf042454(%ebx)
  577cb5:	bf 4a 20 8d 0c       	mov    $0xc8d204a,%edi
  577cba:	89 80 3c 4d 2a 0c    	mov    %eax,0xc2a4d3c(%eax)
  577cc0:	5d                   	pop    %ebp
  577cc1:	00 10                	add    %dl,(%eax)
  577cc3:	0f 94 c0             	sete   %al
  577cc6:	83 e0 01             	and    $0x1,%eax
  577cc9:	c3                   	ret
  577cca:	00 00                	add    %al,(%eax)
  577ccc:	00 00                	add    %al,(%eax)
  577cce:	00 00                	add    %al,(%eax)
  577cd0:	8b 54 24 04          	mov    0x4(%esp),%edx
  577cd4:	0f bf 4a 20          	movswl 0x20(%edx),%ecx
  577cd8:	8d 0c 89             	lea    (%ecx,%ecx,4),%ecx
  577cdb:	0f be 04 4d 30 0c 5d 	movsbl 0x5d0c30(,%ecx,2),%eax
  577ce2:	00 
  577ce3:	c3                   	ret
	...
  577cf0:	53                   	push   %ebx
  577cf1:	56                   	push   %esi
  577cf2:	57                   	push   %edi
  577cf3:	55                   	push   %ebp
  577cf4:	83 ec 08             	sub    $0x8,%esp
  577cf7:	31 c0                	xor    %eax,%eax
  577cf9:	8d 84 20 00 00 00 00 	lea    0x0(%eax,%eiz,1),%eax
  577d00:	83 3c c5 80 2c 5e 00 	cmpl   $0x0,0x5e2c80(,%eax,8)
  577d07:	00 
  577d08:	74 11                	je     0x577d1b
  577d0a:	83 3c c5 84 2c 5e 00 	cmpl   $0x0,0x5e2c84(,%eax,8)
  577d11:	00 
  577d12:	74 07                	je     0x577d1b
  577d14:	ff 0c c5 84 2c 5e 00 	decl   0x5e2c84(,%eax,8)
  577d1b:	40                   	inc    %eax
  577d1c:	83 f8 1a             	cmp    $0x1a,%eax
  577d1f:	7c df                	jl     0x577d00
  577d21:	31 ed                	xor    %ebp,%ebp
  577d23:	83 3d d4 2b 5e 00 00 	cmpl   $0x0,0x5e2bd4
  577d2a:	74 4b                	je     0x577d77
  577d2c:	8b 3d d8 2b 5e 00    	mov    0x5e2bd8,%edi
  577d32:	83 3c fd e4 2b 5e 00 	cmpl   $0x0,0x5e2be4(,%edi,8)
  577d39:	00 
  577d3a:	74 3b                	je     0x577d77
  577d3c:	c7 04 fd e0 2b 5e 00 	movl   $0x0,0x5e2be0(,%edi,8)
  577d43:	00 00 00 00 
  577d47:	a1 d8 2b 5e 00       	mov    0x5e2bd8,%eax
  577d4c:	c7 04 c5 e4 2b 5e 00 	movl   $0x0,0x5e2be4(,%eax,8)
  577d53:	00 00 00 00 
  577d57:	ff 0d d4 2b 5e 00    	decl   0x5e2bd4
  577d5d:	ff 05 d0 2b 5e 00    	incl   0x5e2bd0
  577d63:	a1 d8 2b 5e 00       	mov    0x5e2bd8,%eax
  577d68:	40                   	inc    %eax
  577d69:	83 e0 0f             	and    $0xf,%eax
  577d6c:	a3 d8 2b 5e 00       	mov    %eax,0x5e2bd8
  577d71:	45                   	inc    %ebp
  577d72:	83 fd 03             	cmp    $0x3,%ebp
  577d75:	7c ac                	jl     0x577d23
  577d77:	c7 05 50 2d 5e 00 00 	movl   $0x0,0x5e2d50
  577d7e:	00 00 00 
  577d81:	31 f6                	xor    %esi,%esi
  577d83:	eb 64                	jmp    0x577de9
  577d85:	8a 96 10 0c 5d 00    	mov    0x5d0c10(%esi),%dl
  577d8b:	0f b6 c2             	movzbl %dl,%eax
  577d8e:	83 3c c5 80 2c 5e 00 	cmpl   $0x0,0x5e2c80(,%eax,8)
  577d95:	00 
  577d96:	74 50                	je     0x577de8
  577d98:	83 3c c5 84 2c 5e 00 	cmpl   $0x0,0x5e2c84(,%eax,8)
  577d9f:	00 
  577da0:	75 46                	jne    0x577de8
  577da2:	0f b6 ca             	movzbl %dl,%ecx
  577da5:	8b 1c cd 80 2c 5e 00 	mov    0x5e2c80(,%ecx,8),%ebx
  577dac:	83 f9 0e             	cmp    $0xe,%ecx
  577daf:	75 0e                	jne    0x577dbf
  577db1:	85 db                	test   %ebx,%ebx
  577db3:	74 0a                	je     0x577dbf
  577db5:	c7 05 50 2d 5e 00 01 	movl   $0x1,0x5e2d50
  577dbc:	00 00 00 
  577dbf:	31 c0                	xor    %eax,%eax
  577dc1:	eb 01                	jmp    0x577dc4
  577dc3:	40                   	inc    %eax
  577dc4:	83 f8 10             	cmp    $0x10,%eax
  577dc7:	7d 09                	jge    0x577dd2
  577dc9:	39 1c c5 e0 2b 5e 00 	cmp    %ebx,0x5e2be0(,%eax,8)
  577dd0:	75 f1                	jne    0x577dc3
  577dd2:	c7 04 c5 e4 2b 5e 00 	movl   $0x1,0x5e2be4(,%eax,8)
  577dd9:	01 00 00 00 
  577ddd:	c7 04 cd 80 2c 5e 00 	movl   $0x0,0x5e2c80(,%ecx,8)
  577de4:	00 00 00 00 
  577de8:	46                   	inc    %esi
  577de9:	83 fe 0b             	cmp    $0xb,%esi
  577dec:	72 97                	jb     0x577d85
  577dee:	c7 44 24 04 00 00 00 	movl   $0x0,0x4(%esp)
  577df5:	00 
  577df6:	e9 01 01 00 00       	jmp    0x577efc
  577dfb:	89 c0                	mov    %eax,%eax
  577dfd:	8d 40 00             	lea    0x0(%eax),%eax
  577e00:	8b 4c 24 04          	mov    0x4(%esp),%ecx
  577e04:	8a 04 4d 1c 0c 5d 00 	mov    0x5d0c1c(,%ecx,2),%al
  577e0b:	88 04 24             	mov    %al,(%esp)
  577e0e:	89 c8                	mov    %ecx,%eax
  577e10:	8a 14 45 1d 0c 5d 00 	mov    0x5d0c1d(,%eax,2),%dl
  577e17:	fe ca                	dec    %dl
  577e19:	3a 14 24             	cmp    (%esp),%dl
  577e1c:	0f 82 d6 00 00 00    	jb     0x577ef8
  577e22:	0f b6 04 24          	movzbl (%esp),%eax
  577e26:	0f b6 da             	movzbl %dl,%ebx
  577e29:	83 3c dd 80 2c 5e 00 	cmpl   $0x0,0x5e2c80(,%ebx,8)
  577e30:	00 
  577e31:	0f 84 b6 00 00 00    	je     0x577eed
  577e37:	83 3c dd 84 2c 5e 00 	cmpl   $0x0,0x5e2c84(,%ebx,8)
  577e3e:	00 
  577e3f:	0f 85 a8 00 00 00    	jne    0x577eed
  577e45:	0f b6 ca             	movzbl %dl,%ecx
  577e48:	83 3c cd 88 2c 5e 00 	cmpl   $0x0,0x5e2c88(,%ecx,8)
  577e4f:	00 
  577e50:	0f 85 97 00 00 00    	jne    0x577eed
  577e56:	8b 2c cd 80 2c 5e 00 	mov    0x5e2c80(,%ecx,8),%ebp
  577e5d:	89 ce                	mov    %ecx,%esi
  577e5f:	46                   	inc    %esi
  577e60:	89 f7                	mov    %esi,%edi
  577e62:	29 c7                	sub    %eax,%edi
  577e64:	0f bf 5d 20          	movswl 0x20(%ebp),%ebx
  577e68:	8d 1c 9b             	lea    (%ebx,%ebx,4),%ebx
  577e6b:	6b db 02             	imul   $0x2,%ebx,%ebx
  577e6e:	01 fb                	add    %edi,%ebx
  577e70:	0f be 9b 2c 0c 5d 00 	movsbl 0x5d0c2c(%ebx),%ebx
  577e77:	83 f9 0d             	cmp    $0xd,%ecx
  577e7a:	75 06                	jne    0x577e82
  577e7c:	83 fe 0e             	cmp    $0xe,%esi
  577e7f:	75 01                	jne    0x577e82
  577e81:	4b                   	dec    %ebx
  577e82:	89 2c cd 88 2c 5e 00 	mov    %ebp,0x5e2c88(,%ecx,8)
  577e89:	89 1c cd 8c 2c 5e 00 	mov    %ebx,0x5e2c8c(,%ecx,8)
  577e90:	c7 04 cd 80 2c 5e 00 	movl   $0x0,0x5e2c80(,%ecx,8)
  577e97:	00 00 00 00 
  577e9b:	c7 04 cd 84 2c 5e 00 	movl   $0x0,0x5e2c84(,%ecx,8)
  577ea2:	00 00 00 00 
  577ea6:	85 db                	test   %ebx,%ebx
  577ea8:	75 43                	jne    0x577eed
  577eaa:	8b 2c cd 88 2c 5e 00 	mov    0x5e2c88(,%ecx,8),%ebp
  577eb1:	83 fe 0e             	cmp    $0xe,%esi
  577eb4:	75 0e                	jne    0x577ec4
  577eb6:	85 ed                	test   %ebp,%ebp
  577eb8:	74 0a                	je     0x577ec4
  577eba:	c7 05 50 2d 5e 00 01 	movl   $0x1,0x5e2d50
  577ec1:	00 00 00 
  577ec4:	31 ff                	xor    %edi,%edi
  577ec6:	eb 01                	jmp    0x577ec9
  577ec8:	47                   	inc    %edi
  577ec9:	83 ff 10             	cmp    $0x10,%edi
  577ecc:	7d 09                	jge    0x577ed7
  577ece:	39 2c fd e0 2b 5e 00 	cmp    %ebp,0x5e2be0(,%edi,8)
  577ed5:	75 f1                	jne    0x577ec8
  577ed7:	c7 04 fd e4 2b 5e 00 	movl   $0x1,0x5e2be4(,%edi,8)
  577ede:	01 00 00 00 
  577ee2:	c7 04 cd 88 2c 5e 00 	movl   $0x0,0x5e2c88(,%ecx,8)
  577ee9:	00 00 00 00 
  577eed:	fe ca                	dec    %dl
  577eef:	3a 14 24             	cmp    (%esp),%dl
  577ef2:	0f 83 2e ff ff ff    	jae    0x577e26
  577ef8:	ff 44 24 04          	incl   0x4(%esp)
  577efc:	83 7c 24 04 06       	cmpl   $0x6,0x4(%esp)
  577f01:	0f 82 f9 fe ff ff    	jb     0x577e00
  577f07:	c7 05 74 2c 5e 00 00 	movl   $0x0,0x5e2c74
  577f0e:	00 00 00 
  577f11:	c7 05 78 2c 5e 00 00 	movl   $0x0,0x5e2c78
  577f18:	00 00 00 
  577f1b:	c7 05 7c 2c 5e 00 00 	movl   $0x0,0x5e2c7c
  577f22:	00 00 00 
  577f25:	bb 02 00 00 00       	mov    $0x2,%ebx
  577f2a:	2b 1d 68 2c 5e 00    	sub    0x5e2c68,%ebx
  577f30:	bd 06 00 00 00       	mov    $0x6,%ebp
  577f35:	2b 2d 6c 2c 5e 00    	sub    0x5e2c6c,%ebp
  577f3b:	01 eb                	add    %ebp,%ebx
  577f3d:	b8 04 00 00 00       	mov    $0x4,%eax
  577f42:	2b 05 70 2c 5e 00    	sub    0x5e2c70,%eax
  577f48:	01 c3                	add    %eax,%ebx
  577f4a:	83 fb 03             	cmp    $0x3,%ebx
  577f4d:	7e 05                	jle    0x577f54
  577f4f:	bb 03 00 00 00       	mov    $0x3,%ebx
  577f54:	39 1d d0 2b 5e 00    	cmp    %ebx,0x5e2bd0
  577f5a:	73 06                	jae    0x577f62
  577f5c:	8b 1d d0 2b 5e 00    	mov    0x5e2bd0,%ebx
  577f62:	39 1d 60 2c 5e 00    	cmp    %ebx,0x5e2c60
  577f68:	7d 06                	jge    0x577f70
  577f6a:	8b 1d 60 2c 5e 00    	mov    0x5e2c60,%ebx
  577f70:	01 1d 64 2c 5e 00    	add    %ebx,0x5e2c64
  577f76:	29 1d 60 2c 5e 00    	sub    %ebx,0x5e2c60
  577f7c:	8b 3d 68 2c 5e 00    	mov    0x5e2c68,%edi
  577f82:	01 df                	add    %ebx,%edi
  577f84:	83 ff 02             	cmp    $0x2,%edi
  577f87:	7e 07                	jle    0x577f90
  577f89:	b8 02 00 00 00       	mov    $0x2,%eax
  577f8e:	eb 02                	jmp    0x577f92
  577f90:	89 f8                	mov    %edi,%eax
  577f92:	8b 35 64 2c 5e 00    	mov    0x5e2c64,%esi
  577f98:	39 c6                	cmp    %eax,%esi
  577f9a:	7c 0c                	jl     0x577fa8
  577f9c:	83 ff 02             	cmp    $0x2,%edi
  577f9f:	7e 05                	jle    0x577fa6
  577fa1:	bf 02 00 00 00       	mov    $0x2,%edi
  577fa6:	89 fe                	mov    %edi,%esi
  577fa8:	89 35 68 2c 5e 00    	mov    %esi,0x5e2c68
  577fae:	8b 15 6c 2c 5e 00    	mov    0x5e2c6c,%edx
  577fb4:	01 da                	add    %ebx,%edx
  577fb6:	83 fa 06             	cmp    $0x6,%edx
  577fb9:	7e 07                	jle    0x577fc2
  577fbb:	b8 06 00 00 00       	mov    $0x6,%eax
  577fc0:	eb 02                	jmp    0x577fc4
  577fc2:	89 d0                	mov    %edx,%eax
  577fc4:	8b 0d 64 2c 5e 00    	mov    0x5e2c64,%ecx
  577fca:	39 c1                	cmp    %eax,%ecx
  577fcc:	7c 0c                	jl     0x577fda
  577fce:	83 fa 06             	cmp    $0x6,%edx
  577fd1:	7e 05                	jle    0x577fd8
  577fd3:	ba 06 00 00 00       	mov    $0x6,%edx
  577fd8:	89 d1                	mov    %edx,%ecx
  577fda:	89 0d 6c 2c 5e 00    	mov    %ecx,0x5e2c6c
  577fe0:	8b 3d 70 2c 5e 00    	mov    0x5e2c70,%edi
  577fe6:	01 df                	add    %ebx,%edi
  577fe8:	83 ff 04             	cmp    $0x4,%edi
  577feb:	7e 07                	jle    0x577ff4
  577fed:	b8 04 00 00 00       	mov    $0x4,%eax
  577ff2:	eb 02                	jmp    0x577ff6
  577ff4:	89 f8                	mov    %edi,%eax
  577ff6:	8b 2d 64 2c 5e 00    	mov    0x5e2c64,%ebp
  577ffc:	39 c5                	cmp    %eax,%ebp
  577ffe:	7c 0c                	jl     0x57800c
  578000:	83 ff 04             	cmp    $0x4,%edi
  578003:	7e 05                	jle    0x57800a
  578005:	bf 04 00 00 00       	mov    $0x4,%edi
  57800a:	89 fd                	mov    %edi,%ebp
  57800c:	89 2d 70 2c 5e 00    	mov    %ebp,0x5e2c70
  578012:	a1 68 2c 5e 00       	mov    0x5e2c68,%eax
  578017:	03 05 6c 2c 5e 00    	add    0x5e2c6c,%eax
  57801d:	01 e8                	add    %ebp,%eax
  57801f:	39 05 64 2c 5e 00    	cmp    %eax,0x5e2c64
  578025:	7e 11                	jle    0x578038
  578027:	68 36 04 00 00       	push   $0x436
  57802c:	68 f0 1b 5d 00       	push   $0x5d1bf0
  578031:	e8 2a b7 ee ff       	call   0x463760
  578036:	59                   	pop    %ecx
  578037:	59                   	pop    %ecx
  578038:	83 3d 60 2c 5e 00 08 	cmpl   $0x8,0x5e2c60
  57803f:	7f 07                	jg     0x578048
  578041:	83 05 60 2c 5e 00 04 	addl   $0x4,0x5e2c60
  578048:	83 c4 08             	add    $0x8,%esp
  57804b:	5d                   	pop    %ebp
  57804c:	5f                   	pop    %edi
  57804d:	5e                   	pop    %esi
  57804e:	5b                   	pop    %ebx
  57804f:	c3                   	ret
  578050:	53                   	push   %ebx
  578051:	55                   	push   %ebp
  578052:	83 ec 08             	sub    $0x8,%esp
  578055:	8b 6c 24 14          	mov    0x14(%esp),%ebp
  578059:	0f bf 55 20          	movswl 0x20(%ebp),%edx
  57805d:	8d 14 92             	lea    (%edx,%edx,4),%edx
  578060:	01 d2                	add    %edx,%edx
  578062:	0f b6 9a 2a 0c 5d 00 	movzbl 0x5d0c2a(%edx),%ebx
  578069:	0f be 82 2c 0c 5d 00 	movsbl 0x5d0c2c(%edx),%eax
  578070:	89 44 24 04          	mov    %eax,0x4(%esp)
  578074:	ff 05 d4 2b 5e 00    	incl   0x5e2bd4
  57807a:	ff 0d d0 2b 5e 00    	decl   0x5e2bd0
  578080:	a1 dc 2b 5e 00       	mov    0x5e2bdc,%eax
  578085:	89 2c c5 e0 2b 5e 00 	mov    %ebp,0x5e2be0(,%eax,8)
  57808c:	8b 0d dc 2b 5e 00    	mov    0x5e2bdc,%ecx
  578092:	c7 04 cd e4 2b 5e 00 	movl   $0x0,0x5e2be4(,%ecx,8)
  578099:	00 00 00 00 
  57809d:	a1 dc 2b 5e 00       	mov    0x5e2bdc,%eax
  5780a2:	40                   	inc    %eax
  5780a3:	83 e0 0f             	and    $0xf,%eax
  5780a6:	a3 dc 2b 5e 00       	mov    %eax,0x5e2bdc
  5780ab:	ff 0d 64 2c 5e 00    	decl   0x5e2c64
  5780b1:	83 3d 64 2c 5e 00 00 	cmpl   $0x0,0x5e2c64
  5780b8:	7d 11                	jge    0x5780cb
  5780ba:	68 b1 03 00 00       	push   $0x3b1
  5780bf:	68 f0 1b 5d 00       	push   $0x5d1bf0
  5780c4:	e8 97 b6 ee ff       	call   0x463760
  5780c9:	59                   	pop    %ecx
  5780ca:	59                   	pop    %ecx
  5780cb:	83 fb 0b             	cmp    $0xb,%ebx
  5780ce:	75 10                	jne    0x5780e0
  5780d0:	ff 0d 68 2c 5e 00    	decl   0x5e2c68
  5780d6:	ff 05 74 2c 5e 00    	incl   0x5e2c74
  5780dc:	eb 2a                	jmp    0x578108
  5780de:	89 c0                	mov    %eax,%eax
  5780e0:	83 fb 0f             	cmp    $0xf,%ebx
  5780e3:	7c 13                	jl     0x5780f8
  5780e5:	83 fb 16             	cmp    $0x16,%ebx
  5780e8:	7f 0e                	jg     0x5780f8
  5780ea:	ff 0d 70 2c 5e 00    	decl   0x5e2c70
  5780f0:	ff 05 7c 2c 5e 00    	incl   0x5e2c7c
  5780f6:	eb 10                	jmp    0x578108
  5780f8:	85 db                	test   %ebx,%ebx
  5780fa:	74 0c                	je     0x578108
  5780fc:	ff 0d 6c 2c 5e 00    	decl   0x5e2c6c
  578102:	ff 05 78 2c 5e 00    	incl   0x5e2c78
  578108:	8b 15 68 2c 5e 00    	mov    0x5e2c68,%edx
  57810e:	a1 64 2c 5e 00       	mov    0x5e2c64,%eax
  578113:	39 d0                	cmp    %edx,%eax
  578115:	7c 02                	jl     0x578119
  578117:	89 d0                	mov    %edx,%eax
  578119:	a3 68 2c 5e 00       	mov    %eax,0x5e2c68
  57811e:	8b 0d 6c 2c 5e 00    	mov    0x5e2c6c,%ecx
  578124:	a1 64 2c 5e 00       	mov    0x5e2c64,%eax
  578129:	39 c8                	cmp    %ecx,%eax
  57812b:	7c 02                	jl     0x57812f
  57812d:	89 c8                	mov    %ecx,%eax
  57812f:	a3 6c 2c 5e 00       	mov    %eax,0x5e2c6c
  578134:	8b 15 70 2c 5e 00    	mov    0x5e2c70,%edx
  57813a:	a1 64 2c 5e 00       	mov    0x5e2c64,%eax
  57813f:	39 d0                	cmp    %edx,%eax
  578141:	7c 02                	jl     0x578145
  578143:	89 d0                	mov    %edx,%eax
  578145:	a3 70 2c 5e 00       	mov    %eax,0x5e2c70
  57814a:	83 fb 04             	cmp    $0x4,%ebx
  57814d:	75 2f                	jne    0x57817e
  57814f:	83 3d a0 2c 5e 00 00 	cmpl   $0x0,0x5e2ca0
  578156:	75 08                	jne    0x578160
  578158:	bb 04 00 00 00       	mov    $0x4,%ebx
  57815d:	eb 1f                	jmp    0x57817e
  57815f:	90                   	nop
  578160:	83 3d a8 2c 5e 00 00 	cmpl   $0x0,0x5e2ca8
  578167:	75 07                	jne    0x578170
  578169:	bb 05 00 00 00       	mov    $0x5,%ebx
  57816e:	eb 0e                	jmp    0x57817e
  578170:	83 3d b0 2c 5e 00 00 	cmpl   $0x0,0x5e2cb0
  578177:	75 05                	jne    0x57817e
  578179:	bb 06 00 00 00       	mov    $0x6,%ebx
  57817e:	89 2c dd 80 2c 5e 00 	mov    %ebp,0x5e2c80(,%ebx,8)
  578185:	8b 44 24 04          	mov    0x4(%esp),%eax
  578189:	89 04 dd 84 2c 5e 00 	mov    %eax,0x5e2c84(,%ebx,8)
  578190:	83 c4 08             	add    $0x8,%esp
  578193:	5d                   	pop    %ebp
  578194:	5b                   	pop    %ebx
  578195:	c3                   	ret
	...
  57819e:	00 00                	add    %al,(%eax)
  5781a0:	53                   	push   %ebx
  5781a1:	8b 4c 24 08          	mov    0x8(%esp),%ecx
  5781a5:	83 3d d0 2b 5e 00 00 	cmpl   $0x0,0x5e2bd0
  5781ac:	75 04                	jne    0x5781b2
  5781ae:	31 c0                	xor    %eax,%eax
  5781b0:	5b                   	pop    %ebx
  5781b1:	c3                   	ret
  5781b2:	0f bf 41 20          	movswl 0x20(%ecx),%eax
  5781b6:	8d 04 80             	lea    (%eax,%eax,4),%eax
  5781b9:	0f b6 14 45 2a 0c 5d 	movzbl 0x5d0c2a(,%eax,2),%edx
  5781c0:	00 
  5781c1:	83 fa 04             	cmp    $0x4,%edx
  5781c4:	75 22                	jne    0x5781e8
  5781c6:	31 c9                	xor    %ecx,%ecx
  5781c8:	39 0d a8 2c 5e 00    	cmp    %ecx,0x5e2ca8
  5781ce:	75 01                	jne    0x5781d1
  5781d0:	41                   	inc    %ecx
  5781d1:	31 c0                	xor    %eax,%eax
  5781d3:	39 05 a0 2c 5e 00    	cmp    %eax,0x5e2ca0
  5781d9:	75 01                	jne    0x5781dc
  5781db:	40                   	inc    %eax
  5781dc:	85 c0                	test   %eax,%eax
  5781de:	75 16                	jne    0x5781f6
  5781e0:	85 c9                	test   %ecx,%ecx
  5781e2:	75 12                	jne    0x5781f6
  5781e4:	31 c0                	xor    %eax,%eax
  5781e6:	5b                   	pop    %ebx
  5781e7:	c3                   	ret
  5781e8:	83 3c d5 80 2c 5e 00 	cmpl   $0x0,0x5e2c80(,%edx,8)
  5781ef:	00 
  5781f0:	74 04                	je     0x5781f6
  5781f2:	31 c0                	xor    %eax,%eax
  5781f4:	5b                   	pop    %ebx
  5781f5:	c3                   	ret
  5781f6:	83 fa 0b             	cmp    $0xb,%edx
  5781f9:	75 35                	jne    0x578230
  5781fb:	31 db                	xor    %ebx,%ebx
  5781fd:	b1 0e                	mov    $0xe,%cl
  5781ff:	80 f9 0b             	cmp    $0xb,%cl
  578202:	72 15                	jb     0x578219
  578204:	0f b6 c1             	movzbl %cl,%eax
  578207:	83 3c c5 80 2c 5e 00 	cmpl   $0x0,0x5e2c80(,%eax,8)
  57820e:	00 
  57820f:	74 01                	je     0x578212
  578211:	43                   	inc    %ebx
  578212:	fe c9                	dec    %cl
  578214:	80 f9 0b             	cmp    $0xb,%cl
  578217:	73 eb                	jae    0x578204
  578219:	83 fb 03             	cmp    $0x3,%ebx
  57821c:	7c 12                	jl     0x578230
  57821e:	83 3d 50 2d 5e 00 00 	cmpl   $0x0,0x5e2d50
  578225:	74 09                	je     0x578230
  578227:	31 c0                	xor    %eax,%eax
  578229:	5b                   	pop    %ebx
  57822a:	c3                   	ret
  57822b:	89 c0                	mov    %eax,%eax
  57822d:	8d 40 00             	lea    0x0(%eax),%eax
  578230:	83 3d 64 2c 5e 00 00 	cmpl   $0x0,0x5e2c64
  578237:	7f 07                	jg     0x578240
  578239:	31 c0                	xor    %eax,%eax
  57823b:	5b                   	pop    %ebx
  57823c:	c3                   	ret
  57823d:	8d 40 00             	lea    0x0(%eax),%eax
  578240:	83 fa 0b             	cmp    $0xb,%edx
  578243:	75 1b                	jne    0x578260
  578245:	83 3d 68 2c 5e 00 01 	cmpl   $0x1,0x5e2c68
  57824c:	7c 09                	jl     0x578257
  57824e:	83 3d 74 2c 5e 00 01 	cmpl   $0x1,0x5e2c74
  578255:	7c 49                	jl     0x5782a0
  578257:	31 c0                	xor    %eax,%eax
  578259:	5b                   	pop    %ebx
  57825a:	c3                   	ret
  57825b:	89 c0                	mov    %eax,%eax
  57825d:	8d 40 00             	lea    0x0(%eax),%eax
  578260:	83 fa 0f             	cmp    $0xf,%edx
  578263:	7c 1b                	jl     0x578280
  578265:	83 fa 16             	cmp    $0x16,%edx
  578268:	7f 16                	jg     0x578280
  57826a:	83 3d 70 2c 5e 00 01 	cmpl   $0x1,0x5e2c70
  578271:	7c 09                	jl     0x57827c
  578273:	83 3d 7c 2c 5e 00 02 	cmpl   $0x2,0x5e2c7c
  57827a:	7c 24                	jl     0x5782a0
  57827c:	31 c0                	xor    %eax,%eax
  57827e:	5b                   	pop    %ebx
  57827f:	c3                   	ret
  578280:	85 d2                	test   %edx,%edx
  578282:	74 1c                	je     0x5782a0
  578284:	83 3d 6c 2c 5e 00 01 	cmpl   $0x1,0x5e2c6c
  57828b:	7c 09                	jl     0x578296
  57828d:	83 3d 78 2c 5e 00 03 	cmpl   $0x3,0x5e2c78
  578294:	7c 0a                	jl     0x5782a0
  578296:	31 c0                	xor    %eax,%eax
  578298:	5b                   	pop    %ebx
  578299:	c3                   	ret
  57829a:	8d 80 00 00 00 00    	lea    0x0(%eax),%eax
  5782a0:	b8 01 00 00 00       	mov    $0x1,%eax
  5782a5:	5b                   	pop    %ebx
  5782a6:	c3                   	ret
	...
  5782af:	00 c7                	add    %al,%bh
  5782b1:	05 60 2c 5e 00       	add    $0x5e2c60,%eax
  5782b6:	04 00                	add    $0x0,%al
  5782b8:	00 00                	add    %al,(%eax)
  5782ba:	c7 05 64 2c 5e 00 03 	movl   $0x3,0x5e2c64
  5782c1:	00 00 00 
  5782c4:	c7 05 68 2c 5e 00 02 	movl   $0x2,0x5e2c68
  5782cb:	00 00 00 
  5782ce:	c7 05 6c 2c 5e 00 03 	movl   $0x3,0x5e2c6c
  5782d5:	00 00 00 
  5782d8:	c7 05 70 2c 5e 00 02 	movl   $0x2,0x5e2c70
  5782df:	00 00 00 
  5782e2:	c7 05 74 2c 5e 00 00 	movl   $0x0,0x5e2c74
  5782e9:	00 00 00 
  5782ec:	c7 05 78 2c 5e 00 00 	movl   $0x0,0x5e2c78
  5782f3:	00 00 00 
  5782f6:	c7 05 7c 2c 5e 00 00 	movl   $0x0,0x5e2c7c
  5782fd:	00 00 00 
  578300:	31 c0                	xor    %eax,%eax
  578302:	c7 04 c5 80 2c 5e 00 	movl   $0x0,0x5e2c80(,%eax,8)
  578309:	00 00 00 00 
  57830d:	c7 04 c5 88 2c 5e 00 	movl   $0x0,0x5e2c88(,%eax,8)
  578314:	00 00 00 00 
  578318:	c7 04 c5 90 2c 5e 00 	movl   $0x0,0x5e2c90(,%eax,8)
  57831f:	00 00 00 00 
  578323:	c7 04 c5 98 2c 5e 00 	movl   $0x0,0x5e2c98(,%eax,8)
  57832a:	00 00 00 00 
  57832e:	c7 04 c5 a0 2c 5e 00 	movl   $0x0,0x5e2ca0(,%eax,8)
  578335:	00 00 00 00 
  578339:	c7 04 c5 a8 2c 5e 00 	movl   $0x0,0x5e2ca8(,%eax,8)
  578340:	00 00 00 00 
  578344:	c7 04 c5 b0 2c 5e 00 	movl   $0x0,0x5e2cb0(,%eax,8)
  57834b:	00 00 00 00 
  57834f:	c7 04 c5 b8 2c 5e 00 	movl   $0x0,0x5e2cb8(,%eax,8)
  578356:	00 00 00 00 
  57835a:	83 c0 08             	add    $0x8,%eax
  57835d:	83 f8 12             	cmp    $0x12,%eax
  578360:	7c a0                	jl     0x578302
  578362:	c7 04 c5 80 2c 5e 00 	movl   $0x0,0x5e2c80(,%eax,8)
  578369:	00 00 00 00 
  57836d:	c7 04 c5 88 2c 5e 00 	movl   $0x0,0x5e2c88(,%eax,8)
  578374:	00 00 00 00 
  578378:	c7 05 d0 2b 5e 00 10 	movl   $0x10,0x5e2bd0
  57837f:	00 00 00 
  578382:	c7 05 d4 2b 5e 00 00 	movl   $0x0,0x5e2bd4
  578389:	00 00 00 
  57838c:	c7 05 d8 2b 5e 00 00 	movl   $0x0,0x5e2bd8
  578393:	00 00 00 
  578396:	c7 05 dc 2b 5e 00 00 	movl   $0x0,0x5e2bdc
  57839d:	00 00 00 
  5783a0:	31 c0                	xor    %eax,%eax
  5783a2:	c7 04 c5 e0 2b 5e 00 	movl   $0x0,0x5e2be0(,%eax,8)
  5783a9:	00 00 00 00 
  5783ad:	c7 04 c5 e4 2b 5e 00 	movl   $0x0,0x5e2be4(,%eax,8)
  5783b4:	00 00 00 00 
  5783b8:	c7 04 c5 e8 2b 5e 00 	movl   $0x0,0x5e2be8(,%eax,8)
  5783bf:	00 00 00 00 
  5783c3:	c7 04 c5 ec 2b 5e 00 	movl   $0x0,0x5e2bec(,%eax,8)
  5783ca:	00 00 00 00 
  5783ce:	c7 04 c5 f0 2b 5e 00 	movl   $0x0,0x5e2bf0(,%eax,8)
  5783d5:	00 00 00 00 
  5783d9:	c7 04 c5 f4 2b 5e 00 	movl   $0x0,0x5e2bf4(,%eax,8)
  5783e0:	00 00 00 00 
  5783e4:	c7 04 c5 f8 2b 5e 00 	movl   $0x0,0x5e2bf8(,%eax,8)
  5783eb:	00 00 00 00 
  5783ef:	c7 04 c5 fc 2b 5e 00 	movl   $0x0,0x5e2bfc(,%eax,8)
  5783f6:	00 00 00 00 
  5783fa:	c7 04 c5 00 2c 5e 00 	movl   $0x0,0x5e2c00(,%eax,8)
  578401:	00 00 00 00 
  578405:	c7 04 c5 04 2c 5e 00 	movl   $0x0,0x5e2c04(,%eax,8)
  57840c:	00 00 00 00 
  578410:	c7 04 c5 08 2c 5e 00 	movl   $0x0,0x5e2c08(,%eax,8)
  578417:	00 00 00 00 
  57841b:	c7 04 c5 0c 2c 5e 00 	movl   $0x0,0x5e2c0c(,%eax,8)
  578422:	00 00 00 00 
  578426:	c7 04 c5 10 2c 5e 00 	movl   $0x0,0x5e2c10(,%eax,8)
  57842d:	00 00 00 00 
  578431:	c7 04 c5 14 2c 5e 00 	movl   $0x0,0x5e2c14(,%eax,8)
  578438:	00 00 00 00 
  57843c:	c7 04 c5 18 2c 5e 00 	movl   $0x0,0x5e2c18(,%eax,8)
  578443:	00 00 00 00 
  578447:	c7 04 c5 1c 2c 5e 00 	movl   $0x0,0x5e2c1c(,%eax,8)
  57844e:	00 00 00 00 
  578452:	83 c0 08             	add    $0x8,%eax
  578455:	83 f8 10             	cmp    $0x10,%eax
  578458:	0f 8c 44 ff ff ff    	jl     0x5783a2
  57845e:	c3                   	ret
  57845f:	00 53 55             	add    %dl,0x55(%ebx)
  578462:	8b 5c 24 0c          	mov    0xc(%esp),%ebx
  578466:	66 8b 6b 20          	mov    0x20(%ebx),%bp
  57846a:	0f bf c5             	movswl %bp,%eax
  57846d:	8d 04 80             	lea    (%eax,%eax,4),%eax
  578470:	0f be 04 45 2b 0c 5d 	movsbl 0x5d0c2b(,%eax,2),%eax
  578477:	00 
  578478:	8b 53 14             	mov    0x14(%ebx),%edx
  57847b:	89 d1                	mov    %edx,%ecx
  57847d:	83 e1 09             	and    $0x9,%ecx
  578480:	74 02                	je     0x578484
  578482:	31 d2                	xor    %edx,%edx
  578484:	81 e2 00 00 00 20    	and    $0x20000000,%edx
  57848a:	74 01                	je     0x57848d
  57848c:	40                   	inc    %eax
  57848d:	66 83 fd 27          	cmp    $0x27,%bp
  578491:	74 06                	je     0x578499
  578493:	66 83 fd 36          	cmp    $0x36,%bp
  578497:	75 09                	jne    0x5784a2
  578499:	0f bf 4b 22          	movswl 0x22(%ebx),%ecx
  57849d:	83 c1 fe             	add    $0xfffffffe,%ecx
  5784a0:	01 c8                	add    %ecx,%eax
  5784a2:	5d                   	pop    %ebp
  5784a3:	5b                   	pop    %ebx
  5784a4:	c3                   	ret
	...
  5784ad:	00 00                	add    %al,(%eax)
  5784af:	00 8b 54 24 04 0f    	add    %cl,0xf042454(%ebx)
  5784b5:	bf 4a 20 8d 04       	mov    $0x48d204a,%edi
  5784ba:	cd 00                	int    $0x0
  5784bc:	00 00                	add    %al,(%eax)
  5784be:	00 29                	add    %ch,(%ecx)
  5784c0:	c8 80 b8 38          	enter  $0xb880,$0x38
  5784c4:	1c 5d                	sbb    $0x5d,%al
  5784c6:	00 0a                	add    %cl,(%edx)
  5784c8:	0f 94 c0             	sete   %al
  5784cb:	83 e0 01             	and    $0x1,%eax
  5784ce:	c3                   	ret
  5784cf:	00 8b 54 24 04 0f    	add    %cl,0xf042454(%ebx)
  5784d5:	bf 4a 20 8d 04       	mov    $0x48d204a,%edi
  5784da:	cd 00                	int    $0x0
  5784dc:	00 00                	add    %al,(%eax)
  5784de:	00 29                	add    %ch,(%ecx)
  5784e0:	c8 0f be 80          	enter  $0xbe0f,$0x80
  5784e4:	3e 1c 5d             	ds sbb $0x5d,%al
  5784e7:	00 c3                	add    %al,%bl
  5784e9:	00 00                	add    %al,(%eax)
  5784eb:	00 00                	add    %al,(%eax)
  5784ed:	00 00                	add    %al,(%eax)
  5784ef:	00 53 c7             	add    %dl,-0x39(%ebx)
  5784f2:	05 ac 2d 5e 00       	add    $0x5e2dac,%eax
  5784f7:	00 00                	add    %al,(%eax)
  5784f9:	00 00                	add    %al,(%eax)
  5784fb:	c7 05 a8 2d 5e 00 00 	movl   $0x0,0x5e2da8
  578502:	00 00 00 
  578505:	31 c0                	xor    %eax,%eax
  578507:	83 3c c5 b0 2d 5e 00 	cmpl   $0x0,0x5e2db0(,%eax,8)
  57850e:	00 
  57850f:	74 11                	je     0x578522
  578511:	83 3c c5 b4 2d 5e 00 	cmpl   $0x0,0x5e2db4(,%eax,8)
  578518:	00 
  578519:	74 07                	je     0x578522
  57851b:	ff 0c c5 b4 2d 5e 00 	decl   0x5e2db4(,%eax,8)
  578522:	40                   	inc    %eax
  578523:	83 f8 12             	cmp    $0x12,%eax
  578526:	7c df                	jl     0x578507
  578528:	83 3d 5c 2d 5e 00 00 	cmpl   $0x0,0x5e2d5c
  57852f:	74 6c                	je     0x57859d
  578531:	a1 60 2d 5e 00       	mov    0x5e2d60,%eax
  578536:	83 3c c5 6c 2d 5e 00 	cmpl   $0x0,0x5e2d6c(,%eax,8)
  57853d:	00 
  57853e:	74 5d                	je     0x57859d
  578540:	c7 04 c5 68 2d 5e 00 	movl   $0x0,0x5e2d68(,%eax,8)
  578547:	00 00 00 00 
  57854b:	ff 0d 5c 2d 5e 00    	decl   0x5e2d5c
  578551:	ff 05 58 2d 5e 00    	incl   0x5e2d58
  578557:	a1 60 2d 5e 00       	mov    0x5e2d60,%eax
  57855c:	40                   	inc    %eax
  57855d:	83 e0 07             	and    $0x7,%eax
  578560:	a3 60 2d 5e 00       	mov    %eax,0x5e2d60
  578565:	83 3d 5c 2d 5e 00 00 	cmpl   $0x0,0x5e2d5c
  57856c:	74 2f                	je     0x57859d
  57856e:	83 3c c5 6c 2d 5e 00 	cmpl   $0x0,0x5e2d6c(,%eax,8)
  578575:	00 
  578576:	74 25                	je     0x57859d
  578578:	c7 04 c5 68 2d 5e 00 	movl   $0x0,0x5e2d68(,%eax,8)
  57857f:	00 00 00 00 
  578583:	ff 0d 5c 2d 5e 00    	decl   0x5e2d5c
  578589:	ff 05 58 2d 5e 00    	incl   0x5e2d58
  57858f:	a1 60 2d 5e 00       	mov    0x5e2d60,%eax
  578594:	40                   	inc    %eax
  578595:	83 e0 07             	and    $0x7,%eax
  578598:	a3 60 2d 5e 00       	mov    %eax,0x5e2d60
  57859d:	83 3d b8 2d 5e 00 00 	cmpl   $0x0,0x5e2db8
  5785a4:	74 44                	je     0x5785ea
  5785a6:	83 3d bc 2d 5e 00 00 	cmpl   $0x0,0x5e2dbc
  5785ad:	75 3b                	jne    0x5785ea
  5785af:	8b 0d b8 2d 5e 00    	mov    0x5e2db8,%ecx
  5785b5:	31 c0                	xor    %eax,%eax
  5785b7:	eb 08                	jmp    0x5785c1
  5785b9:	8d 84 20 00 00 00 00 	lea    0x0(%eax,%eiz,1),%eax
  5785c0:	40                   	inc    %eax
  5785c1:	83 f8 08             	cmp    $0x8,%eax
  5785c4:	7d 09                	jge    0x5785cf
  5785c6:	39 0c c5 68 2d 5e 00 	cmp    %ecx,0x5e2d68(,%eax,8)
  5785cd:	75 f1                	jne    0x5785c0
  5785cf:	c7 04 c5 6c 2d 5e 00 	movl   $0x1,0x5e2d6c(,%eax,8)
  5785d6:	01 00 00 00 
  5785da:	c7 05 b8 2d 5e 00 00 	movl   $0x0,0x5e2db8
  5785e1:	00 00 00 
  5785e4:	89 0d ac 2d 5e 00    	mov    %ecx,0x5e2dac
  5785ea:	83 3d 00 2e 5e 00 00 	cmpl   $0x0,0x5e2e00
  5785f1:	74 37                	je     0x57862a
  5785f3:	83 3d 04 2e 5e 00 00 	cmpl   $0x0,0x5e2e04
  5785fa:	75 2e                	jne    0x57862a
  5785fc:	8b 15 00 2e 5e 00    	mov    0x5e2e00,%edx
  578602:	31 c0                	xor    %eax,%eax
  578604:	eb 01                	jmp    0x578607
  578606:	40                   	inc    %eax
  578607:	83 f8 08             	cmp    $0x8,%eax
  57860a:	7d 09                	jge    0x578615
  57860c:	39 14 c5 68 2d 5e 00 	cmp    %edx,0x5e2d68(,%eax,8)
  578613:	75 f1                	jne    0x578606
  578615:	c7 04 c5 6c 2d 5e 00 	movl   $0x1,0x5e2d6c(,%eax,8)
  57861c:	01 00 00 00 
  578620:	c7 05 00 2e 5e 00 00 	movl   $0x0,0x5e2e00
  578627:	00 00 00 
  57862a:	83 3d d0 2d 5e 00 00 	cmpl   $0x0,0x5e2dd0
  578631:	74 37                	je     0x57866a
  578633:	83 3d d4 2d 5e 00 00 	cmpl   $0x0,0x5e2dd4
  57863a:	75 2e                	jne    0x57866a
  57863c:	8b 0d d0 2d 5e 00    	mov    0x5e2dd0,%ecx
  578642:	31 c0                	xor    %eax,%eax
  578644:	eb 01                	jmp    0x578647
  578646:	40                   	inc    %eax
  578647:	83 f8 08             	cmp    $0x8,%eax
  57864a:	7d 09                	jge    0x578655
  57864c:	39 0c c5 68 2d 5e 00 	cmp    %ecx,0x5e2d68(,%eax,8)
  578653:	75 f1                	jne    0x578646
  578655:	c7 04 c5 6c 2d 5e 00 	movl   $0x1,0x5e2d6c(,%eax,8)
  57865c:	01 00 00 00 
  578660:	c7 05 d0 2d 5e 00 00 	movl   $0x0,0x5e2dd0
  578667:	00 00 00 
  57866a:	83 3d e8 2d 5e 00 00 	cmpl   $0x0,0x5e2de8
  578671:	74 37                	je     0x5786aa
  578673:	83 3d ec 2d 5e 00 00 	cmpl   $0x0,0x5e2dec
  57867a:	75 2e                	jne    0x5786aa
  57867c:	8b 15 e8 2d 5e 00    	mov    0x5e2de8,%edx
  578682:	31 c0                	xor    %eax,%eax
  578684:	eb 01                	jmp    0x578687
  578686:	40                   	inc    %eax
  578687:	83 f8 08             	cmp    $0x8,%eax
  57868a:	7d 09                	jge    0x578695
  57868c:	39 14 c5 68 2d 5e 00 	cmp    %edx,0x5e2d68(,%eax,8)
  578693:	75 f1                	jne    0x578686
  578695:	c7 04 c5 6c 2d 5e 00 	movl   $0x1,0x5e2d6c(,%eax,8)
  57869c:	01 00 00 00 
  5786a0:	c7 05 e8 2d 5e 00 00 	movl   $0x0,0x5e2de8
  5786a7:	00 00 00 
  5786aa:	83 3d f0 2d 5e 00 00 	cmpl   $0x0,0x5e2df0
  5786b1:	74 37                	je     0x5786ea
  5786b3:	83 3d f4 2d 5e 00 00 	cmpl   $0x0,0x5e2df4
  5786ba:	75 2e                	jne    0x5786ea
  5786bc:	8b 0d f0 2d 5e 00    	mov    0x5e2df0,%ecx
  5786c2:	31 c0                	xor    %eax,%eax
  5786c4:	eb 01                	jmp    0x5786c7
  5786c6:	40                   	inc    %eax
  5786c7:	83 f8 08             	cmp    $0x8,%eax
  5786ca:	7d 09                	jge    0x5786d5
  5786cc:	39 0c c5 68 2d 5e 00 	cmp    %ecx,0x5e2d68(,%eax,8)
  5786d3:	75 f1                	jne    0x5786c6
  5786d5:	c7 04 c5 6c 2d 5e 00 	movl   $0x1,0x5e2d6c(,%eax,8)
  5786dc:	01 00 00 00 
  5786e0:	c7 05 f0 2d 5e 00 00 	movl   $0x0,0x5e2df0
  5786e7:	00 00 00 
  5786ea:	83 3d b0 2d 5e 00 00 	cmpl   $0x0,0x5e2db0
  5786f1:	74 37                	je     0x57872a
  5786f3:	83 3d b4 2d 5e 00 00 	cmpl   $0x0,0x5e2db4
  5786fa:	75 2e                	jne    0x57872a
  5786fc:	8b 15 b0 2d 5e 00    	mov    0x5e2db0,%edx
  578702:	31 c0                	xor    %eax,%eax
  578704:	eb 01                	jmp    0x578707
  578706:	40                   	inc    %eax
  578707:	83 f8 08             	cmp    $0x8,%eax
  57870a:	7d 09                	jge    0x578715
  57870c:	39 14 c5 68 2d 5e 00 	cmp    %edx,0x5e2d68(,%eax,8)
  578713:	75 f1                	jne    0x578706
  578715:	c7 04 c5 6c 2d 5e 00 	movl   $0x1,0x5e2d6c(,%eax,8)
  57871c:	01 00 00 00 
  578720:	c7 05 b0 2d 5e 00 00 	movl   $0x0,0x5e2db0
  578727:	00 00 00 
  57872a:	83 3d f8 2d 5e 00 00 	cmpl   $0x0,0x5e2df8
  578731:	74 37                	je     0x57876a
  578733:	83 3d fc 2d 5e 00 00 	cmpl   $0x0,0x5e2dfc
  57873a:	75 2e                	jne    0x57876a
  57873c:	8b 0d f8 2d 5e 00    	mov    0x5e2df8,%ecx
  578742:	31 c0                	xor    %eax,%eax
  578744:	eb 01                	jmp    0x578747
  578746:	40                   	inc    %eax
  578747:	83 f8 08             	cmp    $0x8,%eax
  57874a:	7d 09                	jge    0x578755
  57874c:	39 0c c5 68 2d 5e 00 	cmp    %ecx,0x5e2d68(,%eax,8)
  578753:	75 f1                	jne    0x578746
  578755:	c7 04 c5 6c 2d 5e 00 	movl   $0x1,0x5e2d6c(,%eax,8)
  57875c:	01 00 00 00 
  578760:	c7 05 f8 2d 5e 00 00 	movl   $0x0,0x5e2df8
  578767:	00 00 00 
  57876a:	83 3d 18 2e 5e 00 00 	cmpl   $0x0,0x5e2e18
  578771:	74 37                	je     0x5787aa
  578773:	83 3d 1c 2e 5e 00 00 	cmpl   $0x0,0x5e2e1c
  57877a:	75 2e                	jne    0x5787aa
  57877c:	8b 15 18 2e 5e 00    	mov    0x5e2e18,%edx
  578782:	31 c0                	xor    %eax,%eax
  578784:	eb 01                	jmp    0x578787
  578786:	40                   	inc    %eax
  578787:	83 f8 08             	cmp    $0x8,%eax
  57878a:	7d 09                	jge    0x578795
  57878c:	39 14 c5 68 2d 5e 00 	cmp    %edx,0x5e2d68(,%eax,8)
  578793:	75 f1                	jne    0x578786
  578795:	c7 04 c5 6c 2d 5e 00 	movl   $0x1,0x5e2d6c(,%eax,8)
  57879c:	01 00 00 00 
  5787a0:	c7 05 18 2e 5e 00 00 	movl   $0x0,0x5e2e18
  5787a7:	00 00 00 
  5787aa:	83 3d 38 2e 5e 00 00 	cmpl   $0x0,0x5e2e38
  5787b1:	74 37                	je     0x5787ea
  5787b3:	83 3d 3c 2e 5e 00 00 	cmpl   $0x0,0x5e2e3c
  5787ba:	75 2e                	jne    0x5787ea
  5787bc:	8b 0d 38 2e 5e 00    	mov    0x5e2e38,%ecx
  5787c2:	31 c0                	xor    %eax,%eax
  5787c4:	eb 01                	jmp    0x5787c7
  5787c6:	40                   	inc    %eax
  5787c7:	83 f8 08             	cmp    $0x8,%eax
  5787ca:	7d 09                	jge    0x5787d5
  5787cc:	39 0c c5 68 2d 5e 00 	cmp    %ecx,0x5e2d68(,%eax,8)
  5787d3:	75 f1                	jne    0x5787c6
  5787d5:	c7 04 c5 6c 2d 5e 00 	movl   $0x1,0x5e2d6c(,%eax,8)
  5787dc:	01 00 00 00 
  5787e0:	c7 05 38 2e 5e 00 00 	movl   $0x0,0x5e2e38
  5787e7:	00 00 00 
  5787ea:	83 3d c0 2d 5e 00 00 	cmpl   $0x0,0x5e2dc0
  5787f1:	74 3d                	je     0x578830
  5787f3:	83 3d c4 2d 5e 00 00 	cmpl   $0x0,0x5e2dc4
  5787fa:	75 34                	jne    0x578830
  5787fc:	8b 15 c0 2d 5e 00    	mov    0x5e2dc0,%edx
  578802:	31 c0                	xor    %eax,%eax
  578804:	eb 01                	jmp    0x578807
  578806:	40                   	inc    %eax
  578807:	83 f8 08             	cmp    $0x8,%eax
  57880a:	7d 09                	jge    0x578815
  57880c:	39 14 c5 68 2d 5e 00 	cmp    %edx,0x5e2d68(,%eax,8)
  578813:	75 f1                	jne    0x578806
  578815:	c7 04 c5 6c 2d 5e 00 	movl   $0x1,0x5e2d6c(,%eax,8)
  57881c:	01 00 00 00 
  578820:	c7 05 c0 2d 5e 00 00 	movl   $0x0,0x5e2dc0
  578827:	00 00 00 
  57882a:	89 15 a8 2d 5e 00    	mov    %edx,0x5e2da8
  578830:	a1 d8 2d 5e 00       	mov    0x5e2dd8,%eax
  578835:	85 c0                	test   %eax,%eax
  578837:	74 4b                	je     0x578884
  578839:	83 3d dc 2d 5e 00 00 	cmpl   $0x0,0x5e2ddc
  578840:	75 42                	jne    0x578884
  578842:	66 8b 58 20          	mov    0x20(%eax),%bx
  578846:	66 81 fb a8 00       	cmp    $0xa8,%bx
  57884b:	74 07                	je     0x578854
  57884d:	66 81 fb a9 00       	cmp    $0xa9,%bx
  578852:	75 30                	jne    0x578884
  578854:	8b 0d d8 2d 5e 00    	mov    0x5e2dd8,%ecx
  57885a:	31 c0                	xor    %eax,%eax
  57885c:	eb 03                	jmp    0x578861
  57885e:	89 c0                	mov    %eax,%eax
  578860:	40                   	inc    %eax
  578861:	83 f8 08             	cmp    $0x8,%eax
  578864:	7d 09                	jge    0x57886f
  578866:	39 0c c5 68 2d 5e 00 	cmp    %ecx,0x5e2d68(,%eax,8)
  57886d:	75 f1                	jne    0x578860
  57886f:	c7 04 c5 6c 2d 5e 00 	movl   $0x1,0x5e2d6c(,%eax,8)
  578876:	01 00 00 00 
  57887a:	c7 05 d8 2d 5e 00 00 	movl   $0x0,0x5e2dd8
  578881:	00 00 00 
  578884:	83 3d e0 2d 5e 00 00 	cmpl   $0x0,0x5e2de0
  57888b:	74 42                	je     0x5788cf
  57888d:	83 3d e4 2d 5e 00 00 	cmpl   $0x0,0x5e2de4
  578894:	75 39                	jne    0x5788cf
  578896:	83 3d e8 2d 5e 00 00 	cmpl   $0x0,0x5e2de8
  57889d:	75 30                	jne    0x5788cf
  57889f:	8b 1d e0 2d 5e 00    	mov    0x5e2de0,%ebx
  5788a5:	0f bf 53 20          	movswl 0x20(%ebx),%edx
  5788a9:	8d 04 d5 00 00 00 00 	lea    0x0(,%edx,8),%eax
  5788b0:	29 d0                	sub    %edx,%eax
  5788b2:	0f be 88 3c 1c 5d 00 	movsbl 0x5d1c3c(%eax),%ecx
  5788b9:	89 1d e8 2d 5e 00    	mov    %ebx,0x5e2de8
  5788bf:	89 0d ec 2d 5e 00    	mov    %ecx,0x5e2dec
  5788c5:	c7 05 e0 2d 5e 00 00 	movl   $0x0,0x5e2de0
  5788cc:	00 00 00 
  5788cf:	83 3d d8 2d 5e 00 00 	cmpl   $0x0,0x5e2dd8
  5788d6:	74 42                	je     0x57891a
  5788d8:	83 3d dc 2d 5e 00 00 	cmpl   $0x0,0x5e2ddc
  5788df:	75 39                	jne    0x57891a
  5788e1:	83 3d e0 2d 5e 00 00 	cmpl   $0x0,0x5e2de0
  5788e8:	75 30                	jne    0x57891a
  5788ea:	8b 15 d8 2d 5e 00    	mov    0x5e2dd8,%edx
  5788f0:	0f bf 4a 20          	movswl 0x20(%edx),%ecx
  5788f4:	8d 04 cd 00 00 00 00 	lea    0x0(,%ecx,8),%eax
  5788fb:	29 c8                	sub    %ecx,%eax
  5788fd:	0f be 98 3b 1c 5d 00 	movsbl 0x5d1c3b(%eax),%ebx
  578904:	89 15 e0 2d 5e 00    	mov    %edx,0x5e2de0
  57890a:	89 1d e4 2d 5e 00    	mov    %ebx,0x5e2de4
  578910:	c7 05 d8 2d 5e 00 00 	movl   $0x0,0x5e2dd8
  578917:	00 00 00 
  57891a:	83 3d c8 2d 5e 00 00 	cmpl   $0x0,0x5e2dc8
  578921:	74 42                	je     0x578965
  578923:	83 3d cc 2d 5e 00 00 	cmpl   $0x0,0x5e2dcc
  57892a:	75 39                	jne    0x578965
  57892c:	83 3d d0 2d 5e 00 00 	cmpl   $0x0,0x5e2dd0
  578933:	75 30                	jne    0x578965
  578935:	8b 0d c8 2d 5e 00    	mov    0x5e2dc8,%ecx
  57893b:	0f bf 51 20          	movswl 0x20(%ecx),%edx
  57893f:	8d 04 d5 00 00 00 00 	lea    0x0(,%edx,8),%eax
  578946:	29 d0                	sub    %edx,%eax
  578948:	0f be 98 3b 1c 5d 00 	movsbl 0x5d1c3b(%eax),%ebx
  57894f:	89 0d d0 2d 5e 00    	mov    %ecx,0x5e2dd0
  578955:	89 1d d4 2d 5e 00    	mov    %ebx,0x5e2dd4
  57895b:	c7 05 c8 2d 5e 00 00 	movl   $0x0,0x5e2dc8
  578962:	00 00 00 
  578965:	83 3d 10 2e 5e 00 00 	cmpl   $0x0,0x5e2e10
  57896c:	74 42                	je     0x5789b0
  57896e:	83 3d 14 2e 5e 00 00 	cmpl   $0x0,0x5e2e14
  578975:	75 39                	jne    0x5789b0
  578977:	83 3d 18 2e 5e 00 00 	cmpl   $0x0,0x5e2e18
  57897e:	75 30                	jne    0x5789b0
  578980:	8b 15 10 2e 5e 00    	mov    0x5e2e10,%edx
  578986:	0f bf 4a 20          	movswl 0x20(%edx),%ecx
  57898a:	8d 04 cd 00 00 00 00 	lea    0x0(,%ecx,8),%eax
  578991:	29 c8                	sub    %ecx,%eax
  578993:	0f be 98 3c 1c 5d 00 	movsbl 0x5d1c3c(%eax),%ebx
  57899a:	89 15 18 2e 5e 00    	mov    %edx,0x5e2e18
  5789a0:	89 1d 1c 2e 5e 00    	mov    %ebx,0x5e2e1c
  5789a6:	c7 05 10 2e 5e 00 00 	movl   $0x0,0x5e2e10
  5789ad:	00 00 00 
  5789b0:	83 3d 08 2e 5e 00 00 	cmpl   $0x0,0x5e2e08
  5789b7:	74 42                	je     0x5789fb
  5789b9:	83 3d 0c 2e 5e 00 00 	cmpl   $0x0,0x5e2e0c
  5789c0:	75 39                	jne    0x5789fb
  5789c2:	83 3d 10 2e 5e 00 00 	cmpl   $0x0,0x5e2e10
  5789c9:	75 30                	jne    0x5789fb
  5789cb:	8b 0d 08 2e 5e 00    	mov    0x5e2e08,%ecx
  5789d1:	0f bf 51 20          	movswl 0x20(%ecx),%edx
  5789d5:	8d 04 d5 00 00 00 00 	lea    0x0(,%edx,8),%eax
  5789dc:	29 d0                	sub    %edx,%eax
  5789de:	0f be 98 3b 1c 5d 00 	movsbl 0x5d1c3b(%eax),%ebx
  5789e5:	89 0d 10 2e 5e 00    	mov    %ecx,0x5e2e10
  5789eb:	89 1d 14 2e 5e 00    	mov    %ebx,0x5e2e14
  5789f1:	c7 05 08 2e 5e 00 00 	movl   $0x0,0x5e2e08
  5789f8:	00 00 00 
  5789fb:	83 3d 30 2e 5e 00 00 	cmpl   $0x0,0x5e2e30
  578a02:	74 42                	je     0x578a46
  578a04:	83 3d 34 2e 5e 00 00 	cmpl   $0x0,0x5e2e34
  578a0b:	75 39                	jne    0x578a46
  578a0d:	83 3d 38 2e 5e 00 00 	cmpl   $0x0,0x5e2e38
  578a14:	75 30                	jne    0x578a46
  578a16:	8b 15 30 2e 5e 00    	mov    0x5e2e30,%edx
  578a1c:	0f bf 4a 20          	movswl 0x20(%edx),%ecx
  578a20:	8d 04 cd 00 00 00 00 	lea    0x0(,%ecx,8),%eax
  578a27:	29 c8                	sub    %ecx,%eax
  578a29:	0f be 98 3d 1c 5d 00 	movsbl 0x5d1c3d(%eax),%ebx
  578a30:	89 15 38 2e 5e 00    	mov    %edx,0x5e2e38
  578a36:	89 1d 3c 2e 5e 00    	mov    %ebx,0x5e2e3c
  578a3c:	c7 05 30 2e 5e 00 00 	movl   $0x0,0x5e2e30
  578a43:	00 00 00 
  578a46:	83 3d 28 2e 5e 00 00 	cmpl   $0x0,0x5e2e28
  578a4d:	74 42                	je     0x578a91
  578a4f:	83 3d 2c 2e 5e 00 00 	cmpl   $0x0,0x5e2e2c
  578a56:	75 39                	jne    0x578a91
  578a58:	83 3d 30 2e 5e 00 00 	cmpl   $0x0,0x5e2e30
  578a5f:	75 30                	jne    0x578a91
  578a61:	8b 0d 28 2e 5e 00    	mov    0x5e2e28,%ecx
  578a67:	0f bf 51 20          	movswl 0x20(%ecx),%edx
  578a6b:	8d 04 d5 00 00 00 00 	lea    0x0(,%edx,8),%eax
  578a72:	29 d0                	sub    %edx,%eax
  578a74:	0f be 98 3c 1c 5d 00 	movsbl 0x5d1c3c(%eax),%ebx
  578a7b:	89 0d 30 2e 5e 00    	mov    %ecx,0x5e2e30
  578a81:	89 1d 34 2e 5e 00    	mov    %ebx,0x5e2e34
  578a87:	c7 05 28 2e 5e 00 00 	movl   $0x0,0x5e2e28
  578a8e:	00 00 00 
  578a91:	83 3d 20 2e 5e 00 00 	cmpl   $0x0,0x5e2e20
  578a98:	74 42                	je     0x578adc
  578a9a:	83 3d 24 2e 5e 00 00 	cmpl   $0x0,0x5e2e24
  578aa1:	75 39                	jne    0x578adc
  578aa3:	83 3d 28 2e 5e 00 00 	cmpl   $0x0,0x5e2e28
  578aaa:	75 30                	jne    0x578adc
  578aac:	8b 1d 20 2e 5e 00    	mov    0x5e2e20,%ebx
  578ab2:	0f bf 4b 20          	movswl 0x20(%ebx),%ecx
  578ab6:	8d 04 cd 00 00 00 00 	lea    0x0(,%ecx,8),%eax
  578abd:	29 c8                	sub    %ecx,%eax
  578abf:	0f be 90 3b 1c 5d 00 	movsbl 0x5d1c3b(%eax),%edx
  578ac6:	89 1d 28 2e 5e 00    	mov    %ebx,0x5e2e28
  578acc:	89 15 2c 2e 5e 00    	mov    %edx,0x5e2e2c
  578ad2:	c7 05 20 2e 5e 00 00 	movl   $0x0,0x5e2e20
  578ad9:	00 00 00 
  578adc:	5b                   	pop    %ebx
  578add:	c3                   	ret
  578ade:	00 00                	add    %al,(%eax)
  578ae0:	53                   	push   %ebx
  578ae1:	8b 5c 24 08          	mov    0x8(%esp),%ebx
  578ae5:	0f bf 43 20          	movswl 0x20(%ebx),%eax
  578ae9:	8d 14 c5 00 00 00 00 	lea    0x0(,%eax,8),%edx
  578af0:	29 c2                	sub    %eax,%edx
  578af2:	0f b6 82 38 1c 5d 00 	movzbl 0x5d1c38(%edx),%eax
  578af9:	0f be 8a 3a 1c 5d 00 	movsbl 0x5d1c3a(%edx),%ecx
  578b00:	ff 05 5c 2d 5e 00    	incl   0x5e2d5c
  578b06:	ff 0d 58 2d 5e 00    	decl   0x5e2d58
  578b0c:	8b 15 64 2d 5e 00    	mov    0x5e2d64,%edx
  578b12:	89 1c d5 68 2d 5e 00 	mov    %ebx,0x5e2d68(,%edx,8)
  578b19:	8b 15 64 2d 5e 00    	mov    0x5e2d64,%edx
  578b1f:	c7 04 d5 6c 2d 5e 00 	movl   $0x0,0x5e2d6c(,%edx,8)
  578b26:	00 00 00 00 
  578b2a:	8b 15 64 2d 5e 00    	mov    0x5e2d64,%edx
  578b30:	42                   	inc    %edx
  578b31:	83 e2 07             	and    $0x7,%edx
  578b34:	89 15 64 2d 5e 00    	mov    %edx,0x5e2d64
  578b3a:	83 f8 02             	cmp    $0x2,%eax
  578b3d:	75 0e                	jne    0x578b4d
  578b3f:	83 3d b8 2d 5e 00 00 	cmpl   $0x0,0x5e2db8
  578b46:	75 05                	jne    0x578b4d
  578b48:	b8 01 00 00 00       	mov    $0x1,%eax
  578b4d:	89 1c c5 b0 2d 5e 00 	mov    %ebx,0x5e2db0(,%eax,8)
  578b54:	89 0c c5 b4 2d 5e 00 	mov    %ecx,0x5e2db4(,%eax,8)
  578b5b:	5b                   	pop    %ebx
  578b5c:	c3                   	ret
  578b5d:	00 00                	add    %al,(%eax)
  578b5f:	00 53 56             	add    %dl,0x56(%ebx)
  578b62:	57                   	push   %edi
  578b63:	55                   	push   %ebp
  578b64:	83 ec 10             	sub    $0x10,%esp
  578b67:	8b 5c 24 24          	mov    0x24(%esp),%ebx
  578b6b:	83 3d 58 2d 5e 00 00 	cmpl   $0x0,0x5e2d58
  578b72:	75 0c                	jne    0x578b80
  578b74:	31 c0                	xor    %eax,%eax
  578b76:	83 c4 10             	add    $0x10,%esp
  578b79:	5d                   	pop    %ebp
  578b7a:	5f                   	pop    %edi
  578b7b:	5e                   	pop    %esi
  578b7c:	5b                   	pop    %ebx
  578b7d:	c3                   	ret
  578b7e:	89 c0                	mov    %eax,%eax
  578b80:	0f bf 4b 20          	movswl 0x20(%ebx),%ecx
  578b84:	8d 04 cd 00 00 00 00 	lea    0x0(,%ecx,8),%eax
  578b8b:	29 c8                	sub    %ecx,%eax
  578b8d:	0f b6 90 38 1c 5d 00 	movzbl 0x5d1c38(%eax),%edx
  578b94:	83 fa 02             	cmp    $0x2,%edx
  578b97:	0f 85 a6 00 00 00    	jne    0x578c43
  578b9d:	31 d2                	xor    %edx,%edx
  578b9f:	a1 b8 2d 5e 00       	mov    0x5e2db8,%eax
  578ba4:	85 c0                	test   %eax,%eax
  578ba6:	75 01                	jne    0x578ba9
  578ba8:	42                   	inc    %edx
  578ba9:	31 c9                	xor    %ecx,%ecx
  578bab:	8b 3d c0 2d 5e 00    	mov    0x5e2dc0,%edi
  578bb1:	85 ff                	test   %edi,%edi
  578bb3:	75 01                	jne    0x578bb6
  578bb5:	41                   	inc    %ecx
  578bb6:	85 d2                	test   %edx,%edx
  578bb8:	75 0e                	jne    0x578bc8
  578bba:	85 c9                	test   %ecx,%ecx
  578bbc:	75 0a                	jne    0x578bc8
  578bbe:	31 c0                	xor    %eax,%eax
  578bc0:	83 c4 10             	add    $0x10,%esp
  578bc3:	5d                   	pop    %ebp
  578bc4:	5f                   	pop    %edi
  578bc5:	5e                   	pop    %esi
  578bc6:	5b                   	pop    %ebx
  578bc7:	c3                   	ret
  578bc8:	85 d2                	test   %edx,%edx
  578bca:	74 14                	je     0x578be0
  578bcc:	85 c9                	test   %ecx,%ecx
  578bce:	74 10                	je     0x578be0
  578bd0:	b8 01 00 00 00       	mov    $0x1,%eax
  578bd5:	83 c4 10             	add    $0x10,%esp
  578bd8:	5d                   	pop    %ebp
  578bd9:	5f                   	pop    %edi
  578bda:	5e                   	pop    %esi
  578bdb:	5b                   	pop    %ebx
  578bdc:	c3                   	ret
  578bdd:	8d 40 00             	lea    0x0(%eax),%eax
  578be0:	85 d2                	test   %edx,%edx
  578be2:	74 02                	je     0x578be6
  578be4:	89 f8                	mov    %edi,%eax
  578be6:	6a 04                	push   $0x4
  578be8:	50                   	push   %eax
  578be9:	53                   	push   %ebx
  578bea:	e8 71 f0 f8 ff       	call   0x507c60
  578bef:	83 c4 0c             	add    $0xc,%esp
  578bf2:	85 c0                	test   %eax,%eax
  578bf4:	74 0a                	je     0x578c00
  578bf6:	31 c0                	xor    %eax,%eax
  578bf8:	83 c4 10             	add    $0x10,%esp
  578bfb:	5d                   	pop    %ebp
  578bfc:	5f                   	pop    %edi
  578bfd:	5e                   	pop    %esi
  578bfe:	5b                   	pop    %ebx
  578bff:	c3                   	ret
  578c00:	6a 04                	push   $0x4
  578c02:	a1 ac 2d 5e 00       	mov    0x5e2dac,%eax
  578c07:	50                   	push   %eax
  578c08:	53                   	push   %ebx
  578c09:	e8 52 f0 f8 ff       	call   0x507c60
  578c0e:	83 c4 0c             	add    $0xc,%esp
  578c11:	85 c0                	test   %eax,%eax
  578c13:	74 0b                	je     0x578c20
  578c15:	31 c0                	xor    %eax,%eax
  578c17:	83 c4 10             	add    $0x10,%esp
  578c1a:	5d                   	pop    %ebp
  578c1b:	5f                   	pop    %edi
  578c1c:	5e                   	pop    %esi
  578c1d:	5b                   	pop    %ebx
  578c1e:	c3                   	ret
  578c1f:	90                   	nop
  578c20:	6a 04                	push   $0x4
  578c22:	a1 a8 2d 5e 00       	mov    0x5e2da8,%eax
  578c27:	50                   	push   %eax
  578c28:	53                   	push   %ebx
  578c29:	e8 32 f0 f8 ff       	call   0x507c60
  578c2e:	83 c4 0c             	add    $0xc,%esp
  578c31:	85 c0                	test   %eax,%eax
  578c33:	0f 84 fe 00 00 00    	je     0x578d37
  578c39:	31 c0                	xor    %eax,%eax
  578c3b:	83 c4 10             	add    $0x10,%esp
  578c3e:	5d                   	pop    %ebp
  578c3f:	5f                   	pop    %edi
  578c40:	5e                   	pop    %esi
  578c41:	5b                   	pop    %ebx
  578c42:	c3                   	ret
  578c43:	83 fa 0e             	cmp    $0xe,%edx
  578c46:	74 0c                	je     0x578c54
  578c48:	8d 42 f7             	lea    -0x9(%edx),%eax
  578c4b:	83 f8 02             	cmp    $0x2,%eax
  578c4e:	0f 87 cf 00 00 00    	ja     0x578d23
  578c54:	8b 04 24             	mov    (%esp),%eax
  578c57:	33 04 24             	xor    (%esp),%eax
  578c5a:	89 04 24             	mov    %eax,(%esp)
  578c5d:	a1 00 2e 5e 00       	mov    0x5e2e00,%eax
  578c62:	89 44 24 0c          	mov    %eax,0xc(%esp)
  578c66:	85 c0                	test   %eax,%eax
  578c68:	75 07                	jne    0x578c71
  578c6a:	c7 04 24 01 00 00 00 	movl   $0x1,(%esp)
  578c71:	31 ed                	xor    %ebp,%ebp
  578c73:	8b 0d 20 2e 5e 00    	mov    0x5e2e20,%ecx
  578c79:	85 c9                	test   %ecx,%ecx
  578c7b:	75 01                	jne    0x578c7e
  578c7d:	45                   	inc    %ebp
  578c7e:	31 f6                	xor    %esi,%esi
  578c80:	a1 08 2e 5e 00       	mov    0x5e2e08,%eax
  578c85:	89 44 24 04          	mov    %eax,0x4(%esp)
  578c89:	39 f0                	cmp    %esi,%eax
  578c8b:	75 01                	jne    0x578c8e
  578c8d:	46                   	inc    %esi
  578c8e:	31 ff                	xor    %edi,%edi
  578c90:	a1 f8 2d 5e 00       	mov    0x5e2df8,%eax
  578c95:	85 c0                	test   %eax,%eax
  578c97:	75 01                	jne    0x578c9a
  578c99:	47                   	inc    %edi
  578c9a:	83 fa 0a             	cmp    $0xa,%edx
  578c9d:	75 45                	jne    0x578ce4
  578c9f:	83 3c 24 00          	cmpl   $0x0,(%esp)
  578ca3:	75 0b                	jne    0x578cb0
  578ca5:	31 c0                	xor    %eax,%eax
  578ca7:	83 c4 10             	add    $0x10,%esp
  578caa:	5d                   	pop    %ebp
  578cab:	5f                   	pop    %edi
  578cac:	5e                   	pop    %esi
  578cad:	5b                   	pop    %ebx
  578cae:	c3                   	ret
  578caf:	90                   	nop
  578cb0:	85 ed                	test   %ebp,%ebp
  578cb2:	74 16                	je     0x578cca
  578cb4:	85 f6                	test   %esi,%esi
  578cb6:	75 08                	jne    0x578cc0
  578cb8:	8b 4c 24 04          	mov    0x4(%esp),%ecx
  578cbc:	eb 0c                	jmp    0x578cca
  578cbe:	89 c0                	mov    %eax,%eax
  578cc0:	85 ff                	test   %edi,%edi
  578cc2:	75 04                	jne    0x578cc8
  578cc4:	89 c1                	mov    %eax,%ecx
  578cc6:	eb 02                	jmp    0x578cca
  578cc8:	31 c9                	xor    %ecx,%ecx
  578cca:	6a 02                	push   $0x2
  578ccc:	51                   	push   %ecx
  578ccd:	53                   	push   %ebx
  578cce:	e8 8d ef f8 ff       	call   0x507c60
  578cd3:	83 c4 0c             	add    $0xc,%esp
  578cd6:	85 c0                	test   %eax,%eax
  578cd8:	74 5d                	je     0x578d37
  578cda:	31 c0                	xor    %eax,%eax
  578cdc:	83 c4 10             	add    $0x10,%esp
  578cdf:	5d                   	pop    %ebp
  578ce0:	5f                   	pop    %edi
  578ce1:	5e                   	pop    %esi
  578ce2:	5b                   	pop    %ebx
  578ce3:	c3                   	ret
  578ce4:	85 ed                	test   %ebp,%ebp
  578ce6:	74 08                	je     0x578cf0
  578ce8:	85 f6                	test   %esi,%esi
  578cea:	74 04                	je     0x578cf0
  578cec:	85 ff                	test   %edi,%edi
  578cee:	75 10                	jne    0x578d00
  578cf0:	31 c0                	xor    %eax,%eax
  578cf2:	83 c4 10             	add    $0x10,%esp
  578cf5:	5d                   	pop    %ebp
  578cf6:	5f                   	pop    %edi
  578cf7:	5e                   	pop    %esi
  578cf8:	5b                   	pop    %ebx
  578cf9:	c3                   	ret
  578cfa:	8d 80 00 00 00 00    	lea    0x0(%eax),%eax
  578d00:	83 3c 24 00          	cmpl   $0x0,(%esp)
  578d04:	75 31                	jne    0x578d37
  578d06:	6a 02                	push   $0x2
  578d08:	ff 74 24 10          	push   0x10(%esp)
  578d0c:	53                   	push   %ebx
  578d0d:	e8 4e ef f8 ff       	call   0x507c60
  578d12:	83 c4 0c             	add    $0xc,%esp
  578d15:	85 c0                	test   %eax,%eax
  578d17:	74 1e                	je     0x578d37
  578d19:	31 c0                	xor    %eax,%eax
  578d1b:	83 c4 10             	add    $0x10,%esp
  578d1e:	5d                   	pop    %ebp
  578d1f:	5f                   	pop    %edi
  578d20:	5e                   	pop    %esi
  578d21:	5b                   	pop    %ebx
  578d22:	c3                   	ret
  578d23:	83 3c d5 b0 2d 5e 00 	cmpl   $0x0,0x5e2db0(,%edx,8)
  578d2a:	00 
  578d2b:	74 0a                	je     0x578d37
  578d2d:	31 c0                	xor    %eax,%eax
  578d2f:	83 c4 10             	add    $0x10,%esp
  578d32:	5d                   	pop    %ebp
  578d33:	5f                   	pop    %edi
  578d34:	5e                   	pop    %esi
  578d35:	5b                   	pop    %ebx
  578d36:	c3                   	ret
  578d37:	8b 43 14             	mov    0x14(%ebx),%eax
  578d3a:	83 e0 04             	and    $0x4,%eax
  578d3d:	74 21                	je     0x578d60
  578d3f:	8b 0d d0 2d 5e 00    	mov    0x5e2dd0,%ecx
  578d45:	85 c9                	test   %ecx,%ecx
  578d47:	74 17                	je     0x578d60
  578d49:	8b 41 14             	mov    0x14(%ecx),%eax
  578d4c:	83 e0 04             	and    $0x4,%eax
  578d4f:	74 0f                	je     0x578d60
  578d51:	31 c0                	xor    %eax,%eax
  578d53:	83 c4 10             	add    $0x10,%esp
  578d56:	5d                   	pop    %ebp
  578d57:	5f                   	pop    %edi
  578d58:	5e                   	pop    %esi
  578d59:	5b                   	pop    %ebx
  578d5a:	c3                   	ret
  578d5b:	89 c0                	mov    %eax,%eax
  578d5d:	8d 40 00             	lea    0x0(%eax),%eax
  578d60:	b8 01 00 00 00       	mov    $0x1,%eax
  578d65:	83 c4 10             	add    $0x10,%esp
  578d68:	5d                   	pop    %ebp
  578d69:	5f                   	pop    %edi
  578d6a:	5e                   	pop    %esi
  578d6b:	5b                   	pop    %ebx
  578d6c:	c3                   	ret
  578d6d:	00 00                	add    %al,(%eax)
  578d6f:	00 31                	add    %dh,(%ecx)
  578d71:	c0 c7 04             	rol    $0x4,%bh
  578d74:	c5 b0 2d 5e 00 00    	lds    0x5e2d(%eax),%esi
  578d7a:	00 00                	add    %al,(%eax)
  578d7c:	00 c7                	add    %al,%bh
  578d7e:	04 c5                	add    $0xc5,%al
  578d80:	b8 2d 5e 00 00       	mov    $0x5e2d,%eax
  578d85:	00 00                	add    %al,(%eax)
  578d87:	00 c7                	add    %al,%bh
  578d89:	04 c5                	add    $0xc5,%al
  578d8b:	c0 2d 5e 00 00 00 00 	shrb   $0x0,0x5e
  578d92:	00 c7                	add    %al,%bh
  578d94:	04 c5                	add    $0xc5,%al
  578d96:	c8 2d 5e 00          	enter  $0x5e2d,$0x0
  578d9a:	00 00                	add    %al,(%eax)
  578d9c:	00 00                	add    %al,(%eax)
  578d9e:	c7 04 c5 d0 2d 5e 00 	movl   $0x0,0x5e2dd0(,%eax,8)
  578da5:	00 00 00 00 
  578da9:	c7 04 c5 d8 2d 5e 00 	movl   $0x0,0x5e2dd8(,%eax,8)
  578db0:	00 00 00 00 
  578db4:	83 c0 06             	add    $0x6,%eax
  578db7:	83 f8 12             	cmp    $0x12,%eax
  578dba:	7c b6                	jl     0x578d72
  578dbc:	c7 05 58 2d 5e 00 08 	movl   $0x8,0x5e2d58
  578dc3:	00 00 00 
  578dc6:	c7 05 5c 2d 5e 00 00 	movl   $0x0,0x5e2d5c
  578dcd:	00 00 00 
  578dd0:	c7 05 60 2d 5e 00 00 	movl   $0x0,0x5e2d60
  578dd7:	00 00 00 
  578dda:	c7 05 64 2d 5e 00 00 	movl   $0x0,0x5e2d64
  578de1:	00 00 00 
  578de4:	c7 05 68 2d 5e 00 00 	movl   $0x0,0x5e2d68
  578deb:	00 00 00 
  578dee:	c7 05 70 2d 5e 00 00 	movl   $0x0,0x5e2d70
  578df5:	00 00 00 
  578df8:	c7 05 78 2d 5e 00 00 	movl   $0x0,0x5e2d78
  578dff:	00 00 00 
  578e02:	c7 05 80 2d 5e 00 00 	movl   $0x0,0x5e2d80
  578e09:	00 00 00 
  578e0c:	c7 05 88 2d 5e 00 00 	movl   $0x0,0x5e2d88
  578e13:	00 00 00 
  578e16:	c7 05 90 2d 5e 00 00 	movl   $0x0,0x5e2d90
  578e1d:	00 00 00 
  578e20:	c7 05 98 2d 5e 00 00 	movl   $0x0,0x5e2d98
  578e27:	00 00 00 
  578e2a:	c7 05 a0 2d 5e 00 00 	movl   $0x0,0x5e2da0
  578e31:	00 00 00 
  578e34:	c7 05 ac 2d 5e 00 00 	movl   $0x0,0x5e2dac
  578e3b:	00 00 00 
  578e3e:	c7 05 a8 2d 5e 00 00 	movl   $0x0,0x5e2da8
  578e45:	00 00 00 
  578e48:	c3                   	ret
  578e49:	00 00                	add    %al,(%eax)
  578e4b:	00 00                	add    %al,(%eax)
  578e4d:	00 00                	add    %al,(%eax)
  578e4f:	00 53 55             	add    %dl,0x55(%ebx)
  578e52:	8b 5c 24 0c          	mov    0xc(%esp),%ebx
  578e56:	66 8b 6b 20          	mov    0x20(%ebx),%bp
  578e5a:	0f bf d5             	movswl %bp,%edx
  578e5d:	8d 04 d5 00 00 00 00 	lea    0x0(,%edx,8),%eax
  578e64:	29 d0                	sub    %edx,%eax
  578e66:	0f be 80 39 1c 5d 00 	movsbl 0x5d1c39(%eax),%eax
  578e6d:	8b 53 14             	mov    0x14(%ebx),%edx
  578e70:	89 d1                	mov    %edx,%ecx
  578e72:	83 e1 09             	and    $0x9,%ecx
  578e75:	74 02                	je     0x578e79
  578e77:	31 d2                	xor    %edx,%edx
  578e79:	81 e2 00 00 00 20    	and    $0x20000000,%edx
  578e7f:	74 03                	je     0x578e84
  578e81:	83 c0 02             	add    $0x2,%eax
  578e84:	66 83 fd 27          	cmp    $0x27,%bp
  578e88:	74 06                	je     0x578e90
  578e8a:	66 83 fd 36          	cmp    $0x36,%bp
  578e8e:	75 09                	jne    0x578e99
  578e90:	0f bf 4b 22          	movswl 0x22(%ebx),%ecx
  578e94:	83 c1 fe             	add    $0xfffffffe,%ecx
  578e97:	01 c8                	add    %ecx,%eax
  578e99:	5d                   	pop    %ebp
  578e9a:	5b                   	pop    %ebx
  578e9b:	c3                   	ret
  578e9c:	00 00                	add    %al,(%eax)
  578e9e:	00 00                	add    %al,(%eax)
  578ea0:	8b 4c 24 04          	mov    0x4(%esp),%ecx
  578ea4:	0f bf 41 20          	movswl 0x20(%ecx),%eax
  578ea8:	8d 04 40             	lea    (%eax,%eax,2),%eax
  578eab:	0f be 04 45 3d 29 5d 	movsbl 0x5d293d(,%eax,2),%eax
  578eb2:	00 
  578eb3:	c3                   	ret
	...
  578ec0:	31 c0                	xor    %eax,%eax
  578ec2:	83 3c c5 78 2e 5e 00 	cmpl   $0x0,0x5e2e78(,%eax,8)
  578ec9:	00 
  578eca:	74 11                	je     0x578edd
  578ecc:	83 3c c5 7c 2e 5e 00 	cmpl   $0x0,0x5e2e7c(,%eax,8)
  578ed3:	00 
  578ed4:	74 07                	je     0x578edd
  578ed6:	ff 0c c5 7c 2e 5e 00 	decl   0x5e2e7c(,%eax,8)
  578edd:	40                   	inc    %eax
  578ede:	83 f8 08             	cmp    $0x8,%eax
  578ee1:	7c df                	jl     0x578ec2
  578ee3:	83 3d 44 2e 5e 00 00 	cmpl   $0x0,0x5e2e44
  578eea:	0f 84 8a 00 00 00    	je     0x578f7a
  578ef0:	a1 48 2e 5e 00       	mov    0x5e2e48,%eax
  578ef5:	83 3c c5 54 2e 5e 00 	cmpl   $0x0,0x5e2e54(,%eax,8)
  578efc:	00 
  578efd:	74 7b                	je     0x578f7a
  578eff:	c7 04 c5 50 2e 5e 00 	movl   $0x0,0x5e2e50(,%eax,8)
  578f06:	00 00 00 00 
  578f0a:	ff 0d 44 2e 5e 00    	decl   0x5e2e44
  578f10:	ff 05 40 2e 5e 00    	incl   0x5e2e40
  578f16:	8b 0d 48 2e 5e 00    	mov    0x5e2e48,%ecx
  578f1c:	41                   	inc    %ecx
  578f1d:	b8 cd cc cc cc       	mov    $0xcccccccd,%eax
  578f22:	f7 e1                	mul    %ecx
  578f24:	c1 ea 02             	shr    $0x2,%edx
  578f27:	6b d2 05             	imul   $0x5,%edx,%edx
  578f2a:	29 d1                	sub    %edx,%ecx
  578f2c:	89 0d 48 2e 5e 00    	mov    %ecx,0x5e2e48
  578f32:	83 3d 44 2e 5e 00 00 	cmpl   $0x0,0x5e2e44
  578f39:	74 3f                	je     0x578f7a
  578f3b:	89 c8                	mov    %ecx,%eax
  578f3d:	83 3c c5 54 2e 5e 00 	cmpl   $0x0,0x5e2e54(,%eax,8)
  578f44:	00 
  578f45:	74 33                	je     0x578f7a
  578f47:	c7 04 c5 50 2e 5e 00 	movl   $0x0,0x5e2e50(,%eax,8)
  578f4e:	00 00 00 00 
  578f52:	ff 0d 44 2e 5e 00    	decl   0x5e2e44
  578f58:	ff 05 40 2e 5e 00    	incl   0x5e2e40
  578f5e:	8b 0d 48 2e 5e 00    	mov    0x5e2e48,%ecx
  578f64:	41                   	inc    %ecx
  578f65:	b8 cd cc cc cc       	mov    $0xcccccccd,%eax
  578f6a:	f7 e1                	mul    %ecx
  578f6c:	c1 ea 02             	shr    $0x2,%edx
  578f6f:	6b d2 05             	imul   $0x5,%edx,%edx
  578f72:	29 d1                	sub    %edx,%ecx
  578f74:	89 0d 48 2e 5e 00    	mov    %ecx,0x5e2e48
  578f7a:	83 3d 80 2e 5e 00 00 	cmpl   $0x0,0x5e2e80
  578f81:	74 37                	je     0x578fba
  578f83:	83 3d 84 2e 5e 00 00 	cmpl   $0x0,0x5e2e84
  578f8a:	75 2e                	jne    0x578fba
  578f8c:	8b 15 80 2e 5e 00    	mov    0x5e2e80,%edx
  578f92:	31 c0                	xor    %eax,%eax
  578f94:	eb 01                	jmp    0x578f97
  578f96:	40                   	inc    %eax
  578f97:	83 f8 05             	cmp    $0x5,%eax
  578f9a:	7d 09                	jge    0x578fa5
  578f9c:	39 14 c5 50 2e 5e 00 	cmp    %edx,0x5e2e50(,%eax,8)
  578fa3:	75 f1                	jne    0x578f96
  578fa5:	c7 04 c5 54 2e 5e 00 	movl   $0x1,0x5e2e54(,%eax,8)
  578fac:	01 00 00 00 
  578fb0:	c7 05 80 2e 5e 00 00 	movl   $0x0,0x5e2e80
  578fb7:	00 00 00 
  578fba:	83 3d 90 2e 5e 00 00 	cmpl   $0x0,0x5e2e90
  578fc1:	74 37                	je     0x578ffa
  578fc3:	83 3d 94 2e 5e 00 00 	cmpl   $0x0,0x5e2e94
  578fca:	75 2e                	jne    0x578ffa
  578fcc:	8b 0d 90 2e 5e 00    	mov    0x5e2e90,%ecx
  578fd2:	31 c0                	xor    %eax,%eax
  578fd4:	eb 01                	jmp    0x578fd7
  578fd6:	40                   	inc    %eax
  578fd7:	83 f8 05             	cmp    $0x5,%eax
  578fda:	7d 09                	jge    0x578fe5
  578fdc:	39 0c c5 50 2e 5e 00 	cmp    %ecx,0x5e2e50(,%eax,8)
  578fe3:	75 f1                	jne    0x578fd6
  578fe5:	c7 04 c5 54 2e 5e 00 	movl   $0x1,0x5e2e54(,%eax,8)
  578fec:	01 00 00 00 
  578ff0:	c7 05 90 2e 5e 00 00 	movl   $0x0,0x5e2e90
  578ff7:	00 00 00 
  578ffa:	83 3d a8 2e 5e 00 00 	cmpl   $0x0,0x5e2ea8
  579001:	74 37                	je     0x57903a
  579003:	83 3d ac 2e 5e 00 00 	cmpl   $0x0,0x5e2eac
  57900a:	75 2e                	jne    0x57903a
  57900c:	8b 15 a8 2e 5e 00    	mov    0x5e2ea8,%edx
  579012:	31 c0                	xor    %eax,%eax
  579014:	eb 01                	jmp    0x579017
  579016:	40                   	inc    %eax
  579017:	83 f8 05             	cmp    $0x5,%eax
  57901a:	7d 09                	jge    0x579025
  57901c:	39 14 c5 50 2e 5e 00 	cmp    %edx,0x5e2e50(,%eax,8)
  579023:	75 f1                	jne    0x579016
  579025:	c7 04 c5 54 2e 5e 00 	movl   $0x1,0x5e2e54(,%eax,8)
  57902c:	01 00 00 00 
  579030:	c7 05 a8 2e 5e 00 00 	movl   $0x0,0x5e2ea8
  579037:	00 00 00 
  57903a:	83 3d b0 2e 5e 00 00 	cmpl   $0x0,0x5e2eb0
  579041:	74 37                	je     0x57907a
  579043:	83 3d b4 2e 5e 00 00 	cmpl   $0x0,0x5e2eb4
  57904a:	75 2e                	jne    0x57907a
  57904c:	8b 0d b0 2e 5e 00    	mov    0x5e2eb0,%ecx
  579052:	31 c0                	xor    %eax,%eax
  579054:	eb 01                	jmp    0x579057
  579056:	40                   	inc    %eax
  579057:	83 f8 05             	cmp    $0x5,%eax
  57905a:	7d 09                	jge    0x579065
  57905c:	39 0c c5 50 2e 5e 00 	cmp    %ecx,0x5e2e50(,%eax,8)
  579063:	75 f1                	jne    0x579056
  579065:	c7 04 c5 54 2e 5e 00 	movl   $0x1,0x5e2e54(,%eax,8)
  57906c:	01 00 00 00 
  579070:	c7 05 b0 2e 5e 00 00 	movl   $0x0,0x5e2eb0
  579077:	00 00 00 
  57907a:	83 3d 78 2e 5e 00 00 	cmpl   $0x0,0x5e2e78
  579081:	74 37                	je     0x5790ba
  579083:	83 3d 7c 2e 5e 00 00 	cmpl   $0x0,0x5e2e7c
  57908a:	75 2e                	jne    0x5790ba
  57908c:	8b 15 78 2e 5e 00    	mov    0x5e2e78,%edx
  579092:	31 c0                	xor    %eax,%eax
  579094:	eb 01                	jmp    0x579097
  579096:	40                   	inc    %eax
  579097:	83 f8 05             	cmp    $0x5,%eax
  57909a:	7d 09                	jge    0x5790a5
  57909c:	39 14 c5 50 2e 5e 00 	cmp    %edx,0x5e2e50(,%eax,8)
  5790a3:	75 f1                	jne    0x579096
  5790a5:	c7 04 c5 54 2e 5e 00 	movl   $0x1,0x5e2e54(,%eax,8)
  5790ac:	01 00 00 00 
  5790b0:	c7 05 78 2e 5e 00 00 	movl   $0x0,0x5e2e78
  5790b7:	00 00 00 
  5790ba:	a1 98 2e 5e 00       	mov    0x5e2e98,%eax
  5790bf:	85 c0                	test   %eax,%eax
  5790c1:	74 49                	je     0x57910c
  5790c3:	83 3d 9c 2e 5e 00 00 	cmpl   $0x0,0x5e2e9c
  5790ca:	75 40                	jne    0x57910c
  5790cc:	66 8b 50 20          	mov    0x20(%eax),%dx
  5790d0:	66 81 fa a8 00       	cmp    $0xa8,%dx
  5790d5:	74 07                	je     0x5790de
  5790d7:	66 81 fa a9 00       	cmp    $0xa9,%dx
  5790dc:	75 2e                	jne    0x57910c
  5790de:	8b 0d 98 2e 5e 00    	mov    0x5e2e98,%ecx
  5790e4:	31 c0                	xor    %eax,%eax
  5790e6:	eb 01                	jmp    0x5790e9
  5790e8:	40                   	inc    %eax
  5790e9:	83 f8 05             	cmp    $0x5,%eax
  5790ec:	7d 09                	jge    0x5790f7
  5790ee:	39 0c c5 50 2e 5e 00 	cmp    %ecx,0x5e2e50(,%eax,8)
  5790f5:	75 f1                	jne    0x5790e8
  5790f7:	c7 04 c5 54 2e 5e 00 	movl   $0x1,0x5e2e54(,%eax,8)
  5790fe:	01 00 00 00 
  579102:	c7 05 98 2e 5e 00 00 	movl   $0x0,0x5e2e98
  579109:	00 00 00 
  57910c:	83 3d a0 2e 5e 00 00 	cmpl   $0x0,0x5e2ea0
  579113:	74 3d                	je     0x579152
  579115:	83 3d a4 2e 5e 00 00 	cmpl   $0x0,0x5e2ea4
  57911c:	75 34                	jne    0x579152
  57911e:	83 3d a8 2e 5e 00 00 	cmpl   $0x0,0x5e2ea8
  579125:	75 2b                	jne    0x579152
  579127:	8b 0d a0 2e 5e 00    	mov    0x5e2ea0,%ecx
  57912d:	0f bf 41 20          	movswl 0x20(%ecx),%eax
  579131:	8d 04 40             	lea    (%eax,%eax,2),%eax
  579134:	0f be 14 45 3c 29 5d 	movsbl 0x5d293c(,%eax,2),%edx
  57913b:	00 
  57913c:	89 0d a8 2e 5e 00    	mov    %ecx,0x5e2ea8
  579142:	89 15 ac 2e 5e 00    	mov    %edx,0x5e2eac
  579148:	c7 05 a0 2e 5e 00 00 	movl   $0x0,0x5e2ea0
  57914f:	00 00 00 
  579152:	83 3d 98 2e 5e 00 00 	cmpl   $0x0,0x5e2e98
  579159:	74 3d                	je     0x579198
  57915b:	83 3d 9c 2e 5e 00 00 	cmpl   $0x0,0x5e2e9c
  579162:	75 34                	jne    0x579198
  579164:	83 3d a0 2e 5e 00 00 	cmpl   $0x0,0x5e2ea0
  57916b:	75 2b                	jne    0x579198
  57916d:	8b 15 98 2e 5e 00    	mov    0x5e2e98,%edx
  579173:	0f bf 42 20          	movswl 0x20(%edx),%eax
  579177:	8d 04 40             	lea    (%eax,%eax,2),%eax
  57917a:	0f be 0c 45 3b 29 5d 	movsbl 0x5d293b(,%eax,2),%ecx
  579181:	00 
  579182:	89 15 a0 2e 5e 00    	mov    %edx,0x5e2ea0
  579188:	89 0d a4 2e 5e 00    	mov    %ecx,0x5e2ea4
  57918e:	c7 05 98 2e 5e 00 00 	movl   $0x0,0x5e2e98
  579195:	00 00 00 
  579198:	83 3d 88 2e 5e 00 00 	cmpl   $0x0,0x5e2e88
  57919f:	74 3d                	je     0x5791de
  5791a1:	83 3d 8c 2e 5e 00 00 	cmpl   $0x0,0x5e2e8c
  5791a8:	75 34                	jne    0x5791de
  5791aa:	83 3d 90 2e 5e 00 00 	cmpl   $0x0,0x5e2e90
  5791b1:	75 2b                	jne    0x5791de
  5791b3:	8b 0d 88 2e 5e 00    	mov    0x5e2e88,%ecx
  5791b9:	0f bf 41 20          	movswl 0x20(%ecx),%eax
  5791bd:	8d 04 40             	lea    (%eax,%eax,2),%eax
  5791c0:	0f be 14 45 3b 29 5d 	movsbl 0x5d293b(,%eax,2),%edx
  5791c7:	00 
  5791c8:	89 0d 90 2e 5e 00    	mov    %ecx,0x5e2e90
  5791ce:	89 15 94 2e 5e 00    	mov    %edx,0x5e2e94
  5791d4:	c7 05 88 2e 5e 00 00 	movl   $0x0,0x5e2e88
  5791db:	00 00 00 
  5791de:	c3                   	ret
  5791df:	00 53 56             	add    %dl,0x56(%ebx)
  5791e2:	55                   	push   %ebp
  5791e3:	8b 4c 24 10          	mov    0x10(%esp),%ecx
  5791e7:	0f bf 69 20          	movswl 0x20(%ecx),%ebp
  5791eb:	8d 6c 6d 00          	lea    0x0(%ebp,%ebp,2),%ebp
  5791ef:	01 ed                	add    %ebp,%ebp
  5791f1:	0f b6 9d 38 29 5d 00 	movzbl 0x5d2938(%ebp),%ebx
  5791f8:	ff 05 44 2e 5e 00    	incl   0x5e2e44
  5791fe:	ff 0d 40 2e 5e 00    	decl   0x5e2e40
  579204:	8b 15 4c 2e 5e 00    	mov    0x5e2e4c,%edx
  57920a:	89 0c d5 50 2e 5e 00 	mov    %ecx,0x5e2e50(,%edx,8)
  579211:	a1 4c 2e 5e 00       	mov    0x5e2e4c,%eax
  579216:	c7 04 c5 54 2e 5e 00 	movl   $0x0,0x5e2e54(,%eax,8)
  57921d:	00 00 00 00 
  579221:	8b 35 4c 2e 5e 00    	mov    0x5e2e4c,%esi
  579227:	46                   	inc    %esi
  579228:	b8 cd cc cc cc       	mov    $0xcccccccd,%eax
  57922d:	f7 e6                	mul    %esi
  57922f:	c1 ea 02             	shr    $0x2,%edx
  579232:	6b d2 05             	imul   $0x5,%edx,%edx
  579235:	29 d6                	sub    %edx,%esi
  579237:	89 35 4c 2e 5e 00    	mov    %esi,0x5e2e4c
  57923d:	89 0c dd 78 2e 5e 00 	mov    %ecx,0x5e2e78(,%ebx,8)
  579244:	0f be 85 3a 29 5d 00 	movsbl 0x5d293a(%ebp),%eax
  57924b:	89 04 dd 7c 2e 5e 00 	mov    %eax,0x5e2e7c(,%ebx,8)
  579252:	5d                   	pop    %ebp
  579253:	5e                   	pop    %esi
  579254:	5b                   	pop    %ebx
  579255:	c3                   	ret
	...
  57925e:	00 00                	add    %al,(%eax)
  579260:	8b 54 24 04          	mov    0x4(%esp),%edx
  579264:	83 3d 40 2e 5e 00 00 	cmpl   $0x0,0x5e2e40
  57926b:	75 03                	jne    0x579270
  57926d:	31 c0                	xor    %eax,%eax
  57926f:	c3                   	ret
  579270:	0f bf 4a 20          	movswl 0x20(%edx),%ecx
  579274:	8d 0c 49             	lea    (%ecx,%ecx,2),%ecx
  579277:	0f b6 04 4d 38 29 5d 	movzbl 0x5d2938(,%ecx,2),%eax
  57927e:	00 
  57927f:	83 3c c5 78 2e 5e 00 	cmpl   $0x0,0x5e2e78(,%eax,8)
  579286:	00 
  579287:	74 07                	je     0x579290
  579289:	31 c0                	xor    %eax,%eax
  57928b:	c3                   	ret
  57928c:	8d 44 20 00          	lea    0x0(%eax,%eiz,1),%eax
  579290:	8b 42 14             	mov    0x14(%edx),%eax
  579293:	83 e0 04             	and    $0x4,%eax
  579296:	74 18                	je     0x5792b0
  579298:	8b 0d 90 2e 5e 00    	mov    0x5e2e90,%ecx
  57929e:	85 c9                	test   %ecx,%ecx
  5792a0:	74 0e                	je     0x5792b0
  5792a2:	8b 41 14             	mov    0x14(%ecx),%eax
  5792a5:	83 e0 04             	and    $0x4,%eax
  5792a8:	74 06                	je     0x5792b0
  5792aa:	31 c0                	xor    %eax,%eax
  5792ac:	c3                   	ret
  5792ad:	8d 40 00             	lea    0x0(%eax),%eax
  5792b0:	b8 01 00 00 00       	mov    $0x1,%eax
  5792b5:	c3                   	ret
	...
  5792be:	00 00                	add    %al,(%eax)
  5792c0:	c7 05 78 2e 5e 00 00 	movl   $0x0,0x5e2e78
  5792c7:	00 00 00 
  5792ca:	c7 05 80 2e 5e 00 00 	movl   $0x0,0x5e2e80
  5792d1:	00 00 00 
  5792d4:	c7 05 88 2e 5e 00 00 	movl   $0x0,0x5e2e88
  5792db:	00 00 00 
  5792de:	c7 05 90 2e 5e 00 00 	movl   $0x0,0x5e2e90
  5792e5:	00 00 00 
  5792e8:	c7 05 98 2e 5e 00 00 	movl   $0x0,0x5e2e98
  5792ef:	00 00 00 
  5792f2:	c7 05 a0 2e 5e 00 00 	movl   $0x0,0x5e2ea0
  5792f9:	00 00 00 
  5792fc:	c7 05 a8 2e 5e 00 00 	movl   $0x0,0x5e2ea8
  579303:	00 00 00 
  579306:	c7 05 b0 2e 5e 00 00 	movl   $0x0,0x5e2eb0
  57930d:	00 00 00 
  579310:	c7 05 40 2e 5e 00 05 	movl   $0x5,0x5e2e40
  579317:	00 00 00 
  57931a:	c7 05 44 2e 5e 00 00 	movl   $0x0,0x5e2e44
  579321:	00 00 00 
  579324:	c7 05 48 2e 5e 00 00 	movl   $0x0,0x5e2e48
  57932b:	00 00 00 
  57932e:	c7 05 4c 2e 5e 00 00 	movl   $0x0,0x5e2e4c
  579335:	00 00 00 
  579338:	c7 05 50 2e 5e 00 00 	movl   $0x0,0x5e2e50
  57933f:	00 00 00 
  579342:	c7 05 58 2e 5e 00 00 	movl   $0x0,0x5e2e58
  579349:	00 00 00 
  57934c:	c7 05 60 2e 5e 00 00 	movl   $0x0,0x5e2e60
  579353:	00 00 00 
  579356:	c7 05 68 2e 5e 00 00 	movl   $0x0,0x5e2e68
  57935d:	00 00 00 
  579360:	c7 05 70 2e 5e 00 00 	movl   $0x0,0x5e2e70
  579367:	00 00 00 
  57936a:	c3                   	ret
  57936b:	00 00                	add    %al,(%eax)
  57936d:	00 00                	add    %al,(%eax)
  57936f:	00 53 55             	add    %dl,0x55(%ebx)
  579372:	8b 5c 24 0c          	mov    0xc(%esp),%ebx
  579376:	66 8b 6b 20          	mov    0x20(%ebx),%bp
  57937a:	0f bf c5             	movswl %bp,%eax
  57937d:	8d 04 40             	lea    (%eax,%eax,2),%eax
  579380:	0f be 04 45 39 29 5d 	movsbl 0x5d2939(,%eax,2),%eax
  579387:	00 
  579388:	8b 53 14             	mov    0x14(%ebx),%edx
  57938b:	89 d1                	mov    %edx,%ecx
  57938d:	83 e1 09             	and    $0x9,%ecx
  579390:	74 02                	je     0x579394
  579392:	31 d2                	xor    %edx,%edx
  579394:	81 e2 00 00 00 20    	and    $0x20000000,%edx
  57939a:	74 03                	je     0x57939f
  57939c:	83 c0 02             	add    $0x2,%eax
  57939f:	66 83 fd 27          	cmp    $0x27,%bp
  5793a3:	74 06                	je     0x5793ab
  5793a5:	66 83 fd 36          	cmp    $0x36,%bp
  5793a9:	75 09                	jne    0x5793b4
  5793ab:	0f bf 4b 22          	movswl 0x22(%ebx),%ecx
  5793af:	83 c1 fe             	add    $0xfffffffe,%ecx
  5793b2:	01 c8                	add    %ecx,%eax
  5793b4:	5d                   	pop    %ebp
  5793b5:	5b                   	pop    %ebx
  5793b6:	c3                   	ret
	...
  5793bf:	00 8b 4c 24 04 0f    	add    %cl,0xf04244c(%ebx)
  5793c5:	bf 41 20 8d 04       	mov    $0x48d2041,%edi
  5793ca:	40                   	inc    %eax
  5793cb:	0f be 04 45 65 34 5d 	movsbl 0x5d3465(,%eax,2),%eax
  5793d2:	00 
  5793d3:	c3                   	ret
	...
  5793e0:	31 c0                	xor    %eax,%eax
  5793e2:	83 3c c5 f0 2e 5e 00 	cmpl   $0x0,0x5e2ef0(,%eax,8)
  5793e9:	00 
  5793ea:	74 11                	je     0x5793fd
  5793ec:	83 3c c5 f4 2e 5e 00 	cmpl   $0x0,0x5e2ef4(,%eax,8)
  5793f3:	00 
  5793f4:	74 07                	je     0x5793fd
  5793f6:	ff 0c c5 f4 2e 5e 00 	decl   0x5e2ef4(,%eax,8)
  5793fd:	40                   	inc    %eax
  5793fe:	83 f8 08             	cmp    $0x8,%eax
  579401:	7c df                	jl     0x5793e2
  579403:	83 3d bc 2e 5e 00 00 	cmpl   $0x0,0x5e2ebc
  57940a:	0f 84 8a 00 00 00    	je     0x57949a
  579410:	a1 c0 2e 5e 00       	mov    0x5e2ec0,%eax
  579415:	83 3c c5 cc 2e 5e 00 	cmpl   $0x0,0x5e2ecc(,%eax,8)
  57941c:	00 
  57941d:	74 7b                	je     0x57949a
  57941f:	c7 04 c5 c8 2e 5e 00 	movl   $0x0,0x5e2ec8(,%eax,8)
  579426:	00 00 00 00 
  57942a:	ff 0d bc 2e 5e 00    	decl   0x5e2ebc
  579430:	ff 05 b8 2e 5e 00    	incl   0x5e2eb8
  579436:	8b 0d c0 2e 5e 00    	mov    0x5e2ec0,%ecx
  57943c:	41                   	inc    %ecx
  57943d:	b8 cd cc cc cc       	mov    $0xcccccccd,%eax
  579442:	f7 e1                	mul    %ecx
  579444:	c1 ea 02             	shr    $0x2,%edx
  579447:	6b d2 05             	imul   $0x5,%edx,%edx
  57944a:	29 d1                	sub    %edx,%ecx
  57944c:	89 0d c0 2e 5e 00    	mov    %ecx,0x5e2ec0
  579452:	83 3d bc 2e 5e 00 00 	cmpl   $0x0,0x5e2ebc
  579459:	74 3f                	je     0x57949a
  57945b:	89 c8                	mov    %ecx,%eax
  57945d:	83 3c c5 cc 2e 5e 00 	cmpl   $0x0,0x5e2ecc(,%eax,8)
  579464:	00 
  579465:	74 33                	je     0x57949a
  579467:	c7 04 c5 c8 2e 5e 00 	movl   $0x0,0x5e2ec8(,%eax,8)
  57946e:	00 00 00 00 
  579472:	ff 0d bc 2e 5e 00    	decl   0x5e2ebc
  579478:	ff 05 b8 2e 5e 00    	incl   0x5e2eb8
  57947e:	8b 0d c0 2e 5e 00    	mov    0x5e2ec0,%ecx
  579484:	41                   	inc    %ecx
  579485:	b8 cd cc cc cc       	mov    $0xcccccccd,%eax
  57948a:	f7 e1                	mul    %ecx
  57948c:	c1 ea 02             	shr    $0x2,%edx
  57948f:	6b d2 05             	imul   $0x5,%edx,%edx
  579492:	29 d1                	sub    %edx,%ecx
  579494:	89 0d c0 2e 5e 00    	mov    %ecx,0x5e2ec0
  57949a:	83 3d f8 2e 5e 00 00 	cmpl   $0x0,0x5e2ef8
  5794a1:	74 37                	je     0x5794da
  5794a3:	83 3d fc 2e 5e 00 00 	cmpl   $0x0,0x5e2efc
  5794aa:	75 2e                	jne    0x5794da
  5794ac:	8b 15 f8 2e 5e 00    	mov    0x5e2ef8,%edx
  5794b2:	31 c0                	xor    %eax,%eax
  5794b4:	eb 01                	jmp    0x5794b7
  5794b6:	40                   	inc    %eax
  5794b7:	83 f8 05             	cmp    $0x5,%eax
  5794ba:	7d 09                	jge    0x5794c5
  5794bc:	39 14 c5 c8 2e 5e 00 	cmp    %edx,0x5e2ec8(,%eax,8)
  5794c3:	75 f1                	jne    0x5794b6
  5794c5:	c7 04 c5 cc 2e 5e 00 	movl   $0x1,0x5e2ecc(,%eax,8)
  5794cc:	01 00 00 00 
  5794d0:	c7 05 f8 2e 5e 00 00 	movl   $0x0,0x5e2ef8
  5794d7:	00 00 00 
  5794da:	83 3d 08 2f 5e 00 00 	cmpl   $0x0,0x5e2f08
  5794e1:	74 37                	je     0x57951a
  5794e3:	83 3d 0c 2f 5e 00 00 	cmpl   $0x0,0x5e2f0c
  5794ea:	75 2e                	jne    0x57951a
  5794ec:	8b 0d 08 2f 5e 00    	mov    0x5e2f08,%ecx
  5794f2:	31 c0                	xor    %eax,%eax
  5794f4:	eb 01                	jmp    0x5794f7
  5794f6:	40                   	inc    %eax
  5794f7:	83 f8 05             	cmp    $0x5,%eax
  5794fa:	7d 09                	jge    0x579505
  5794fc:	39 0c c5 c8 2e 5e 00 	cmp    %ecx,0x5e2ec8(,%eax,8)
  579503:	75 f1                	jne    0x5794f6
  579505:	c7 04 c5 cc 2e 5e 00 	movl   $0x1,0x5e2ecc(,%eax,8)
  57950c:	01 00 00 00 
  579510:	c7 05 08 2f 5e 00 00 	movl   $0x0,0x5e2f08
  579517:	00 00 00 
  57951a:	83 3d 20 2f 5e 00 00 	cmpl   $0x0,0x5e2f20
  579521:	74 37                	je     0x57955a
  579523:	83 3d 24 2f 5e 00 00 	cmpl   $0x0,0x5e2f24
  57952a:	75 2e                	jne    0x57955a
  57952c:	8b 15 20 2f 5e 00    	mov    0x5e2f20,%edx
  579532:	31 c0                	xor    %eax,%eax
  579534:	eb 01                	jmp    0x579537
  579536:	40                   	inc    %eax
  579537:	83 f8 05             	cmp    $0x5,%eax
  57953a:	7d 09                	jge    0x579545
  57953c:	39 14 c5 c8 2e 5e 00 	cmp    %edx,0x5e2ec8(,%eax,8)
  579543:	75 f1                	jne    0x579536
  579545:	c7 04 c5 cc 2e 5e 00 	movl   $0x1,0x5e2ecc(,%eax,8)
  57954c:	01 00 00 00 
  579550:	c7 05 20 2f 5e 00 00 	movl   $0x0,0x5e2f20
  579557:	00 00 00 
  57955a:	83 3d 28 2f 5e 00 00 	cmpl   $0x0,0x5e2f28
  579561:	74 37                	je     0x57959a
  579563:	83 3d 2c 2f 5e 00 00 	cmpl   $0x0,0x5e2f2c
  57956a:	75 2e                	jne    0x57959a
  57956c:	8b 0d 28 2f 5e 00    	mov    0x5e2f28,%ecx
  579572:	31 c0                	xor    %eax,%eax
  579574:	eb 01                	jmp    0x579577
  579576:	40                   	inc    %eax
  579577:	83 f8 05             	cmp    $0x5,%eax
  57957a:	7d 09                	jge    0x579585
  57957c:	39 0c c5 c8 2e 5e 00 	cmp    %ecx,0x5e2ec8(,%eax,8)
  579583:	75 f1                	jne    0x579576
  579585:	c7 04 c5 cc 2e 5e 00 	movl   $0x1,0x5e2ecc(,%eax,8)
  57958c:	01 00 00 00 
  579590:	c7 05 28 2f 5e 00 00 	movl   $0x0,0x5e2f28
  579597:	00 00 00 
  57959a:	83 3d f0 2e 5e 00 00 	cmpl   $0x0,0x5e2ef0
  5795a1:	74 37                	je     0x5795da
  5795a3:	83 3d f4 2e 5e 00 00 	cmpl   $0x0,0x5e2ef4
  5795aa:	75 2e                	jne    0x5795da
  5795ac:	8b 15 f0 2e 5e 00    	mov    0x5e2ef0,%edx
  5795b2:	31 c0                	xor    %eax,%eax
  5795b4:	eb 01                	jmp    0x5795b7
  5795b6:	40                   	inc    %eax
  5795b7:	83 f8 05             	cmp    $0x5,%eax
  5795ba:	7d 09                	jge    0x5795c5
  5795bc:	39 14 c5 c8 2e 5e 00 	cmp    %edx,0x5e2ec8(,%eax,8)
  5795c3:	75 f1                	jne    0x5795b6
  5795c5:	c7 04 c5 cc 2e 5e 00 	movl   $0x1,0x5e2ecc(,%eax,8)
  5795cc:	01 00 00 00 
  5795d0:	c7 05 f0 2e 5e 00 00 	movl   $0x0,0x5e2ef0
  5795d7:	00 00 00 
  5795da:	a1 10 2f 5e 00       	mov    0x5e2f10,%eax
  5795df:	85 c0                	test   %eax,%eax
  5795e1:	74 49                	je     0x57962c
  5795e3:	83 3d 14 2f 5e 00 00 	cmpl   $0x0,0x5e2f14
  5795ea:	75 40                	jne    0x57962c
  5795ec:	66 8b 50 20          	mov    0x20(%eax),%dx
  5795f0:	66 81 fa a8 00       	cmp    $0xa8,%dx
  5795f5:	74 07                	je     0x5795fe
  5795f7:	66 81 fa a9 00       	cmp    $0xa9,%dx
  5795fc:	75 2e                	jne    0x57962c
  5795fe:	8b 0d 10 2f 5e 00    	mov    0x5e2f10,%ecx
  579604:	31 c0                	xor    %eax,%eax
  579606:	eb 01                	jmp    0x579609
  579608:	40                   	inc    %eax
  579609:	83 f8 05             	cmp    $0x5,%eax
  57960c:	7d 09                	jge    0x579617
  57960e:	39 0c c5 c8 2e 5e 00 	cmp    %ecx,0x5e2ec8(,%eax,8)
  579615:	75 f1                	jne    0x579608
  579617:	c7 04 c5 cc 2e 5e 00 	movl   $0x1,0x5e2ecc(,%eax,8)
  57961e:	01 00 00 00 
  579622:	c7 05 10 2f 5e 00 00 	movl   $0x0,0x5e2f10
  579629:	00 00 00 
  57962c:	83 3d 18 2f 5e 00 00 	cmpl   $0x0,0x5e2f18
  579633:	74 3d                	je     0x579672
  579635:	83 3d 1c 2f 5e 00 00 	cmpl   $0x0,0x5e2f1c
  57963c:	75 34                	jne    0x579672
  57963e:	83 3d 20 2f 5e 00 00 	cmpl   $0x0,0x5e2f20
  579645:	75 2b                	jne    0x579672
  579647:	8b 0d 18 2f 5e 00    	mov    0x5e2f18,%ecx
  57964d:	0f bf 41 20          	movswl 0x20(%ecx),%eax
  579651:	8d 04 40             	lea    (%eax,%eax,2),%eax
  579654:	0f be 14 45 64 34 5d 	movsbl 0x5d3464(,%eax,2),%edx
  57965b:	00 
  57965c:	89 0d 20 2f 5e 00    	mov    %ecx,0x5e2f20
  579662:	89 15 24 2f 5e 00    	mov    %edx,0x5e2f24
  579668:	c7 05 18 2f 5e 00 00 	movl   $0x0,0x5e2f18
  57966f:	00 00 00 
  579672:	83 3d 10 2f 5e 00 00 	cmpl   $0x0,0x5e2f10
  579679:	74 3d                	je     0x5796b8
  57967b:	83 3d 14 2f 5e 00 00 	cmpl   $0x0,0x5e2f14
  579682:	75 34                	jne    0x5796b8
  579684:	83 3d 18 2f 5e 00 00 	cmpl   $0x0,0x5e2f18
  57968b:	75 2b                	jne    0x5796b8
  57968d:	8b 15 10 2f 5e 00    	mov    0x5e2f10,%edx
  579693:	0f bf 42 20          	movswl 0x20(%edx),%eax
  579697:	8d 04 40             	lea    (%eax,%eax,2),%eax
  57969a:	0f be 0c 45 63 34 5d 	movsbl 0x5d3463(,%eax,2),%ecx
  5796a1:	00 
  5796a2:	89 15 18 2f 5e 00    	mov    %edx,0x5e2f18
  5796a8:	89 0d 1c 2f 5e 00    	mov    %ecx,0x5e2f1c
  5796ae:	c7 05 10 2f 5e 00 00 	movl   $0x0,0x5e2f10
  5796b5:	00 00 00 
  5796b8:	83 3d 00 2f 5e 00 00 	cmpl   $0x0,0x5e2f00
  5796bf:	74 3d                	je     0x5796fe
  5796c1:	83 3d 04 2f 5e 00 00 	cmpl   $0x0,0x5e2f04
  5796c8:	75 34                	jne    0x5796fe
  5796ca:	83 3d 08 2f 5e 00 00 	cmpl   $0x0,0x5e2f08
  5796d1:	75 2b                	jne    0x5796fe
  5796d3:	8b 0d 00 2f 5e 00    	mov    0x5e2f00,%ecx
  5796d9:	0f bf 41 20          	movswl 0x20(%ecx),%eax
  5796dd:	8d 04 40             	lea    (%eax,%eax,2),%eax
  5796e0:	0f be 14 45 63 34 5d 	movsbl 0x5d3463(,%eax,2),%edx
  5796e7:	00 
  5796e8:	89 0d 08 2f 5e 00    	mov    %ecx,0x5e2f08
  5796ee:	89 15 0c 2f 5e 00    	mov    %edx,0x5e2f0c
  5796f4:	c7 05 00 2f 5e 00 00 	movl   $0x0,0x5e2f00
  5796fb:	00 00 00 
  5796fe:	c3                   	ret
  5796ff:	00 53 56             	add    %dl,0x56(%ebx)
  579702:	55                   	push   %ebp
  579703:	8b 6c 24 10          	mov    0x10(%esp),%ebp
  579707:	0f bf 45 20          	movswl 0x20(%ebp),%eax
  57970b:	8d 04 40             	lea    (%eax,%eax,2),%eax
  57970e:	01 c0                	add    %eax,%eax
  579710:	0f b6 88 60 34 5d 00 	movzbl 0x5d3460(%eax),%ecx
  579717:	0f be 98 62 34 5d 00 	movsbl 0x5d3462(%eax),%ebx
  57971e:	83 f9 01             	cmp    $0x1,%ecx
  579721:	75 0e                	jne    0x579731
  579723:	83 3d f8 2e 5e 00 00 	cmpl   $0x0,0x5e2ef8
  57972a:	74 05                	je     0x579731
  57972c:	b9 07 00 00 00       	mov    $0x7,%ecx
  579731:	ff 05 bc 2e 5e 00    	incl   0x5e2ebc
  579737:	ff 0d b8 2e 5e 00    	decl   0x5e2eb8
  57973d:	8b 15 c4 2e 5e 00    	mov    0x5e2ec4,%edx
  579743:	89 2c d5 c8 2e 5e 00 	mov    %ebp,0x5e2ec8(,%edx,8)
  57974a:	a1 c4 2e 5e 00       	mov    0x5e2ec4,%eax
  57974f:	c7 04 c5 cc 2e 5e 00 	movl   $0x0,0x5e2ecc(,%eax,8)
  579756:	00 00 00 00 
  57975a:	8b 35 c4 2e 5e 00    	mov    0x5e2ec4,%esi
  579760:	46                   	inc    %esi
  579761:	b8 cd cc cc cc       	mov    $0xcccccccd,%eax
  579766:	f7 e6                	mul    %esi
  579768:	c1 ea 02             	shr    $0x2,%edx
  57976b:	6b d2 05             	imul   $0x5,%edx,%edx
  57976e:	29 d6                	sub    %edx,%esi
  579770:	89 35 c4 2e 5e 00    	mov    %esi,0x5e2ec4
  579776:	89 2c cd f0 2e 5e 00 	mov    %ebp,0x5e2ef0(,%ecx,8)
  57977d:	89 1c cd f4 2e 5e 00 	mov    %ebx,0x5e2ef4(,%ecx,8)
  579784:	5d                   	pop    %ebp
  579785:	5e                   	pop    %esi
  579786:	5b                   	pop    %ebx
  579787:	c3                   	ret
	...
  579790:	53                   	push   %ebx
  579791:	8b 4c 24 08          	mov    0x8(%esp),%ecx
  579795:	83 3d b8 2e 5e 00 00 	cmpl   $0x0,0x5e2eb8
  57979c:	75 04                	jne    0x5797a2
  57979e:	31 c0                	xor    %eax,%eax
  5797a0:	5b                   	pop    %ebx
  5797a1:	c3                   	ret
  5797a2:	66 8b 59 20          	mov    0x20(%ecx),%bx
  5797a6:	0f bf c3             	movswl %bx,%eax
  5797a9:	8d 04 40             	lea    (%eax,%eax,2),%eax
  5797ac:	0f b6 14 45 60 34 5d 	movzbl 0x5d3460(,%eax,2),%edx
  5797b3:	00 
  5797b4:	83 3c d5 f0 2e 5e 00 	cmpl   $0x0,0x5e2ef0(,%edx,8)
  5797bb:	00 
  5797bc:	74 46                	je     0x579804
  5797be:	83 fa 01             	cmp    $0x1,%edx
  5797c1:	75 3d                	jne    0x579800
  5797c3:	0f bf c3             	movswl %bx,%eax
  5797c6:	83 e8 3c             	sub    $0x3c,%eax
  5797c9:	83 f8 19             	cmp    $0x19,%eax
  5797cc:	77 32                	ja     0x579800
  5797ce:	ff 24 85 60 3f 5d 00 	jmp    *0x5d3f60(,%eax,4)
  5797d5:	6a 04                	push   $0x4
  5797d7:	a1 f8 2e 5e 00       	mov    0x5e2ef8,%eax
  5797dc:	50                   	push   %eax
  5797dd:	51                   	push   %ecx
  5797de:	e8 7d e4 f8 ff       	call   0x507c60
  5797e3:	83 c4 0c             	add    $0xc,%esp
  5797e6:	85 c0                	test   %eax,%eax
  5797e8:	74 06                	je     0x5797f0
  5797ea:	31 c0                	xor    %eax,%eax
  5797ec:	5b                   	pop    %ebx
  5797ed:	c3                   	ret
  5797ee:	89 c0                	mov    %eax,%eax
  5797f0:	83 3d 28 2f 5e 00 00 	cmpl   $0x0,0x5e2f28
  5797f7:	75 07                	jne    0x579800
  5797f9:	b8 01 00 00 00       	mov    $0x1,%eax
  5797fe:	5b                   	pop    %ebx
  5797ff:	c3                   	ret
  579800:	31 c0                	xor    %eax,%eax
  579802:	5b                   	pop    %ebx
  579803:	c3                   	ret
  579804:	8b 41 14             	mov    0x14(%ecx),%eax
  579807:	83 e0 04             	and    $0x4,%eax
  57980a:	74 16                	je     0x579822
  57980c:	8b 15 08 2f 5e 00    	mov    0x5e2f08,%edx
  579812:	85 d2                	test   %edx,%edx
  579814:	74 0c                	je     0x579822
  579816:	8b 42 14             	mov    0x14(%edx),%eax
  579819:	83 e0 04             	and    $0x4,%eax
  57981c:	74 04                	je     0x579822
  57981e:	31 c0                	xor    %eax,%eax
  579820:	5b                   	pop    %ebx
  579821:	c3                   	ret
  579822:	b8 01 00 00 00       	mov    $0x1,%eax
  579827:	5b                   	pop    %ebx
  579828:	c3                   	ret
  579829:	00 00                	add    %al,(%eax)
  57982b:	00 00                	add    %al,(%eax)
  57982d:	00 00                	add    %al,(%eax)
  57982f:	00 c7                	add    %al,%bh
  579831:	05 f0 2e 5e 00       	add    $0x5e2ef0,%eax
  579836:	00 00                	add    %al,(%eax)
  579838:	00 00                	add    %al,(%eax)
  57983a:	c7 05 f8 2e 5e 00 00 	movl   $0x0,0x5e2ef8
  579841:	00 00 00 
  579844:	c7 05 00 2f 5e 00 00 	movl   $0x0,0x5e2f00
  57984b:	00 00 00 
  57984e:	c7 05 08 2f 5e 00 00 	movl   $0x0,0x5e2f08
  579855:	00 00 00 
  579858:	c7 05 10 2f 5e 00 00 	movl   $0x0,0x5e2f10
  57985f:	00 00 00 
  579862:	c7 05 18 2f 5e 00 00 	movl   $0x0,0x5e2f18
  579869:	00 00 00 
  57986c:	c7 05 20 2f 5e 00 00 	movl   $0x0,0x5e2f20
  579873:	00 00 00 
  579876:	c7 05 28 2f 5e 00 00 	movl   $0x0,0x5e2f28
  57987d:	00 00 00 
  579880:	c7 05 b8 2e 5e 00 05 	movl   $0x5,0x5e2eb8
  579887:	00 00 00 
  57988a:	c7 05 bc 2e 5e 00 00 	movl   $0x0,0x5e2ebc
  579891:	00 00 00 
  579894:	c7 05 c0 2e 5e 00 00 	movl   $0x0,0x5e2ec0
  57989b:	00 00 00 
  57989e:	c7 05 c4 2e 5e 00 00 	movl   $0x0,0x5e2ec4
  5798a5:	00 00 00 
  5798a8:	c7 05 c8 2e 5e 00 00 	movl   $0x0,0x5e2ec8
  5798af:	00 00 00 
  5798b2:	c7 05 d0 2e 5e 00 00 	movl   $0x0,0x5e2ed0
  5798b9:	00 00 00 
  5798bc:	c7 05 d8 2e 5e 00 00 	movl   $0x0,0x5e2ed8
  5798c3:	00 00 00 
  5798c6:	c7 05 e0 2e 5e 00 00 	movl   $0x0,0x5e2ee0
  5798cd:	00 00 00 
  5798d0:	c7 05 e8 2e 5e 00 00 	movl   $0x0,0x5e2ee8
  5798d7:	00 00 00 
  5798da:	c3                   	ret
  5798db:	00 00                	add    %al,(%eax)
  5798dd:	00 00                	add    %al,(%eax)
  5798df:	00 53 55             	add    %dl,0x55(%ebx)
  5798e2:	8b 5c 24 0c          	mov    0xc(%esp),%ebx
  5798e6:	66 8b 6b 20          	mov    0x20(%ebx),%bp
  5798ea:	0f bf c5             	movswl %bp,%eax
  5798ed:	8d 04 40             	lea    (%eax,%eax,2),%eax
  5798f0:	0f be 04 45 61 34 5d 	movsbl 0x5d3461(,%eax,2),%eax
  5798f7:	00 
  5798f8:	8b 53 14             	mov    0x14(%ebx),%edx
  5798fb:	89 d1                	mov    %edx,%ecx
  5798fd:	83 e1 09             	and    $0x9,%ecx
  579900:	74 02                	je     0x579904
  579902:	31 d2                	xor    %edx,%edx
  579904:	81 e2 00 00 00 20    	and    $0x20000000,%edx
  57990a:	74 03                	je     0x57990f
  57990c:	83 c0 02             	add    $0x2,%eax
  57990f:	66 83 fd 27          	cmp    $0x27,%bp
  579913:	74 06                	je     0x57991b
  579915:	66 83 fd 36          	cmp    $0x36,%bp
  579919:	75 09                	jne    0x579924
  57991b:	0f bf 4b 22          	movswl 0x22(%ebx),%ecx
  57991f:	83 c1 fe             	add    $0xfffffffe,%ecx
  579922:	01 c8                	add    %ecx,%eax
  579924:	5d                   	pop    %ebp
  579925:	5b                   	pop    %ebx
  579926:	c3                   	ret
	...
  57992f:	00 8b 4c 24 04 0f    	add    %cl,0xf04244c(%ebx)
  579935:	bf 41 20 8d 04       	mov    $0x48d2041,%edi
  57993a:	40                   	inc    %eax
  57993b:	0f be 04 45 f5 3f 5d 	movsbl 0x5d3ff5(,%eax,2),%eax
  579942:	00 
  579943:	c3                   	ret
	...
  579950:	c7 05 c4 2f 5e 00 00 	movl   $0x0,0x5e2fc4
  579957:	00 00 00 
  57995a:	c7 05 c0 2f 5e 00 00 	movl   $0x0,0x5e2fc0
  579961:	00 00 00 
  579964:	31 c0                	xor    %eax,%eax
  579966:	83 3c c5 c8 2f 5e 00 	cmpl   $0x0,0x5e2fc8(,%eax,8)
  57996d:	00 
  57996e:	74 11                	je     0x579981
  579970:	83 3c c5 cc 2f 5e 00 	cmpl   $0x0,0x5e2fcc(,%eax,8)
  579977:	00 
  579978:	74 07                	je     0x579981
  57997a:	ff 0c c5 cc 2f 5e 00 	decl   0x5e2fcc(,%eax,8)
  579981:	40                   	inc    %eax
  579982:	83 f8 09             	cmp    $0x9,%eax
  579985:	7c df                	jl     0x579966
  579987:	31 d2                	xor    %edx,%edx
  579989:	8d 84 20 00 00 00 00 	lea    0x0(%eax,%eiz,1),%eax
  579990:	83 3d 34 2f 5e 00 00 	cmpl   $0x0,0x5e2f34
  579997:	74 3a                	je     0x5799d3
  579999:	a1 38 2f 5e 00       	mov    0x5e2f38,%eax
  57999e:	83 3c c5 44 2f 5e 00 	cmpl   $0x0,0x5e2f44(,%eax,8)
  5799a5:	00 
  5799a6:	74 2b                	je     0x5799d3
  5799a8:	c7 04 c5 40 2f 5e 00 	movl   $0x0,0x5e2f40(,%eax,8)
  5799af:	00 00 00 00 
  5799b3:	ff 0d 34 2f 5e 00    	decl   0x5e2f34
  5799b9:	ff 05 30 2f 5e 00    	incl   0x5e2f30
  5799bf:	a1 38 2f 5e 00       	mov    0x5e2f38,%eax
  5799c4:	40                   	inc    %eax
  5799c5:	83 e0 0f             	and    $0xf,%eax
  5799c8:	a3 38 2f 5e 00       	mov    %eax,0x5e2f38
  5799cd:	42                   	inc    %edx
  5799ce:	83 fa 05             	cmp    $0x5,%edx
  5799d1:	7c bd                	jl     0x579990
  5799d3:	83 3d c8 2f 5e 00 00 	cmpl   $0x0,0x5e2fc8
  5799da:	74 3e                	je     0x579a1a
  5799dc:	83 3d cc 2f 5e 00 00 	cmpl   $0x0,0x5e2fcc
  5799e3:	75 35                	jne    0x579a1a
  5799e5:	8b 0d c8 2f 5e 00    	mov    0x5e2fc8,%ecx
  5799eb:	31 c0                	xor    %eax,%eax
  5799ed:	eb 02                	jmp    0x5799f1
  5799ef:	90                   	nop
  5799f0:	40                   	inc    %eax
  5799f1:	83 f8 10             	cmp    $0x10,%eax
  5799f4:	7d 09                	jge    0x5799ff
  5799f6:	39 0c c5 40 2f 5e 00 	cmp    %ecx,0x5e2f40(,%eax,8)
  5799fd:	75 f1                	jne    0x5799f0
  5799ff:	c7 04 c5 44 2f 5e 00 	movl   $0x1,0x5e2f44(,%eax,8)
  579a06:	01 00 00 00 
  579a0a:	c7 05 c8 2f 5e 00 00 	movl   $0x0,0x5e2fc8
  579a11:	00 00 00 
  579a14:	89 0d c4 2f 5e 00    	mov    %ecx,0x5e2fc4
  579a1a:	83 3d d0 2f 5e 00 00 	cmpl   $0x0,0x5e2fd0
  579a21:	74 3d                	je     0x579a60
  579a23:	83 3d d4 2f 5e 00 00 	cmpl   $0x0,0x5e2fd4
  579a2a:	75 34                	jne    0x579a60
  579a2c:	8b 15 d0 2f 5e 00    	mov    0x5e2fd0,%edx
  579a32:	31 c0                	xor    %eax,%eax
  579a34:	eb 01                	jmp    0x579a37
  579a36:	40                   	inc    %eax
  579a37:	83 f8 10             	cmp    $0x10,%eax
  579a3a:	7d 09                	jge    0x579a45
  579a3c:	39 14 c5 40 2f 5e 00 	cmp    %edx,0x5e2f40(,%eax,8)
  579a43:	75 f1                	jne    0x579a36
  579a45:	c7 04 c5 44 2f 5e 00 	movl   $0x1,0x5e2f44(,%eax,8)
  579a4c:	01 00 00 00 
  579a50:	c7 05 d0 2f 5e 00 00 	movl   $0x0,0x5e2fd0
  579a57:	00 00 00 
  579a5a:	89 15 c0 2f 5e 00    	mov    %edx,0x5e2fc0
  579a60:	83 3d d8 2f 5e 00 00 	cmpl   $0x0,0x5e2fd8
  579a67:	74 3b                	je     0x579aa4
  579a69:	83 3d dc 2f 5e 00 00 	cmpl   $0x0,0x5e2fdc
  579a70:	75 32                	jne    0x579aa4
  579a72:	8b 0d d8 2f 5e 00    	mov    0x5e2fd8,%ecx
  579a78:	31 c0                	xor    %eax,%eax
  579a7a:	eb 05                	jmp    0x579a81
  579a7c:	8d 44 20 00          	lea    0x0(%eax,%eiz,1),%eax
  579a80:	40                   	inc    %eax
  579a81:	83 f8 10             	cmp    $0x10,%eax
  579a84:	7d 09                	jge    0x579a8f
  579a86:	39 0c c5 40 2f 5e 00 	cmp    %ecx,0x5e2f40(,%eax,8)
  579a8d:	75 f1                	jne    0x579a80
  579a8f:	c7 04 c5 44 2f 5e 00 	movl   $0x1,0x5e2f44(,%eax,8)
  579a96:	01 00 00 00 
  579a9a:	c7 05 d8 2f 5e 00 00 	movl   $0x0,0x5e2fd8
  579aa1:	00 00 00 
  579aa4:	83 3d 00 30 5e 00 00 	cmpl   $0x0,0x5e3000
  579aab:	74 37                	je     0x579ae4
  579aad:	83 3d 04 30 5e 00 00 	cmpl   $0x0,0x5e3004
  579ab4:	75 2e                	jne    0x579ae4
  579ab6:	8b 15 00 30 5e 00    	mov    0x5e3000,%edx
  579abc:	31 c0                	xor    %eax,%eax
  579abe:	eb 01                	jmp    0x579ac1
  579ac0:	40                   	inc    %eax
  579ac1:	83 f8 10             	cmp    $0x10,%eax
  579ac4:	7d 09                	jge    0x579acf
  579ac6:	39 14 c5 40 2f 5e 00 	cmp    %edx,0x5e2f40(,%eax,8)
  579acd:	75 f1                	jne    0x579ac0
  579acf:	c7 04 c5 44 2f 5e 00 	movl   $0x1,0x5e2f44(,%eax,8)
  579ad6:	01 00 00 00 
  579ada:	c7 05 00 30 5e 00 00 	movl   $0x0,0x5e3000
  579ae1:	00 00 00 
  579ae4:	83 3d f0 2f 5e 00 00 	cmpl   $0x0,0x5e2ff0
  579aeb:	74 37                	je     0x579b24
  579aed:	83 3d f4 2f 5e 00 00 	cmpl   $0x0,0x5e2ff4
  579af4:	75 2e                	jne    0x579b24
  579af6:	8b 0d f0 2f 5e 00    	mov    0x5e2ff0,%ecx
  579afc:	31 c0                	xor    %eax,%eax
  579afe:	eb 01                	jmp    0x579b01
  579b00:	40                   	inc    %eax
  579b01:	83 f8 10             	cmp    $0x10,%eax
  579b04:	7d 09                	jge    0x579b0f
  579b06:	39 0c c5 40 2f 5e 00 	cmp    %ecx,0x5e2f40(,%eax,8)
  579b0d:	75 f1                	jne    0x579b00
  579b0f:	c7 04 c5 44 2f 5e 00 	movl   $0x1,0x5e2f44(,%eax,8)
  579b16:	01 00 00 00 
  579b1a:	c7 05 f0 2f 5e 00 00 	movl   $0x0,0x5e2ff0
  579b21:	00 00 00 
  579b24:	83 3d 08 30 5e 00 00 	cmpl   $0x0,0x5e3008
  579b2b:	74 37                	je     0x579b64
  579b2d:	83 3d 0c 30 5e 00 00 	cmpl   $0x0,0x5e300c
  579b34:	75 2e                	jne    0x579b64
  579b36:	8b 15 08 30 5e 00    	mov    0x5e3008,%edx
  579b3c:	31 c0                	xor    %eax,%eax
  579b3e:	eb 01                	jmp    0x579b41
  579b40:	40                   	inc    %eax
  579b41:	83 f8 10             	cmp    $0x10,%eax
  579b44:	7d 09                	jge    0x579b4f
  579b46:	39 14 c5 40 2f 5e 00 	cmp    %edx,0x5e2f40(,%eax,8)
  579b4d:	75 f1                	jne    0x579b40
  579b4f:	c7 04 c5 44 2f 5e 00 	movl   $0x1,0x5e2f44(,%eax,8)
  579b56:	01 00 00 00 
  579b5a:	c7 05 08 30 5e 00 00 	movl   $0x0,0x5e3008
  579b61:	00 00 00 
  579b64:	a1 e0 2f 5e 00       	mov    0x5e2fe0,%eax
  579b69:	85 c0                	test   %eax,%eax
  579b6b:	74 49                	je     0x579bb6
  579b6d:	83 3d e4 2f 5e 00 00 	cmpl   $0x0,0x5e2fe4
  579b74:	75 40                	jne    0x579bb6
  579b76:	66 8b 50 20          	mov    0x20(%eax),%dx
  579b7a:	66 81 fa a8 00       	cmp    $0xa8,%dx
  579b7f:	74 07                	je     0x579b88
  579b81:	66 81 fa a9 00       	cmp    $0xa9,%dx
  579b86:	75 2e                	jne    0x579bb6
  579b88:	8b 0d e0 2f 5e 00    	mov    0x5e2fe0,%ecx
  579b8e:	31 c0                	xor    %eax,%eax
  579b90:	eb 01                	jmp    0x579b93
  579b92:	40                   	inc    %eax
  579b93:	83 f8 10             	cmp    $0x10,%eax
  579b96:	7d 09                	jge    0x579ba1
  579b98:	39 0c c5 40 2f 5e 00 	cmp    %ecx,0x5e2f40(,%eax,8)
  579b9f:	75 f1                	jne    0x579b92
  579ba1:	c7 04 c5 44 2f 5e 00 	movl   $0x1,0x5e2f44(,%eax,8)
  579ba8:	01 00 00 00 
  579bac:	c7 05 e0 2f 5e 00 00 	movl   $0x0,0x5e2fe0
  579bb3:	00 00 00 
  579bb6:	83 3d e8 2f 5e 00 00 	cmpl   $0x0,0x5e2fe8
  579bbd:	74 3d                	je     0x579bfc
  579bbf:	83 3d ec 2f 5e 00 00 	cmpl   $0x0,0x5e2fec
  579bc6:	75 34                	jne    0x579bfc
  579bc8:	83 3d f0 2f 5e 00 00 	cmpl   $0x0,0x5e2ff0
  579bcf:	75 2b                	jne    0x579bfc
  579bd1:	8b 0d e8 2f 5e 00    	mov    0x5e2fe8,%ecx
  579bd7:	0f bf 41 20          	movswl 0x20(%ecx),%eax
  579bdb:	8d 04 40             	lea    (%eax,%eax,2),%eax
  579bde:	0f be 14 45 f4 3f 5d 	movsbl 0x5d3ff4(,%eax,2),%edx
  579be5:	00 
  579be6:	89 0d f0 2f 5e 00    	mov    %ecx,0x5e2ff0
  579bec:	89 15 f4 2f 5e 00    	mov    %edx,0x5e2ff4
  579bf2:	c7 05 e8 2f 5e 00 00 	movl   $0x0,0x5e2fe8
  579bf9:	00 00 00 
  579bfc:	83 3d e0 2f 5e 00 00 	cmpl   $0x0,0x5e2fe0
  579c03:	74 3d                	je     0x579c42
  579c05:	83 3d e4 2f 5e 00 00 	cmpl   $0x0,0x5e2fe4
  579c0c:	75 34                	jne    0x579c42
  579c0e:	83 3d e8 2f 5e 00 00 	cmpl   $0x0,0x5e2fe8
  579c15:	75 2b                	jne    0x579c42
  579c17:	8b 15 e0 2f 5e 00    	mov    0x5e2fe0,%edx
  579c1d:	0f bf 42 20          	movswl 0x20(%edx),%eax
  579c21:	8d 04 40             	lea    (%eax,%eax,2),%eax
  579c24:	0f be 0c 45 f3 3f 5d 	movsbl 0x5d3ff3(,%eax,2),%ecx
  579c2b:	00 
  579c2c:	89 15 e8 2f 5e 00    	mov    %edx,0x5e2fe8
  579c32:	89 0d ec 2f 5e 00    	mov    %ecx,0x5e2fec
  579c38:	c7 05 e0 2f 5e 00 00 	movl   $0x0,0x5e2fe0
  579c3f:	00 00 00 
  579c42:	83 3d f8 2f 5e 00 00 	cmpl   $0x0,0x5e2ff8
  579c49:	74 3d                	je     0x579c88
  579c4b:	83 3d fc 2f 5e 00 00 	cmpl   $0x0,0x5e2ffc
  579c52:	75 34                	jne    0x579c88
  579c54:	83 3d 00 30 5e 00 00 	cmpl   $0x0,0x5e3000
  579c5b:	75 2b                	jne    0x579c88
  579c5d:	8b 0d f8 2f 5e 00    	mov    0x5e2ff8,%ecx
  579c63:	0f bf 41 20          	movswl 0x20(%ecx),%eax
  579c67:	8d 04 40             	lea    (%eax,%eax,2),%eax
  579c6a:	0f be 14 45 f3 3f 5d 	movsbl 0x5d3ff3(,%eax,2),%edx
  579c71:	00 
  579c72:	89 0d 00 30 5e 00    	mov    %ecx,0x5e3000
  579c78:	89 15 04 30 5e 00    	mov    %edx,0x5e3004
  579c7e:	c7 05 f8 2f 5e 00 00 	movl   $0x0,0x5e2ff8
  579c85:	00 00 00 
  579c88:	c3                   	ret
  579c89:	00 00                	add    %al,(%eax)
  579c8b:	00 00                	add    %al,(%eax)
  579c8d:	00 00                	add    %al,(%eax)
  579c8f:	00 53 8b             	add    %dl,-0x75(%ebx)
  579c92:	5c                   	pop    %esp
  579c93:	24 08                	and    $0x8,%al
  579c95:	0f bf 53 20          	movswl 0x20(%ebx),%edx
  579c99:	8d 14 52             	lea    (%edx,%edx,2),%edx
  579c9c:	01 d2                	add    %edx,%edx
  579c9e:	0f b6 82 f0 3f 5d 00 	movzbl 0x5d3ff0(%edx),%eax
  579ca5:	0f be 8a f2 3f 5d 00 	movsbl 0x5d3ff2(%edx),%ecx
  579cac:	85 c0                	test   %eax,%eax
  579cae:	75 0e                	jne    0x579cbe
  579cb0:	83 3d c8 2f 5e 00 00 	cmpl   $0x0,0x5e2fc8
  579cb7:	74 05                	je     0x579cbe
  579cb9:	b8 01 00 00 00       	mov    $0x1,%eax
  579cbe:	ff 05 34 2f 5e 00    	incl   0x5e2f34
  579cc4:	ff 0d 30 2f 5e 00    	decl   0x5e2f30
  579cca:	8b 15 3c 2f 5e 00    	mov    0x5e2f3c,%edx
  579cd0:	89 1c d5 40 2f 5e 00 	mov    %ebx,0x5e2f40(,%edx,8)
  579cd7:	8b 15 3c 2f 5e 00    	mov    0x5e2f3c,%edx
  579cdd:	c7 04 d5 44 2f 5e 00 	movl   $0x0,0x5e2f44(,%edx,8)
  579ce4:	00 00 00 00 
  579ce8:	8b 15 3c 2f 5e 00    	mov    0x5e2f3c,%edx
  579cee:	42                   	inc    %edx
  579cef:	83 e2 0f             	and    $0xf,%edx
  579cf2:	89 15 3c 2f 5e 00    	mov    %edx,0x5e2f3c
  579cf8:	89 1c c5 c8 2f 5e 00 	mov    %ebx,0x5e2fc8(,%eax,8)
  579cff:	89 0c c5 cc 2f 5e 00 	mov    %ecx,0x5e2fcc(,%eax,8)
  579d06:	5b                   	pop    %ebx
  579d07:	c3                   	ret
	...
  579d10:	53                   	push   %ebx
  579d11:	8b 5c 24 08          	mov    0x8(%esp),%ebx
  579d15:	0f bf 43 20          	movswl 0x20(%ebx),%eax
  579d19:	8d 04 40             	lea    (%eax,%eax,2),%eax
  579d1c:	0f b6 0c 45 f0 3f 5d 	movzbl 0x5d3ff0(,%eax,2),%ecx
  579d23:	00 
  579d24:	83 3d 30 2f 5e 00 00 	cmpl   $0x0,0x5e2f30
  579d2b:	75 04                	jne    0x579d31
  579d2d:	31 c0                	xor    %eax,%eax
  579d2f:	5b                   	pop    %ebx
  579d30:	c3                   	ret
  579d31:	85 c9                	test   %ecx,%ecx
  579d33:	0f 85 97 00 00 00    	jne    0x579dd0
  579d39:	31 c9                	xor    %ecx,%ecx
  579d3b:	39 0d c8 2f 5e 00    	cmp    %ecx,0x5e2fc8
  579d41:	75 01                	jne    0x579d44
  579d43:	41                   	inc    %ecx
  579d44:	31 d2                	xor    %edx,%edx
  579d46:	a1 d0 2f 5e 00       	mov    0x5e2fd0,%eax
  579d4b:	85 c0                	test   %eax,%eax
  579d4d:	75 01                	jne    0x579d50
  579d4f:	42                   	inc    %edx
  579d50:	85 c9                	test   %ecx,%ecx
  579d52:	75 0c                	jne    0x579d60
  579d54:	85 d2                	test   %edx,%edx
  579d56:	75 08                	jne    0x579d60
  579d58:	31 c0                	xor    %eax,%eax
  579d5a:	5b                   	pop    %ebx
  579d5b:	c3                   	ret
  579d5c:	8d 44 20 00          	lea    0x0(%eax,%eiz,1),%eax
  579d60:	85 c9                	test   %ecx,%ecx
  579d62:	74 0c                	je     0x579d70
  579d64:	85 d2                	test   %edx,%edx
  579d66:	74 08                	je     0x579d70
  579d68:	b8 01 00 00 00       	mov    $0x1,%eax
  579d6d:	5b                   	pop    %ebx
  579d6e:	c3                   	ret
  579d6f:	90                   	nop
  579d70:	85 c9                	test   %ecx,%ecx
  579d72:	75 05                	jne    0x579d79
  579d74:	a1 c8 2f 5e 00       	mov    0x5e2fc8,%eax
  579d79:	6a 04                	push   $0x4
  579d7b:	50                   	push   %eax
  579d7c:	53                   	push   %ebx
  579d7d:	e8 de de f8 ff       	call   0x507c60
  579d82:	83 c4 0c             	add    $0xc,%esp
  579d85:	85 c0                	test   %eax,%eax
  579d87:	74 07                	je     0x579d90
  579d89:	31 c0                	xor    %eax,%eax
  579d8b:	5b                   	pop    %ebx
  579d8c:	c3                   	ret
  579d8d:	8d 40 00             	lea    0x0(%eax),%eax
  579d90:	6a 04                	push   $0x4
  579d92:	a1 c4 2f 5e 00       	mov    0x5e2fc4,%eax
  579d97:	50                   	push   %eax
  579d98:	53                   	push   %ebx
  579d99:	e8 c2 de f8 ff       	call   0x507c60
  579d9e:	83 c4 0c             	add    $0xc,%esp
  579da1:	85 c0                	test   %eax,%eax
  579da3:	74 0b                	je     0x579db0
  579da5:	31 c0                	xor    %eax,%eax
  579da7:	5b                   	pop    %ebx
  579da8:	c3                   	ret
  579da9:	8d 84 20 00 00 00 00 	lea    0x0(%eax,%eiz,1),%eax
  579db0:	6a 04                	push   $0x4
  579db2:	a1 c0 2f 5e 00       	mov    0x5e2fc0,%eax
  579db7:	50                   	push   %eax
  579db8:	53                   	push   %ebx
  579db9:	e8 a2 de f8 ff       	call   0x507c60
  579dbe:	83 c4 0c             	add    $0xc,%esp
  579dc1:	85 c0                	test   %eax,%eax
  579dc3:	74 1b                	je     0x579de0
  579dc5:	31 c0                	xor    %eax,%eax
  579dc7:	5b                   	pop    %ebx
  579dc8:	c3                   	ret
  579dc9:	8d 84 20 00 00 00 00 	lea    0x0(%eax,%eiz,1),%eax
  579dd0:	83 3c cd c8 2f 5e 00 	cmpl   $0x0,0x5e2fc8(,%ecx,8)
  579dd7:	00 
  579dd8:	74 06                	je     0x579de0
  579dda:	31 c0                	xor    %eax,%eax
  579ddc:	5b                   	pop    %ebx
  579ddd:	c3                   	ret
  579dde:	89 c0                	mov    %eax,%eax
  579de0:	b8 01 00 00 00       	mov    $0x1,%eax
  579de5:	5b                   	pop    %ebx
  579de6:	c3                   	ret
	...
  579def:	00 31                	add    %dh,(%ecx)
  579df1:	c0 c7 04             	rol    $0x4,%bh
  579df4:	c5 c8 2f             	(bad)
  579df7:	5e                   	pop    %esi
  579df8:	00 00                	add    %al,(%eax)
  579dfa:	00 00                	add    %al,(%eax)
  579dfc:	00 c7                	add    %al,%bh
  579dfe:	04 c5                	add    $0xc5,%al
  579e00:	d0 2f                	shrb   $1,(%edi)
  579e02:	5e                   	pop    %esi
  579e03:	00 00                	add    %al,(%eax)
  579e05:	00 00                	add    %al,(%eax)
  579e07:	00 c7                	add    %al,%bh
  579e09:	04 c5                	add    $0xc5,%al
  579e0b:	d8 2f                	fsubrs (%edi)
  579e0d:	5e                   	pop    %esi
  579e0e:	00 00                	add    %al,(%eax)
  579e10:	00 00                	add    %al,(%eax)
  579e12:	00 83 c0 03 83 f8    	add    %al,-0x77cfc40(%ebx)
  579e18:	09 7c d7 c7          	or     %edi,-0x39(%edi,%edx,8)
  579e1c:	05 30 2f 5e 00       	add    $0x5e2f30,%eax
  579e21:	10 00                	adc    %al,(%eax)
  579e23:	00 00                	add    %al,(%eax)
  579e25:	c7 05 34 2f 5e 00 00 	movl   $0x0,0x5e2f34
  579e2c:	00 00 00 
  579e2f:	c7 05 38 2f 5e 00 00 	movl   $0x0,0x5e2f38
  579e36:	00 00 00 
  579e39:	c7 05 3c 2f 5e 00 00 	movl   $0x0,0x5e2f3c
  579e40:	00 00 00 
  579e43:	31 c0                	xor    %eax,%eax
  579e45:	c7 04 c5 40 2f 5e 00 	movl   $0x0,0x5e2f40(,%eax,8)
  579e4c:	00 00 00 00 
  579e50:	c7 04 c5 48 2f 5e 00 	movl   $0x0,0x5e2f48(,%eax,8)
  579e57:	00 00 00 00 
  579e5b:	c7 04 c5 50 2f 5e 00 	movl   $0x0,0x5e2f50(,%eax,8)
  579e62:	00 00 00 00 
  579e66:	c7 04 c5 58 2f 5e 00 	movl   $0x0,0x5e2f58(,%eax,8)
  579e6d:	00 00 00 00 
  579e71:	c7 04 c5 60 2f 5e 00 	movl   $0x0,0x5e2f60(,%eax,8)
  579e78:	00 00 00 00 
  579e7c:	c7 04 c5 68 2f 5e 00 	movl   $0x0,0x5e2f68(,%eax,8)
  579e83:	00 00 00 00 
  579e87:	c7 04 c5 70 2f 5e 00 	movl   $0x0,0x5e2f70(,%eax,8)
  579e8e:	00 00 00 00 
  579e92:	c7 04 c5 78 2f 5e 00 	movl   $0x0,0x5e2f78(,%eax,8)
  579e99:	00 00 00 00 
  579e9d:	83 c0 08             	add    $0x8,%eax
  579ea0:	83 f8 10             	cmp    $0x10,%eax
  579ea3:	7c a0                	jl     0x579e45
  579ea5:	c7 05 c4 2f 5e 00 00 	movl   $0x0,0x5e2fc4
  579eac:	00 00 00 
  579eaf:	c7 05 c0 2f 5e 00 00 	movl   $0x0,0x5e2fc0
  579eb6:	00 00 00 
  579eb9:	c3                   	ret
  579eba:	00 00                	add    %al,(%eax)
  579ebc:	00 00                	add    %al,(%eax)
  579ebe:	00 00                	add    %al,(%eax)
  579ec0:	53                   	push   %ebx
  579ec1:	55                   	push   %ebp
  579ec2:	8b 5c 24 0c          	mov    0xc(%esp),%ebx
  579ec6:	66 8b 6b 20          	mov    0x20(%ebx),%bp
  579eca:	0f bf c5             	movswl %bp,%eax
  579ecd:	8d 04 40             	lea    (%eax,%eax,2),%eax
  579ed0:	0f be 04 45 f1 3f 5d 	movsbl 0x5d3ff1(,%eax,2),%eax
  579ed7:	00 
  579ed8:	8b 53 14             	mov    0x14(%ebx),%edx
  579edb:	89 d1                	mov    %edx,%ecx
  579edd:	83 e1 09             	and    $0x9,%ecx
  579ee0:	74 02                	je     0x579ee4
  579ee2:	31 d2                	xor    %edx,%edx
  579ee4:	81 e2 00 00 00 20    	and    $0x20000000,%edx
  579eea:	74 03                	je     0x579eef
  579eec:	83 c0 02             	add    $0x2,%eax
  579eef:	66 83 fd 27          	cmp    $0x27,%bp
  579ef3:	74 06                	je     0x579efb
  579ef5:	66 83 fd 36          	cmp    $0x36,%bp
  579ef9:	75 09                	jne    0x579f04
  579efb:	0f bf 4b 22          	movswl 0x22(%ebx),%ecx
  579eff:	83 c1 fe             	add    $0xfffffffe,%ecx
  579f02:	01 c8                	add    %ecx,%eax
  579f04:	5d                   	pop    %ebp
  579f05:	5b                   	pop    %ebx
  579f06:	c3                   	ret
	...
  579f0f:	00 8b 4c 24 04 0f    	add    %cl,0xf04244c(%ebx)
  579f15:	bf 41 20 8d 04       	mov    $0x48d2041,%edi
  579f1a:	40                   	inc    %eax
  579f1b:	0f be 04 45 1d 4b 5d 	movsbl 0x5d4b1d(,%eax,2),%eax
  579f22:	00 
  579f23:	c3                   	ret
	...
  579f30:	c7 05 54 30 5e 00 00 	movl   $0x0,0x5e3054
  579f37:	00 00 00 
  579f3a:	c7 05 50 30 5e 00 00 	movl   $0x0,0x5e3050
  579f41:	00 00 00 
  579f44:	31 c0                	xor    %eax,%eax
  579f46:	83 3c c5 58 30 5e 00 	cmpl   $0x0,0x5e3058(,%eax,8)
  579f4d:	00 
  579f4e:	74 11                	je     0x579f61
  579f50:	83 3c c5 5c 30 5e 00 	cmpl   $0x0,0x5e305c(,%eax,8)
  579f57:	00 
  579f58:	74 07                	je     0x579f61
  579f5a:	ff 0c c5 5c 30 5e 00 	decl   0x5e305c(,%eax,8)
  579f61:	40                   	inc    %eax
  579f62:	83 f8 09             	cmp    $0x9,%eax
  579f65:	7c df                	jl     0x579f46
  579f67:	83 3d 14 30 5e 00 00 	cmpl   $0x0,0x5e3014
  579f6e:	0f 84 8a 00 00 00    	je     0x579ffe
  579f74:	a1 18 30 5e 00       	mov    0x5e3018,%eax
  579f79:	83 3c c5 24 30 5e 00 	cmpl   $0x0,0x5e3024(,%eax,8)
  579f80:	00 
  579f81:	74 7b                	je     0x579ffe
  579f83:	c7 04 c5 20 30 5e 00 	movl   $0x0,0x5e3020(,%eax,8)
  579f8a:	00 00 00 00 
  579f8e:	ff 0d 14 30 5e 00    	decl   0x5e3014
  579f94:	ff 05 10 30 5e 00    	incl   0x5e3010
  579f9a:	8b 0d 18 30 5e 00    	mov    0x5e3018,%ecx
  579fa0:	41                   	inc    %ecx
  579fa1:	b8 ab aa aa aa       	mov    $0xaaaaaaab,%eax
  579fa6:	f7 e1                	mul    %ecx
  579fa8:	c1 ea 02             	shr    $0x2,%edx
  579fab:	6b d2 06             	imul   $0x6,%edx,%edx
  579fae:	29 d1                	sub    %edx,%ecx
  579fb0:	89 0d 18 30 5e 00    	mov    %ecx,0x5e3018
  579fb6:	83 3d 14 30 5e 00 00 	cmpl   $0x0,0x5e3014
  579fbd:	74 3f                	je     0x579ffe
  579fbf:	89 c8                	mov    %ecx,%eax
  579fc1:	83 3c c5 24 30 5e 00 	cmpl   $0x0,0x5e3024(,%eax,8)
  579fc8:	00 
  579fc9:	74 33                	je     0x579ffe
  579fcb:	c7 04 c5 20 30 5e 00 	movl   $0x0,0x5e3020(,%eax,8)
  579fd2:	00 00 00 00 
  579fd6:	ff 0d 14 30 5e 00    	decl   0x5e3014
  579fdc:	ff 05 10 30 5e 00    	incl   0x5e3010
  579fe2:	8b 0d 18 30 5e 00    	mov    0x5e3018,%ecx
  579fe8:	41                   	inc    %ecx
  579fe9:	b8 ab aa aa aa       	mov    $0xaaaaaaab,%eax
  579fee:	f7 e1                	mul    %ecx
  579ff0:	c1 ea 02             	shr    $0x2,%edx
  579ff3:	6b d2 06             	imul   $0x6,%edx,%edx
  579ff6:	29 d1                	sub    %edx,%ecx
  579ff8:	89 0d 18 30 5e 00    	mov    %ecx,0x5e3018
  579ffe:	83 3d 60 30 5e 00 00 	cmpl   $0x0,0x5e3060
  57a005:	74 43                	je     0x57a04a
  57a007:	83 3d 64 30 5e 00 00 	cmpl   $0x0,0x5e3064
  57a00e:	75 3a                	jne    0x57a04a
  57a010:	8b 15 60 30 5e 00    	mov    0x5e3060,%edx
  57a016:	31 c0                	xor    %eax,%eax
  57a018:	eb 07                	jmp    0x57a021
  57a01a:	8d 80 00 00 00 00    	lea    0x0(%eax),%eax
  57a020:	40                   	inc    %eax
  57a021:	83 f8 06             	cmp    $0x6,%eax
  57a024:	7d 09                	jge    0x57a02f
  57a026:	39 14 c5 20 30 5e 00 	cmp    %edx,0x5e3020(,%eax,8)
  57a02d:	75 f1                	jne    0x57a020
  57a02f:	c7 04 c5 24 30 5e 00 	movl   $0x1,0x5e3024(,%eax,8)
  57a036:	01 00 00 00 
  57a03a:	c7 05 60 30 5e 00 00 	movl   $0x0,0x5e3060
  57a041:	00 00 00 
  57a044:	89 15 54 30 5e 00    	mov    %edx,0x5e3054
  57a04a:	83 3d 78 30 5e 00 00 	cmpl   $0x0,0x5e3078
  57a051:	74 37                	je     0x57a08a
  57a053:	83 3d 7c 30 5e 00 00 	cmpl   $0x0,0x5e307c
  57a05a:	75 2e                	jne    0x57a08a
  57a05c:	8b 0d 78 30 5e 00    	mov    0x5e3078,%ecx
  57a062:	31 c0                	xor    %eax,%eax
  57a064:	eb 01                	jmp    0x57a067
  57a066:	40                   	inc    %eax
  57a067:	83 f8 06             	cmp    $0x6,%eax
  57a06a:	7d 09                	jge    0x57a075
  57a06c:	39 0c c5 20 30 5e 00 	cmp    %ecx,0x5e3020(,%eax,8)
  57a073:	75 f1                	jne    0x57a066
  57a075:	c7 04 c5 24 30 5e 00 	movl   $0x1,0x5e3024(,%eax,8)
  57a07c:	01 00 00 00 
  57a080:	c7 05 78 30 5e 00 00 	movl   $0x0,0x5e3078
  57a087:	00 00 00 
  57a08a:	83 3d 90 30 5e 00 00 	cmpl   $0x0,0x5e3090
  57a091:	74 37                	je     0x57a0ca
  57a093:	83 3d 94 30 5e 00 00 	cmpl   $0x0,0x5e3094
  57a09a:	75 2e                	jne    0x57a0ca
  57a09c:	8b 15 90 30 5e 00    	mov    0x5e3090,%edx
  57a0a2:	31 c0                	xor    %eax,%eax
  57a0a4:	eb 01                	jmp    0x57a0a7
  57a0a6:	40                   	inc    %eax
  57a0a7:	83 f8 06             	cmp    $0x6,%eax
  57a0aa:	7d 09                	jge    0x57a0b5
  57a0ac:	39 14 c5 20 30 5e 00 	cmp    %edx,0x5e3020(,%eax,8)
  57a0b3:	75 f1                	jne    0x57a0a6
  57a0b5:	c7 04 c5 24 30 5e 00 	movl   $0x1,0x5e3024(,%eax,8)
  57a0bc:	01 00 00 00 
  57a0c0:	c7 05 90 30 5e 00 00 	movl   $0x0,0x5e3090
  57a0c7:	00 00 00 
  57a0ca:	83 3d 98 30 5e 00 00 	cmpl   $0x0,0x5e3098
  57a0d1:	74 37                	je     0x57a10a
  57a0d3:	83 3d 9c 30 5e 00 00 	cmpl   $0x0,0x5e309c
  57a0da:	75 2e                	jne    0x57a10a
  57a0dc:	8b 0d 98 30 5e 00    	mov    0x5e3098,%ecx
  57a0e2:	31 c0                	xor    %eax,%eax
  57a0e4:	eb 01                	jmp    0x57a0e7
  57a0e6:	40                   	inc    %eax
  57a0e7:	83 f8 06             	cmp    $0x6,%eax
  57a0ea:	7d 09                	jge    0x57a0f5
  57a0ec:	39 0c c5 20 30 5e 00 	cmp    %ecx,0x5e3020(,%eax,8)
  57a0f3:	75 f1                	jne    0x57a0e6
  57a0f5:	c7 04 c5 24 30 5e 00 	movl   $0x1,0x5e3024(,%eax,8)
  57a0fc:	01 00 00 00 
  57a100:	c7 05 98 30 5e 00 00 	movl   $0x0,0x5e3098
  57a107:	00 00 00 
  57a10a:	83 3d 58 30 5e 00 00 	cmpl   $0x0,0x5e3058
  57a111:	74 37                	je     0x57a14a
  57a113:	83 3d 5c 30 5e 00 00 	cmpl   $0x0,0x5e305c
  57a11a:	75 2e                	jne    0x57a14a
  57a11c:	8b 15 58 30 5e 00    	mov    0x5e3058,%edx
  57a122:	31 c0                	xor    %eax,%eax
  57a124:	eb 01                	jmp    0x57a127
  57a126:	40                   	inc    %eax
  57a127:	83 f8 06             	cmp    $0x6,%eax
  57a12a:	7d 09                	jge    0x57a135
  57a12c:	39 14 c5 20 30 5e 00 	cmp    %edx,0x5e3020(,%eax,8)
  57a133:	75 f1                	jne    0x57a126
  57a135:	c7 04 c5 24 30 5e 00 	movl   $0x1,0x5e3024(,%eax,8)
  57a13c:	01 00 00 00 
  57a140:	c7 05 58 30 5e 00 00 	movl   $0x0,0x5e3058
  57a147:	00 00 00 
  57a14a:	83 3d 68 30 5e 00 00 	cmpl   $0x0,0x5e3068
  57a151:	74 3d                	je     0x57a190
  57a153:	83 3d 6c 30 5e 00 00 	cmpl   $0x0,0x5e306c
  57a15a:	75 34                	jne    0x57a190
  57a15c:	8b 0d 68 30 5e 00    	mov    0x5e3068,%ecx
  57a162:	31 c0                	xor    %eax,%eax
  57a164:	eb 01                	jmp    0x57a167
  57a166:	40                   	inc    %eax
  57a167:	83 f8 06             	cmp    $0x6,%eax
  57a16a:	7d 09                	jge    0x57a175
  57a16c:	39 0c c5 20 30 5e 00 	cmp    %ecx,0x5e3020(,%eax,8)
  57a173:	75 f1                	jne    0x57a166
  57a175:	c7 04 c5 24 30 5e 00 	movl   $0x1,0x5e3024(,%eax,8)
  57a17c:	01 00 00 00 
  57a180:	c7 05 68 30 5e 00 00 	movl   $0x0,0x5e3068
  57a187:	00 00 00 
  57a18a:	89 0d 50 30 5e 00    	mov    %ecx,0x5e3050
  57a190:	a1 80 30 5e 00       	mov    0x5e3080,%eax
  57a195:	85 c0                	test   %eax,%eax
  57a197:	74 4b                	je     0x57a1e4
  57a199:	83 3d 84 30 5e 00 00 	cmpl   $0x0,0x5e3084
  57a1a0:	75 42                	jne    0x57a1e4
  57a1a2:	66 8b 48 20          	mov    0x20(%eax),%cx
  57a1a6:	66 81 f9 a8 00       	cmp    $0xa8,%cx
  57a1ab:	74 07                	je     0x57a1b4
  57a1ad:	66 81 f9 a9 00       	cmp    $0xa9,%cx
  57a1b2:	75 30                	jne    0x57a1e4
  57a1b4:	8b 15 80 30 5e 00    	mov    0x5e3080,%edx
  57a1ba:	31 c0                	xor    %eax,%eax
  57a1bc:	eb 03                	jmp    0x57a1c1
  57a1be:	89 c0                	mov    %eax,%eax
  57a1c0:	40                   	inc    %eax
  57a1c1:	83 f8 06             	cmp    $0x6,%eax
  57a1c4:	7d 09                	jge    0x57a1cf
  57a1c6:	39 14 c5 20 30 5e 00 	cmp    %edx,0x5e3020(,%eax,8)
  57a1cd:	75 f1                	jne    0x57a1c0
  57a1cf:	c7 04 c5 24 30 5e 00 	movl   $0x1,0x5e3024(,%eax,8)
  57a1d6:	01 00 00 00 
  57a1da:	c7 05 80 30 5e 00 00 	movl   $0x0,0x5e3080
  57a1e1:	00 00 00 
  57a1e4:	83 3d 88 30 5e 00 00 	cmpl   $0x0,0x5e3088
  57a1eb:	74 3d                	je     0x57a22a
  57a1ed:	83 3d 8c 30 5e 00 00 	cmpl   $0x0,0x5e308c
  57a1f4:	75 34                	jne    0x57a22a
  57a1f6:	83 3d 90 30 5e 00 00 	cmpl   $0x0,0x5e3090
  57a1fd:	75 2b                	jne    0x57a22a
  57a1ff:	8b 15 88 30 5e 00    	mov    0x5e3088,%edx
  57a205:	0f bf 42 20          	movswl 0x20(%edx),%eax
  57a209:	8d 04 40             	lea    (%eax,%eax,2),%eax
  57a20c:	0f be 0c 45 1c 4b 5d 	movsbl 0x5d4b1c(,%eax,2),%ecx
  57a213:	00 
  57a214:	89 15 90 30 5e 00    	mov    %edx,0x5e3090
  57a21a:	89 0d 94 30 5e 00    	mov    %ecx,0x5e3094
  57a220:	c7 05 88 30 5e 00 00 	movl   $0x0,0x5e3088
  57a227:	00 00 00 
  57a22a:	83 3d 80 30 5e 00 00 	cmpl   $0x0,0x5e3080
  57a231:	74 3d                	je     0x57a270
  57a233:	83 3d 84 30 5e 00 00 	cmpl   $0x0,0x5e3084
  57a23a:	75 34                	jne    0x57a270
  57a23c:	83 3d 88 30 5e 00 00 	cmpl   $0x0,0x5e3088
  57a243:	75 2b                	jne    0x57a270
  57a245:	8b 0d 80 30 5e 00    	mov    0x5e3080,%ecx
  57a24b:	0f bf 41 20          	movswl 0x20(%ecx),%eax
  57a24f:	8d 04 40             	lea    (%eax,%eax,2),%eax
  57a252:	0f be 14 45 1b 4b 5d 	movsbl 0x5d4b1b(,%eax,2),%edx
  57a259:	00 
  57a25a:	89 0d 88 30 5e 00    	mov    %ecx,0x5e3088
  57a260:	89 15 8c 30 5e 00    	mov    %edx,0x5e308c
  57a266:	c7 05 80 30 5e 00 00 	movl   $0x0,0x5e3080
  57a26d:	00 00 00 
  57a270:	83 3d 70 30 5e 00 00 	cmpl   $0x0,0x5e3070
  57a277:	74 3d                	je     0x57a2b6
  57a279:	83 3d 74 30 5e 00 00 	cmpl   $0x0,0x5e3074
  57a280:	75 34                	jne    0x57a2b6
  57a282:	83 3d 78 30 5e 00 00 	cmpl   $0x0,0x5e3078
  57a289:	75 2b                	jne    0x57a2b6
  57a28b:	8b 15 70 30 5e 00    	mov    0x5e3070,%edx
  57a291:	0f bf 42 20          	movswl 0x20(%edx),%eax
  57a295:	8d 04 40             	lea    (%eax,%eax,2),%eax
  57a298:	0f be 0c 45 1b 4b 5d 	movsbl 0x5d4b1b(,%eax,2),%ecx
  57a29f:	00 
  57a2a0:	89 15 78 30 5e 00    	mov    %edx,0x5e3078
  57a2a6:	89 0d 7c 30 5e 00    	mov    %ecx,0x5e307c
  57a2ac:	c7 05 70 30 5e 00 00 	movl   $0x0,0x5e3070
  57a2b3:	00 00 00 
  57a2b6:	c3                   	ret
	...
  57a2bf:	00 53 56             	add    %dl,0x56(%ebx)
  57a2c2:	55                   	push   %ebp
  57a2c3:	8b 6c 24 10          	mov    0x10(%esp),%ebp
  57a2c7:	0f bf 45 20          	movswl 0x20(%ebp),%eax
  57a2cb:	8d 04 40             	lea    (%eax,%eax,2),%eax
  57a2ce:	01 c0                	add    %eax,%eax
  57a2d0:	0f b6 88 18 4b 5d 00 	movzbl 0x5d4b18(%eax),%ecx
  57a2d7:	0f be 98 1a 4b 5d 00 	movsbl 0x5d4b1a(%eax),%ebx
  57a2de:	ff 05 14 30 5e 00    	incl   0x5e3014
  57a2e4:	ff 0d 10 30 5e 00    	decl   0x5e3010
  57a2ea:	8b 15 1c 30 5e 00    	mov    0x5e301c,%edx
  57a2f0:	89 2c d5 20 30 5e 00 	mov    %ebp,0x5e3020(,%edx,8)
  57a2f7:	a1 1c 30 5e 00       	mov    0x5e301c,%eax
  57a2fc:	c7 04 c5 24 30 5e 00 	movl   $0x0,0x5e3024(,%eax,8)
  57a303:	00 00 00 00 
  57a307:	8b 35 1c 30 5e 00    	mov    0x5e301c,%esi
  57a30d:	46                   	inc    %esi
  57a30e:	b8 ab aa aa aa       	mov    $0xaaaaaaab,%eax
  57a313:	f7 e6                	mul    %esi
  57a315:	c1 ea 02             	shr    $0x2,%edx
  57a318:	6b d2 06             	imul   $0x6,%edx,%edx
  57a31b:	29 d6                	sub    %edx,%esi
  57a31d:	89 35 1c 30 5e 00    	mov    %esi,0x5e301c
  57a323:	83 f9 02             	cmp    $0x2,%ecx
  57a326:	75 0e                	jne    0x57a336
  57a328:	83 3d 60 30 5e 00 00 	cmpl   $0x0,0x5e3060
  57a32f:	75 05                	jne    0x57a336
  57a331:	b9 01 00 00 00       	mov    $0x1,%ecx
  57a336:	89 2c cd 58 30 5e 00 	mov    %ebp,0x5e3058(,%ecx,8)
  57a33d:	89 1c cd 5c 30 5e 00 	mov    %ebx,0x5e305c(,%ecx,8)
  57a344:	5d                   	pop    %ebp
  57a345:	5e                   	pop    %esi
  57a346:	5b                   	pop    %ebx
  57a347:	c3                   	ret
	...
  57a350:	53                   	push   %ebx
  57a351:	55                   	push   %ebp
  57a352:	8b 5c 24 0c          	mov    0xc(%esp),%ebx
  57a356:	83 3d 10 30 5e 00 00 	cmpl   $0x0,0x5e3010
  57a35d:	75 05                	jne    0x57a364
  57a35f:	31 c0                	xor    %eax,%eax
  57a361:	5d                   	pop    %ebp
  57a362:	5b                   	pop    %ebx
  57a363:	c3                   	ret
  57a364:	0f bf 43 20          	movswl 0x20(%ebx),%eax
  57a368:	8d 04 40             	lea    (%eax,%eax,2),%eax
  57a36b:	0f b6 0c 45 18 4b 5d 	movzbl 0x5d4b18(,%eax,2),%ecx
  57a372:	00 
  57a373:	83 f9 02             	cmp    $0x2,%ecx
  57a376:	0f 85 94 00 00 00    	jne    0x57a410
  57a37c:	31 c9                	xor    %ecx,%ecx
  57a37e:	a1 60 30 5e 00       	mov    0x5e3060,%eax
  57a383:	85 c0                	test   %eax,%eax
  57a385:	75 01                	jne    0x57a388
  57a387:	41                   	inc    %ecx
  57a388:	31 d2                	xor    %edx,%edx
  57a38a:	8b 2d 68 30 5e 00    	mov    0x5e3068,%ebp
  57a390:	85 ed                	test   %ebp,%ebp
  57a392:	75 01                	jne    0x57a395
  57a394:	42                   	inc    %edx
  57a395:	85 c9                	test   %ecx,%ecx
  57a397:	75 09                	jne    0x57a3a2
  57a399:	85 d2                	test   %edx,%edx
  57a39b:	75 05                	jne    0x57a3a2
  57a39d:	31 c0                	xor    %eax,%eax
  57a39f:	5d                   	pop    %ebp
  57a3a0:	5b                   	pop    %ebx
  57a3a1:	c3                   	ret
  57a3a2:	85 c9                	test   %ecx,%ecx
  57a3a4:	74 0c                	je     0x57a3b2
  57a3a6:	85 d2                	test   %edx,%edx
  57a3a8:	74 08                	je     0x57a3b2
  57a3aa:	b8 01 00 00 00       	mov    $0x1,%eax
  57a3af:	5d                   	pop    %ebp
  57a3b0:	5b                   	pop    %ebx
  57a3b1:	c3                   	ret
  57a3b2:	85 c9                	test   %ecx,%ecx
  57a3b4:	74 02                	je     0x57a3b8
  57a3b6:	89 e8                	mov    %ebp,%eax
  57a3b8:	6a 04                	push   $0x4
  57a3ba:	50                   	push   %eax
  57a3bb:	53                   	push   %ebx
  57a3bc:	e8 9f d8 f8 ff       	call   0x507c60
  57a3c1:	83 c4 0c             	add    $0xc,%esp
  57a3c4:	85 c0                	test   %eax,%eax
  57a3c6:	74 08                	je     0x57a3d0
  57a3c8:	31 c0                	xor    %eax,%eax
  57a3ca:	5d                   	pop    %ebp
  57a3cb:	5b                   	pop    %ebx
  57a3cc:	c3                   	ret
  57a3cd:	8d 40 00             	lea    0x0(%eax),%eax
  57a3d0:	6a 04                	push   $0x4
  57a3d2:	a1 54 30 5e 00       	mov    0x5e3054,%eax
  57a3d7:	50                   	push   %eax
  57a3d8:	53                   	push   %ebx
  57a3d9:	e8 82 d8 f8 ff       	call   0x507c60
  57a3de:	83 c4 0c             	add    $0xc,%esp
  57a3e1:	85 c0                	test   %eax,%eax
  57a3e3:	74 0b                	je     0x57a3f0
  57a3e5:	31 c0                	xor    %eax,%eax
  57a3e7:	5d                   	pop    %ebp
  57a3e8:	5b                   	pop    %ebx
  57a3e9:	c3                   	ret
  57a3ea:	8d 80 00 00 00 00    	lea    0x0(%eax),%eax
  57a3f0:	6a 04                	push   $0x4
  57a3f2:	a1 50 30 5e 00       	mov    0x5e3050,%eax
  57a3f7:	50                   	push   %eax
  57a3f8:	53                   	push   %ebx
  57a3f9:	e8 62 d8 f8 ff       	call   0x507c60
  57a3fe:	83 c4 0c             	add    $0xc,%esp
  57a401:	85 c0                	test   %eax,%eax
  57a403:	74 1b                	je     0x57a420
  57a405:	31 c0                	xor    %eax,%eax
  57a407:	5d                   	pop    %ebp
  57a408:	5b                   	pop    %ebx
  57a409:	c3                   	ret
  57a40a:	8d 80 00 00 00 00    	lea    0x0(%eax),%eax
  57a410:	83 3c cd 58 30 5e 00 	cmpl   $0x0,0x5e3058(,%ecx,8)
  57a417:	00 
  57a418:	74 06                	je     0x57a420
  57a41a:	31 c0                	xor    %eax,%eax
  57a41c:	5d                   	pop    %ebp
  57a41d:	5b                   	pop    %ebx
  57a41e:	c3                   	ret
  57a41f:	90                   	nop
  57a420:	8b 43 14             	mov    0x14(%ebx),%eax
  57a423:	83 e0 04             	and    $0x4,%eax
  57a426:	74 18                	je     0x57a440
  57a428:	8b 15 78 30 5e 00    	mov    0x5e3078,%edx
  57a42e:	85 d2                	test   %edx,%edx
  57a430:	74 0e                	je     0x57a440
  57a432:	8b 42 14             	mov    0x14(%edx),%eax
  57a435:	83 e0 04             	and    $0x4,%eax
  57a438:	74 06                	je     0x57a440
  57a43a:	31 c0                	xor    %eax,%eax
  57a43c:	5d                   	pop    %ebp
  57a43d:	5b                   	pop    %ebx
  57a43e:	c3                   	ret
  57a43f:	90                   	nop
  57a440:	b8 01 00 00 00       	mov    $0x1,%eax
  57a445:	5d                   	pop    %ebp
  57a446:	5b                   	pop    %ebx
  57a447:	c3                   	ret
	...
  57a450:	31 c0                	xor    %eax,%eax
  57a452:	c7 04 c5 58 30 5e 00 	movl   $0x0,0x5e3058(,%eax,8)
  57a459:	00 00 00 00 
  57a45d:	c7 04 c5 60 30 5e 00 	movl   $0x0,0x5e3060(,%eax,8)
  57a464:	00 00 00 00 
  57a468:	c7 04 c5 68 30 5e 00 	movl   $0x0,0x5e3068(,%eax,8)
  57a46f:	00 00 00 00 
  57a473:	83 c0 03             	add    $0x3,%eax
  57a476:	83 f8 09             	cmp    $0x9,%eax
  57a479:	7c d7                	jl     0x57a452
  57a47b:	c7 05 10 30 5e 00 06 	movl   $0x6,0x5e3010
  57a482:	00 00 00 
  57a485:	c7 05 14 30 5e 00 00 	movl   $0x0,0x5e3014
  57a48c:	00 00 00 
  57a48f:	c7 05 18 30 5e 00 00 	movl   $0x0,0x5e3018
  57a496:	00 00 00 
  57a499:	c7 05 1c 30 5e 00 00 	movl   $0x0,0x5e301c
  57a4a0:	00 00 00 
  57a4a3:	c7 05 20 30 5e 00 00 	movl   $0x0,0x5e3020
  57a4aa:	00 00 00 
  57a4ad:	c7 05 28 30 5e 00 00 	movl   $0x0,0x5e3028
  57a4b4:	00 00 00 
  57a4b7:	c7 05 30 30 5e 00 00 	movl   $0x0,0x5e3030
  57a4be:	00 00 00 
  57a4c1:	c7 05 38 30 5e 00 00 	movl   $0x0,0x5e3038
  57a4c8:	00 00 00 
  57a4cb:	c7 05 40 30 5e 00 00 	movl   $0x0,0x5e3040
  57a4d2:	00 00 00 
  57a4d5:	c7 05 48 30 5e 00 00 	movl   $0x0,0x5e3048
  57a4dc:	00 00 00 
  57a4df:	c7 05 54 30 5e 00 00 	movl   $0x0,0x5e3054
  57a4e6:	00 00 00 
  57a4e9:	c7 05 50 30 5e 00 00 	movl   $0x0,0x5e3050
  57a4f0:	00 00 00 
  57a4f3:	c3                   	ret
	...
  57a500:	53                   	push   %ebx
  57a501:	55                   	push   %ebp
  57a502:	8b 5c 24 0c          	mov    0xc(%esp),%ebx
  57a506:	66 8b 6b 20          	mov    0x20(%ebx),%bp
  57a50a:	0f bf c5             	movswl %bp,%eax
  57a50d:	8d 04 40             	lea    (%eax,%eax,2),%eax
  57a510:	0f be 04 45 19 4b 5d 	movsbl 0x5d4b19(,%eax,2),%eax
  57a517:	00 
  57a518:	8b 53 14             	mov    0x14(%ebx),%edx
  57a51b:	89 d1                	mov    %edx,%ecx
  57a51d:	83 e1 09             	and    $0x9,%ecx
  57a520:	74 02                	je     0x57a524
  57a522:	31 d2                	xor    %edx,%edx
  57a524:	81 e2 00 00 00 20    	and    $0x20000000,%edx
  57a52a:	74 03                	je     0x57a52f
  57a52c:	83 c0 02             	add    $0x2,%eax
  57a52f:	66 83 fd 27          	cmp    $0x27,%bp
  57a533:	74 06                	je     0x57a53b
  57a535:	66 83 fd 36          	cmp    $0x36,%bp
  57a539:	75 09                	jne    0x57a544
  57a53b:	0f bf 4b 22          	movswl 0x22(%ebx),%ecx
  57a53f:	83 c1 fe             	add    $0xfffffffe,%ecx
  57a542:	01 c8                	add    %ecx,%eax
  57a544:	5d                   	pop    %ebp
  57a545:	5b                   	pop    %ebx
  57a546:	c3                   	ret
	...
  57a54f:	00 8b 44 24 04 0f    	add    %cl,0xf042444(%ebx)
  57a555:	bf 48 20 8d 0c       	mov    $0xc8d2048,%edi
  57a55a:	49                   	dec    %ecx
  57a55b:	0f b6 04 4d 40 56 5d 	movzbl 0x5d5640(,%ecx,2),%eax
  57a562:	00 
  57a563:	83 f8 07             	cmp    $0x7,%eax
  57a566:	0f 94 c0             	sete   %al
  57a569:	83 e0 01             	and    $0x1,%eax
  57a56c:	c3                   	ret
  57a56d:	00 00                	add    %al,(%eax)
  57a56f:	00 31                	add    %dh,(%ecx)
  57a571:	c0 83 3c c5 a0 30 5e 	rolb   $0x5e,0x30a0c53c(%ebx)
  57a578:	00 00                	add    %al,(%eax)
  57a57a:	74 11                	je     0x57a58d
  57a57c:	83 3c c5 a4 30 5e 00 	cmpl   $0x0,0x5e30a4(,%eax,8)
  57a583:	00 
  57a584:	74 07                	je     0x57a58d
  57a586:	ff 0c c5 a4 30 5e 00 	decl   0x5e30a4(,%eax,8)
  57a58d:	40                   	inc    %eax
  57a58e:	83 f8 06             	cmp    $0x6,%eax
  57a591:	7c df                	jl     0x57a572
  57a593:	83 3d a0 30 5e 00 00 	cmpl   $0x0,0x5e30a0
  57a59a:	74 13                	je     0x57a5af
  57a59c:	83 3d a4 30 5e 00 00 	cmpl   $0x0,0x5e30a4
  57a5a3:	75 0a                	jne    0x57a5af
  57a5a5:	c7 05 a0 30 5e 00 00 	movl   $0x0,0x5e30a0
  57a5ac:	00 00 00 
  57a5af:	83 3d c0 30 5e 00 00 	cmpl   $0x0,0x5e30c0
  57a5b6:	74 13                	je     0x57a5cb
  57a5b8:	83 3d c4 30 5e 00 00 	cmpl   $0x0,0x5e30c4
  57a5bf:	75 0a                	jne    0x57a5cb
  57a5c1:	c7 05 c0 30 5e 00 00 	movl   $0x0,0x5e30c0
  57a5c8:	00 00 00 
  57a5cb:	83 3d c8 30 5e 00 00 	cmpl   $0x0,0x5e30c8
  57a5d2:	74 13                	je     0x57a5e7
  57a5d4:	83 3d cc 30 5e 00 00 	cmpl   $0x0,0x5e30cc
  57a5db:	75 0a                	jne    0x57a5e7
  57a5dd:	c7 05 c8 30 5e 00 00 	movl   $0x0,0x5e30c8
  57a5e4:	00 00 00 
  57a5e7:	83 3d b8 30 5e 00 00 	cmpl   $0x0,0x5e30b8
  57a5ee:	74 3d                	je     0x57a62d
  57a5f0:	83 3d bc 30 5e 00 00 	cmpl   $0x0,0x5e30bc
  57a5f7:	75 34                	jne    0x57a62d
  57a5f9:	83 3d c0 30 5e 00 00 	cmpl   $0x0,0x5e30c0
  57a600:	75 2b                	jne    0x57a62d
  57a602:	8b 15 b8 30 5e 00    	mov    0x5e30b8,%edx
  57a608:	0f bf 42 20          	movswl 0x20(%edx),%eax
  57a60c:	8d 04 40             	lea    (%eax,%eax,2),%eax
  57a60f:	0f be 0c 45 45 56 5d 	movsbl 0x5d5645(,%eax,2),%ecx
  57a616:	00 
  57a617:	89 15 c0 30 5e 00    	mov    %edx,0x5e30c0
  57a61d:	89 0d c4 30 5e 00    	mov    %ecx,0x5e30c4
  57a623:	c7 05 b8 30 5e 00 00 	movl   $0x0,0x5e30b8
  57a62a:	00 00 00 
  57a62d:	83 3d b0 30 5e 00 00 	cmpl   $0x0,0x5e30b0
  57a634:	74 3d                	je     0x57a673
  57a636:	83 3d b4 30 5e 00 00 	cmpl   $0x0,0x5e30b4
  57a63d:	75 34                	jne    0x57a673
  57a63f:	83 3d b8 30 5e 00 00 	cmpl   $0x0,0x5e30b8
  57a646:	75 2b                	jne    0x57a673
  57a648:	8b 0d b0 30 5e 00    	mov    0x5e30b0,%ecx
  57a64e:	0f bf 41 20          	movswl 0x20(%ecx),%eax
  57a652:	8d 04 40             	lea    (%eax,%eax,2),%eax
  57a655:	0f be 14 45 44 56 5d 	movsbl 0x5d5644(,%eax,2),%edx
  57a65c:	00 
  57a65d:	89 0d b8 30 5e 00    	mov    %ecx,0x5e30b8
  57a663:	89 15 bc 30 5e 00    	mov    %edx,0x5e30bc
  57a669:	c7 05 b0 30 5e 00 00 	movl   $0x0,0x5e30b0
  57a670:	00 00 00 
  57a673:	83 3d a8 30 5e 00 00 	cmpl   $0x0,0x5e30a8
  57a67a:	74 3d                	je     0x57a6b9
  57a67c:	83 3d ac 30 5e 00 00 	cmpl   $0x0,0x5e30ac
  57a683:	75 34                	jne    0x57a6b9
  57a685:	83 3d b0 30 5e 00 00 	cmpl   $0x0,0x5e30b0
  57a68c:	75 2b                	jne    0x57a6b9
  57a68e:	8b 15 a8 30 5e 00    	mov    0x5e30a8,%edx
  57a694:	0f bf 42 20          	movswl 0x20(%edx),%eax
  57a698:	8d 04 40             	lea    (%eax,%eax,2),%eax
  57a69b:	0f be 0c 45 43 56 5d 	movsbl 0x5d5643(,%eax,2),%ecx
  57a6a2:	00 
  57a6a3:	89 15 b0 30 5e 00    	mov    %edx,0x5e30b0
  57a6a9:	89 0d b4 30 5e 00    	mov    %ecx,0x5e30b4
  57a6af:	c7 05 a8 30 5e 00 00 	movl   $0x0,0x5e30a8
  57a6b6:	00 00 00 
  57a6b9:	c3                   	ret
  57a6ba:	00 00                	add    %al,(%eax)
  57a6bc:	00 00                	add    %al,(%eax)
  57a6be:	00 00                	add    %al,(%eax)
  57a6c0:	8b 44 24 04          	mov    0x4(%esp),%eax
  57a6c4:	0f bf 50 20          	movswl 0x20(%eax),%edx
  57a6c8:	8d 14 52             	lea    (%edx,%edx,2),%edx
  57a6cb:	01 d2                	add    %edx,%edx
  57a6cd:	0f b6 8a 40 56 5d 00 	movzbl 0x5d5640(%edx),%ecx
  57a6d4:	0f be 92 42 56 5d 00 	movsbl 0x5d5642(%edx),%edx
  57a6db:	83 f9 07             	cmp    $0x7,%ecx
  57a6de:	75 02                	jne    0x57a6e2
  57a6e0:	31 c9                	xor    %ecx,%ecx
  57a6e2:	89 04 cd a0 30 5e 00 	mov    %eax,0x5e30a0(,%ecx,8)
  57a6e9:	89 14 cd a4 30 5e 00 	mov    %edx,0x5e30a4(,%ecx,8)
  57a6f0:	c3                   	ret
	...
  57a6fd:	00 00                	add    %al,(%eax)
  57a6ff:	00 8b 4c 24 04 0f    	add    %cl,0xf04244c(%ebx)
  57a705:	bf 41 20 8d 04       	mov    $0x48d2041,%edi
  57a70a:	40                   	inc    %eax
  57a70b:	0f b6 14 45 40 56 5d 	movzbl 0x5d5640(,%eax,2),%edx
  57a712:	00 
  57a713:	83 fa 07             	cmp    $0x7,%edx
  57a716:	75 02                	jne    0x57a71a
  57a718:	31 d2                	xor    %edx,%edx
  57a71a:	83 3c d5 a0 30 5e 00 	cmpl   $0x0,0x5e30a0(,%edx,8)
  57a721:	00 
  57a722:	74 03                	je     0x57a727
  57a724:	31 c0                	xor    %eax,%eax
  57a726:	c3                   	ret
  57a727:	b8 01 00 00 00       	mov    $0x1,%eax
  57a72c:	c3                   	ret
  57a72d:	00 00                	add    %al,(%eax)
  57a72f:	00 c7                	add    %al,%bh
  57a731:	05 a0 30 5e 00       	add    $0x5e30a0,%eax
  57a736:	00 00                	add    %al,(%eax)
  57a738:	00 00                	add    %al,(%eax)
  57a73a:	c7 05 a8 30 5e 00 00 	movl   $0x0,0x5e30a8
  57a741:	00 00 00 
  57a744:	c7 05 b0 30 5e 00 00 	movl   $0x0,0x5e30b0
  57a74b:	00 00 00 
  57a74e:	c7 05 b8 30 5e 00 00 	movl   $0x0,0x5e30b8
  57a755:	00 00 00 
  57a758:	c7 05 c0 30 5e 00 00 	movl   $0x0,0x5e30c0
  57a75f:	00 00 00 
  57a762:	c7 05 c8 30 5e 00 00 	movl   $0x0,0x5e30c8
  57a769:	00 00 00 
  57a76c:	c3                   	ret
  57a76d:	00 00                	add    %al,(%eax)
  57a76f:	00 53 55             	add    %dl,0x55(%ebx)
  57a772:	8b 5c 24 0c          	mov    0xc(%esp),%ebx
  57a776:	66 8b 6b 20          	mov    0x20(%ebx),%bp
  57a77a:	0f bf c5             	movswl %bp,%eax
  57a77d:	8d 04 40             	lea    (%eax,%eax,2),%eax
  57a780:	0f be 04 45 41 56 5d 	movsbl 0x5d5641(,%eax,2),%eax
  57a787:	00 
  57a788:	8b 53 14             	mov    0x14(%ebx),%edx
  57a78b:	89 d1                	mov    %edx,%ecx
  57a78d:	83 e1 09             	and    $0x9,%ecx
  57a790:	74 02                	je     0x57a794
  57a792:	31 d2                	xor    %edx,%edx
  57a794:	81 e2 00 00 00 20    	and    $0x20000000,%edx
  57a79a:	74 03                	je     0x57a79f
  57a79c:	83 c0 02             	add    $0x2,%eax
  57a79f:	66 83 fd 27          	cmp    $0x27,%bp
  57a7a3:	74 06                	je     0x57a7ab
  57a7a5:	66 83 fd 36          	cmp    $0x36,%bp
  57a7a9:	75 09                	jne    0x57a7b4
  57a7ab:	0f bf 4b 22          	movswl 0x22(%ebx),%ecx
  57a7af:	83 c1 fe             	add    $0xfffffffe,%ecx
  57a7b2:	01 c8                	add    %ecx,%eax
  57a7b4:	5d                   	pop    %ebp
  57a7b5:	5b                   	pop    %ebx
  57a7b6:	c3                   	ret
	...
  57a7bf:	00 8b 54 24 04 0f    	add    %cl,0xf042454(%ebx)
  57a7c5:	bf 4a 20 8d 0c       	mov    $0xc8d204a,%edi
  57a7ca:	49                   	dec    %ecx
  57a7cb:	0f be 04 4d 6d 61 5d 	movsbl 0x5d616d(,%ecx,2),%eax
  57a7d2:	00 
  57a7d3:	c3                   	ret
	...
  57a7e0:	31 c0                	xor    %eax,%eax
  57a7e2:	83 3c c5 10 31 5e 00 	cmpl   $0x0,0x5e3110(,%eax,8)
  57a7e9:	00 
  57a7ea:	74 11                	je     0x57a7fd
  57a7ec:	83 3c c5 14 31 5e 00 	cmpl   $0x0,0x5e3114(,%eax,8)
  57a7f3:	00 
  57a7f4:	74 07                	je     0x57a7fd
  57a7f6:	ff 0c c5 14 31 5e 00 	decl   0x5e3114(,%eax,8)
  57a7fd:	40                   	inc    %eax
  57a7fe:	83 f8 06             	cmp    $0x6,%eax
  57a801:	7c df                	jl     0x57a7e2
  57a803:	83 3d d4 30 5e 00 00 	cmpl   $0x0,0x5e30d4
  57a80a:	0f 84 8a 00 00 00    	je     0x57a89a
  57a810:	a1 d8 30 5e 00       	mov    0x5e30d8,%eax
  57a815:	83 3c c5 e4 30 5e 00 	cmpl   $0x0,0x5e30e4(,%eax,8)
  57a81c:	00 
  57a81d:	74 7b                	je     0x57a89a
  57a81f:	c7 04 c5 e0 30 5e 00 	movl   $0x0,0x5e30e0(,%eax,8)
  57a826:	00 00 00 00 
  57a82a:	ff 0d d4 30 5e 00    	decl   0x5e30d4
  57a830:	ff 05 d0 30 5e 00    	incl   0x5e30d0
  57a836:	8b 0d d8 30 5e 00    	mov    0x5e30d8,%ecx
  57a83c:	41                   	inc    %ecx
  57a83d:	b8 ab aa aa aa       	mov    $0xaaaaaaab,%eax
  57a842:	f7 e1                	mul    %ecx
  57a844:	c1 ea 02             	shr    $0x2,%edx
  57a847:	6b d2 06             	imul   $0x6,%edx,%edx
  57a84a:	29 d1                	sub    %edx,%ecx
  57a84c:	89 0d d8 30 5e 00    	mov    %ecx,0x5e30d8
  57a852:	83 3d d4 30 5e 00 00 	cmpl   $0x0,0x5e30d4
  57a859:	74 3f                	je     0x57a89a
  57a85b:	89 c8                	mov    %ecx,%eax
  57a85d:	83 3c c5 e4 30 5e 00 	cmpl   $0x0,0x5e30e4(,%eax,8)
  57a864:	00 
  57a865:	74 33                	je     0x57a89a
  57a867:	c7 04 c5 e0 30 5e 00 	movl   $0x0,0x5e30e0(,%eax,8)
  57a86e:	00 00 00 00 
  57a872:	ff 0d d4 30 5e 00    	decl   0x5e30d4
  57a878:	ff 05 d0 30 5e 00    	incl   0x5e30d0
  57a87e:	8b 0d d8 30 5e 00    	mov    0x5e30d8,%ecx
  57a884:	41                   	inc    %ecx
  57a885:	b8 ab aa aa aa       	mov    $0xaaaaaaab,%eax
  57a88a:	f7 e1                	mul    %ecx
  57a88c:	c1 ea 02             	shr    $0x2,%edx
  57a88f:	6b d2 06             	imul   $0x6,%edx,%edx
  57a892:	29 d1                	sub    %edx,%ecx
  57a894:	89 0d d8 30 5e 00    	mov    %ecx,0x5e30d8
  57a89a:	83 3d 18 31 5e 00 00 	cmpl   $0x0,0x5e3118
  57a8a1:	74 37                	je     0x57a8da
  57a8a3:	83 3d 1c 31 5e 00 00 	cmpl   $0x0,0x5e311c
  57a8aa:	75 2e                	jne    0x57a8da
  57a8ac:	8b 15 18 31 5e 00    	mov    0x5e3118,%edx
  57a8b2:	31 c0                	xor    %eax,%eax
  57a8b4:	eb 01                	jmp    0x57a8b7
  57a8b6:	40                   	inc    %eax
  57a8b7:	83 f8 06             	cmp    $0x6,%eax
  57a8ba:	7d 09                	jge    0x57a8c5
  57a8bc:	39 14 c5 e0 30 5e 00 	cmp    %edx,0x5e30e0(,%eax,8)
  57a8c3:	75 f1                	jne    0x57a8b6
  57a8c5:	c7 04 c5 e4 30 5e 00 	movl   $0x1,0x5e30e4(,%eax,8)
  57a8cc:	01 00 00 00 
  57a8d0:	c7 05 18 31 5e 00 00 	movl   $0x0,0x5e3118
  57a8d7:	00 00 00 
  57a8da:	83 3d 30 31 5e 00 00 	cmpl   $0x0,0x5e3130
  57a8e1:	74 37                	je     0x57a91a
  57a8e3:	83 3d 34 31 5e 00 00 	cmpl   $0x0,0x5e3134
  57a8ea:	75 2e                	jne    0x57a91a
  57a8ec:	8b 0d 30 31 5e 00    	mov    0x5e3130,%ecx
  57a8f2:	31 c0                	xor    %eax,%eax
  57a8f4:	eb 01                	jmp    0x57a8f7
  57a8f6:	40                   	inc    %eax
  57a8f7:	83 f8 06             	cmp    $0x6,%eax
  57a8fa:	7d 09                	jge    0x57a905
  57a8fc:	39 0c c5 e0 30 5e 00 	cmp    %ecx,0x5e30e0(,%eax,8)
  57a903:	75 f1                	jne    0x57a8f6
  57a905:	c7 04 c5 e4 30 5e 00 	movl   $0x1,0x5e30e4(,%eax,8)
  57a90c:	01 00 00 00 
  57a910:	c7 05 30 31 5e 00 00 	movl   $0x0,0x5e3130
  57a917:	00 00 00 
  57a91a:	83 3d 10 31 5e 00 00 	cmpl   $0x0,0x5e3110
  57a921:	74 37                	je     0x57a95a
  57a923:	83 3d 14 31 5e 00 00 	cmpl   $0x0,0x5e3114
  57a92a:	75 2e                	jne    0x57a95a
  57a92c:	8b 15 10 31 5e 00    	mov    0x5e3110,%edx
  57a932:	31 c0                	xor    %eax,%eax
  57a934:	eb 01                	jmp    0x57a937
  57a936:	40                   	inc    %eax
  57a937:	83 f8 06             	cmp    $0x6,%eax
  57a93a:	7d 09                	jge    0x57a945
  57a93c:	39 14 c5 e0 30 5e 00 	cmp    %edx,0x5e30e0(,%eax,8)
  57a943:	75 f1                	jne    0x57a936
  57a945:	c7 04 c5 e4 30 5e 00 	movl   $0x1,0x5e30e4(,%eax,8)
  57a94c:	01 00 00 00 
  57a950:	c7 05 10 31 5e 00 00 	movl   $0x0,0x5e3110
  57a957:	00 00 00 
  57a95a:	83 3d 28 31 5e 00 00 	cmpl   $0x0,0x5e3128
  57a961:	74 3d                	je     0x57a9a0
  57a963:	83 3d 2c 31 5e 00 00 	cmpl   $0x0,0x5e312c
  57a96a:	75 34                	jne    0x57a9a0
  57a96c:	83 3d 30 31 5e 00 00 	cmpl   $0x0,0x5e3130
  57a973:	75 2b                	jne    0x57a9a0
  57a975:	8b 15 28 31 5e 00    	mov    0x5e3128,%edx
  57a97b:	0f bf 42 20          	movswl 0x20(%edx),%eax
  57a97f:	8d 04 40             	lea    (%eax,%eax,2),%eax
  57a982:	0f be 0c 45 6b 61 5d 	movsbl 0x5d616b(,%eax,2),%ecx
  57a989:	00 
  57a98a:	89 15 30 31 5e 00    	mov    %edx,0x5e3130
  57a990:	89 0d 34 31 5e 00    	mov    %ecx,0x5e3134
  57a996:	c7 05 28 31 5e 00 00 	movl   $0x0,0x5e3128
  57a99d:	00 00 00 
  57a9a0:	c3                   	ret
	...
  57a9ad:	00 00                	add    %al,(%eax)
  57a9af:	00 53 56             	add    %dl,0x56(%ebx)
  57a9b2:	55                   	push   %ebp
  57a9b3:	8b 4c 24 10          	mov    0x10(%esp),%ecx
  57a9b7:	0f bf 69 20          	movswl 0x20(%ecx),%ebp
  57a9bb:	8d 6c 6d 00          	lea    0x0(%ebp,%ebp,2),%ebp
  57a9bf:	01 ed                	add    %ebp,%ebp
  57a9c1:	0f b6 9d 68 61 5d 00 	movzbl 0x5d6168(%ebp),%ebx
  57a9c8:	ff 05 d4 30 5e 00    	incl   0x5e30d4
  57a9ce:	ff 0d d0 30 5e 00    	decl   0x5e30d0
  57a9d4:	8b 15 dc 30 5e 00    	mov    0x5e30dc,%edx
  57a9da:	89 0c d5 e0 30 5e 00 	mov    %ecx,0x5e30e0(,%edx,8)
  57a9e1:	a1 dc 30 5e 00       	mov    0x5e30dc,%eax
  57a9e6:	c7 04 c5 e4 30 5e 00 	movl   $0x0,0x5e30e4(,%eax,8)
  57a9ed:	00 00 00 00 
  57a9f1:	8b 35 dc 30 5e 00    	mov    0x5e30dc,%esi
  57a9f7:	46                   	inc    %esi
  57a9f8:	b8 ab aa aa aa       	mov    $0xaaaaaaab,%eax
  57a9fd:	f7 e6                	mul    %esi
  57a9ff:	c1 ea 02             	shr    $0x2,%edx
  57aa02:	6b d2 06             	imul   $0x6,%edx,%edx
  57aa05:	29 d6                	sub    %edx,%esi
  57aa07:	89 35 dc 30 5e 00    	mov    %esi,0x5e30dc
  57aa0d:	89 0c dd 10 31 5e 00 	mov    %ecx,0x5e3110(,%ebx,8)
  57aa14:	0f be 85 6a 61 5d 00 	movsbl 0x5d616a(%ebp),%eax
  57aa1b:	89 04 dd 14 31 5e 00 	mov    %eax,0x5e3114(,%ebx,8)
  57aa22:	5d                   	pop    %ebp
  57aa23:	5e                   	pop    %esi
  57aa24:	5b                   	pop    %ebx
  57aa25:	c3                   	ret
	...
  57aa2e:	00 00                	add    %al,(%eax)
  57aa30:	8b 54 24 04          	mov    0x4(%esp),%edx
  57aa34:	83 3d d0 30 5e 00 00 	cmpl   $0x0,0x5e30d0
  57aa3b:	75 03                	jne    0x57aa40
  57aa3d:	31 c0                	xor    %eax,%eax
  57aa3f:	c3                   	ret
  57aa40:	0f bf 4a 20          	movswl 0x20(%edx),%ecx
  57aa44:	8d 0c 49             	lea    (%ecx,%ecx,2),%ecx
  57aa47:	0f b6 04 4d 68 61 5d 	movzbl 0x5d6168(,%ecx,2),%eax
  57aa4e:	00 
  57aa4f:	83 3c c5 10 31 5e 00 	cmpl   $0x0,0x5e3110(,%eax,8)
  57aa56:	00 
  57aa57:	74 07                	je     0x57aa60
  57aa59:	31 c0                	xor    %eax,%eax
  57aa5b:	c3                   	ret
  57aa5c:	8d 44 20 00          	lea    0x0(%eax,%eiz,1),%eax
  57aa60:	8b 42 14             	mov    0x14(%edx),%eax
  57aa63:	83 e0 04             	and    $0x4,%eax
  57aa66:	74 18                	je     0x57aa80
  57aa68:	8b 0d 30 31 5e 00    	mov    0x5e3130,%ecx
  57aa6e:	85 c9                	test   %ecx,%ecx
  57aa70:	74 0e                	je     0x57aa80
  57aa72:	8b 41 14             	mov    0x14(%ecx),%eax
  57aa75:	83 e0 04             	and    $0x4,%eax
  57aa78:	74 06                	je     0x57aa80
  57aa7a:	31 c0                	xor    %eax,%eax
  57aa7c:	c3                   	ret
  57aa7d:	8d 40 00             	lea    0x0(%eax),%eax
  57aa80:	b8 01 00 00 00       	mov    $0x1,%eax
  57aa85:	c3                   	ret
	...
  57aa8e:	00 00                	add    %al,(%eax)
  57aa90:	c7 05 10 31 5e 00 00 	movl   $0x0,0x5e3110
  57aa97:	00 00 00 
  57aa9a:	c7 05 18 31 5e 00 00 	movl   $0x0,0x5e3118
  57aaa1:	00 00 00 
  57aaa4:	c7 05 20 31 5e 00 00 	movl   $0x0,0x5e3120
  57aaab:	00 00 00 
  57aaae:	c7 05 28 31 5e 00 00 	movl   $0x0,0x5e3128
  57aab5:	00 00 00 
  57aab8:	c7 05 30 31 5e 00 00 	movl   $0x0,0x5e3130
  57aabf:	00 00 00 
  57aac2:	c7 05 38 31 5e 00 00 	movl   $0x0,0x5e3138
  57aac9:	00 00 00 
  57aacc:	c7 05 d0 30 5e 00 06 	movl   $0x6,0x5e30d0
  57aad3:	00 00 00 
  57aad6:	c7 05 d4 30 5e 00 00 	movl   $0x0,0x5e30d4
  57aadd:	00 00 00 
  57aae0:	c7 05 d8 30 5e 00 00 	movl   $0x0,0x5e30d8
  57aae7:	00 00 00 
  57aaea:	c7 05 dc 30 5e 00 00 	movl   $0x0,0x5e30dc
  57aaf1:	00 00 00 
  57aaf4:	c7 05 e0 30 5e 00 00 	movl   $0x0,0x5e30e0
  57aafb:	00 00 00 
  57aafe:	c7 05 e8 30 5e 00 00 	movl   $0x0,0x5e30e8
  57ab05:	00 00 00 
  57ab08:	c7 05 f0 30 5e 00 00 	movl   $0x0,0x5e30f0
  57ab0f:	00 00 00 
  57ab12:	c7 05 f8 30 5e 00 00 	movl   $0x0,0x5e30f8
  57ab19:	00 00 00 
  57ab1c:	c7 05 00 31 5e 00 00 	movl   $0x0,0x5e3100
  57ab23:	00 00 00 
  57ab26:	c7 05 08 31 5e 00 00 	movl   $0x0,0x5e3108
  57ab2d:	00 00 00 
  57ab30:	c3                   	ret
	...
  57ab3d:	00 00                	add    %al,(%eax)
  57ab3f:	00 53 55             	add    %dl,0x55(%ebx)
  57ab42:	8b 5c 24 0c          	mov    0xc(%esp),%ebx
  57ab46:	66 8b 6b 20          	mov    0x20(%ebx),%bp
  57ab4a:	0f bf c5             	movswl %bp,%eax
  57ab4d:	8d 04 40             	lea    (%eax,%eax,2),%eax
  57ab50:	0f be 04 45 69 61 5d 	movsbl 0x5d6169(,%eax,2),%eax
  57ab57:	00 
  57ab58:	8b 53 14             	mov    0x14(%ebx),%edx
  57ab5b:	89 d1                	mov    %edx,%ecx
  57ab5d:	83 e1 09             	and    $0x9,%ecx
  57ab60:	74 02                	je     0x57ab64
  57ab62:	31 d2                	xor    %edx,%edx
  57ab64:	81 e2 00 00 00 20    	and    $0x20000000,%edx
  57ab6a:	74 03                	je     0x57ab6f
  57ab6c:	83 c0 02             	add    $0x2,%eax
  57ab6f:	66 83 fd 27          	cmp    $0x27,%bp
  57ab73:	74 06                	je     0x57ab7b
  57ab75:	66 83 fd 36          	cmp    $0x36,%bp
  57ab79:	75 09                	jne    0x57ab84
  57ab7b:	0f bf 4b 22          	movswl 0x22(%ebx),%ecx
  57ab7f:	83 c1 fe             	add    $0xfffffffe,%ecx
  57ab82:	01 c8                	add    %ecx,%eax
  57ab84:	5d                   	pop    %ebp
  57ab85:	5b                   	pop    %ebx
  57ab86:	c3                   	ret
	...
  57ab8f:	00 53 56             	add    %dl,0x56(%ebx)
  57ab92:	57                   	push   %edi
  57ab93:	55                   	push   %ebp
  57ab94:	8b 4c 24 14          	mov    0x14(%esp),%ecx
  57ab98:	8b 54 24 18          	mov    0x18(%esp),%edx
  57ab9c:	8b 44 24 1c          	mov    0x1c(%esp),%eax
  57aba0:	8b 69 14             	mov    0x14(%ecx),%ebp
  57aba3:	81 e5 8d 01 00 00    	and    $0x18d,%ebp
  57aba9:	74 07                	je     0x57abb2
  57abab:	31 c0                	xor    %eax,%eax
  57abad:	5d                   	pop    %ebp
  57abae:	5f                   	pop    %edi
  57abaf:	5e                   	pop    %esi
  57abb0:	5b                   	pop    %ebx
  57abb1:	c3                   	ret
  57abb2:	8b 79 08             	mov    0x8(%ecx),%edi
  57abb5:	0f b7 77 2a          	movzwl 0x2a(%edi),%esi
  57abb9:	83 e6 03             	and    $0x3,%esi
  57abbc:	74 07                	je     0x57abc5
  57abbe:	31 c0                	xor    %eax,%eax
  57abc0:	5d                   	pop    %ebp
  57abc1:	5f                   	pop    %edi
  57abc2:	5e                   	pop    %esi
  57abc3:	5b                   	pop    %ebx
  57abc4:	c3                   	ret
  57abc5:	8d 59 24             	lea    0x24(%ecx),%ebx
  57abc8:	0f bf 69 22          	movswl 0x22(%ecx),%ebp
  57abcc:	83 ed 01             	sub    $0x1,%ebp
  57abcf:	72 37                	jb     0x57ac08
  57abd1:	80 3b 00             	cmpb   $0x0,(%ebx)
  57abd4:	75 2a                	jne    0x57ac00
  57abd6:	0f b7 4b 02          	movzwl 0x2(%ebx),%ecx
  57abda:	83 e1 02             	and    $0x2,%ecx
  57abdd:	74 21                	je     0x57ac00
  57abdf:	3a 53 01             	cmp    0x1(%ebx),%dl
  57abe2:	75 15                	jne    0x57abf9
  57abe4:	0f bf 4b 04          	movswl 0x4(%ebx),%ecx
  57abe8:	89 cf                	mov    %ecx,%edi
  57abea:	c1 ff 05             	sar    $0x5,%edi
  57abed:	be 01 00 00 00       	mov    $0x1,%esi
  57abf2:	d3 e6                	shl    %cl,%esi
  57abf4:	23 34 b8             	and    (%eax,%edi,4),%esi
  57abf7:	74 07                	je     0x57ac00
  57abf9:	31 c0                	xor    %eax,%eax
  57abfb:	5d                   	pop    %ebp
  57abfc:	5f                   	pop    %edi
  57abfd:	5e                   	pop    %esi
  57abfe:	5b                   	pop    %ebx
  57abff:	c3                   	ret
  57ac00:	83 c3 0c             	add    $0xc,%ebx
  57ac03:	83 ed 01             	sub    $0x1,%ebp
  57ac06:	73 c9                	jae    0x57abd1
  57ac08:	80 3d 06 49 5e 00 00 	cmpb   $0x0,0x5e4906
  57ac0f:	7f 07                	jg     0x57ac18
  57ac11:	31 c0                	xor    %eax,%eax
  57ac13:	5d                   	pop    %ebp
  57ac14:	5f                   	pop    %edi
  57ac15:	5e                   	pop    %esi
  57ac16:	5b                   	pop    %ebx
  57ac17:	c3                   	ret
  57ac18:	b8 01 00 00 00       	mov    $0x1,%eax
  57ac1d:	5d                   	pop    %ebp
  57ac1e:	5f                   	pop    %edi
  57ac1f:	5e                   	pop    %esi
  57ac20:	5b                   	pop    %ebx
  57ac21:	c3                   	ret
	...
  57ac2e:	00 00                	add    %al,(%eax)
  57ac30:	53                   	push   %ebx
  57ac31:	56                   	push   %esi
  57ac32:	57                   	push   %edi
  57ac33:	55                   	push   %ebp
  57ac34:	83 ec 08             	sub    $0x8,%esp
  57ac37:	8b 7c 24 1c          	mov    0x1c(%esp),%edi
  57ac3b:	8b 47 0e             	mov    0xe(%edi),%eax
  57ac3e:	8b 58 0e             	mov    0xe(%eax),%ebx
  57ac41:	e8 ea 22 f6 ff       	call   0x4dcf30
  57ac46:	0f be 15 99 a2 5e 00 	movsbl 0x5ea299,%edx
  57ac4d:	8b 3c 95 04 9b 5e 00 	mov    0x5e9b04(,%edx,4),%edi
  57ac54:	a1 7c 90 5e 00       	mov    0x5e907c,%eax
  57ac59:	c1 e0 04             	shl    $0x4,%eax
  57ac5c:	50                   	push   %eax
  57ac5d:	e8 7e 60 ec ff       	call   0x440ce0
  57ac62:	59                   	pop    %ecx
  57ac63:	a3 88 98 5e 00       	mov    %eax,0x5e9888
  57ac68:	c7 44 24 04 00 00 00 	movl   $0x0,0x4(%esp)
  57ac6f:	00 
  57ac70:	89 c6                	mov    %eax,%esi
  57ac72:	83 3d 7c 90 5e 00 00 	cmpl   $0x0,0x5e907c
  57ac79:	0f 8e 86 00 00 00    	jle    0x57ad05
  57ac7f:	89 fd                	mov    %edi,%ebp
  57ac81:	83 c7 1f             	add    $0x1f,%edi
  57ac84:	c1 ef 05             	shr    $0x5,%edi
  57ac87:	8d 3c bd 00 00 00 00 	lea    0x0(,%edi,4),%edi
  57ac8e:	89 c0                	mov    %eax,%eax
  57ac90:	6a 00                	push   $0x0
  57ac92:	55                   	push   %ebp
  57ac93:	57                   	push   %edi
  57ac94:	e8 47 60 ec ff       	call   0x440ce0
  57ac99:	59                   	pop    %ecx
  57ac9a:	89 06                	mov    %eax,(%esi)
  57ac9c:	8b 06                	mov    (%esi),%eax
  57ac9e:	50                   	push   %eax
  57ac9f:	e8 4c 22 00 00       	call   0x57cef0
  57aca4:	83 c4 0c             	add    $0xc,%esp
  57aca7:	6a 00                	push   $0x0
  57aca9:	55                   	push   %ebp
  57acaa:	57                   	push   %edi
  57acab:	e8 30 60 ec ff       	call   0x440ce0
  57acb0:	59                   	pop    %ecx
  57acb1:	89 46 04             	mov    %eax,0x4(%esi)
  57acb4:	8b 46 04             	mov    0x4(%esi),%eax
  57acb7:	50                   	push   %eax
  57acb8:	e8 33 22 00 00       	call   0x57cef0
  57acbd:	83 c4 0c             	add    $0xc,%esp
  57acc0:	6a 00                	push   $0x0
  57acc2:	55                   	push   %ebp
  57acc3:	57                   	push   %edi
  57acc4:	e8 17 60 ec ff       	call   0x440ce0
  57acc9:	59                   	pop    %ecx
  57acca:	89 46 08             	mov    %eax,0x8(%esi)
  57accd:	8b 46 08             	mov    0x8(%esi),%eax
  57acd0:	50                   	push   %eax
  57acd1:	e8 1a 22 00 00       	call   0x57cef0
  57acd6:	83 c4 0c             	add    $0xc,%esp
  57acd9:	6a 00                	push   $0x0
  57acdb:	55                   	push   %ebp
  57acdc:	57                   	push   %edi
  57acdd:	e8 fe 5f ec ff       	call   0x440ce0
  57ace2:	59                   	pop    %ecx
  57ace3:	89 46 0c             	mov    %eax,0xc(%esi)
  57ace6:	8b 46 0c             	mov    0xc(%esi),%eax
  57ace9:	50                   	push   %eax
  57acea:	e8 01 22 00 00       	call   0x57cef0
  57acef:	83 c4 0c             	add    $0xc,%esp
  57acf2:	ff 44 24 04          	incl   0x4(%esp)
  57acf6:	83 c6 10             	add    $0x10,%esi
  57acf9:	8b 44 24 04          	mov    0x4(%esp),%eax
  57acfd:	3b 05 7c 90 5e 00    	cmp    0x5e907c,%eax
  57ad03:	7c 8b                	jl     0x57ac90
  57ad05:	e8 66 03 00 00       	call   0x57b070
  57ad0a:	8b 0d 7c 90 5e 00    	mov    0x5e907c,%ecx
  57ad10:	49                   	dec    %ecx
  57ad11:	a1 c8 99 5e 00       	mov    0x5e99c8,%eax
  57ad16:	8b 2c 88             	mov    (%eax,%ecx,4),%ebp
  57ad19:	85 ed                	test   %ebp,%ebp
  57ad1b:	74 f3                	je     0x57ad10
  57ad1d:	8b 35 f4 98 5e 00    	mov    0x5e98f4,%esi
  57ad23:	85 f6                	test   %esi,%esi
  57ad25:	74 3b                	je     0x57ad62
  57ad27:	8a 15 99 a2 5e 00    	mov    0x5ea299,%dl
  57ad2d:	8a 46 0c             	mov    0xc(%esi),%al
  57ad30:	38 c2                	cmp    %al,%dl
  57ad32:	75 28                	jne    0x57ad5c
  57ad34:	83 7e 04 00          	cmpl   $0x0,0x4(%esi)
  57ad38:	74 22                	je     0x57ad5c
  57ad3a:	0f be 4e 0d          	movsbl 0xd(%esi),%ecx
  57ad3e:	89 c8                	mov    %ecx,%eax
  57ad40:	c1 f8 05             	sar    $0x5,%eax
  57ad43:	8b 55 1c             	mov    0x1c(%ebp),%edx
  57ad46:	c1 e2 04             	shl    $0x4,%edx
  57ad49:	8b 3d 88 98 5e 00    	mov    0x5e9888,%edi
  57ad4f:	8b 14 17             	mov    (%edi,%edx,1),%edx
  57ad52:	bf 01 00 00 00       	mov    $0x1,%edi
  57ad57:	d3 e7                	shl    %cl,%edi
  57ad59:	09 3c 82             	or     %edi,(%edx,%eax,4)
  57ad5c:	8b 36                	mov    (%esi),%esi
  57ad5e:	85 f6                	test   %esi,%esi
  57ad60:	75 c5                	jne    0x57ad27
  57ad62:	80 3d 99 a2 5e 00 04 	cmpb   $0x4,0x5ea299
  57ad69:	75 75                	jne    0x57ade0
  57ad6b:	8a 13                	mov    (%ebx),%dl
  57ad6d:	80 fa 01             	cmp    $0x1,%dl
  57ad70:	74 1d                	je     0x57ad8f
  57ad72:	80 fa 03             	cmp    $0x3,%dl
  57ad75:	74 18                	je     0x57ad8f
  57ad77:	88 d0                	mov    %dl,%al
  57ad79:	04 f5                	add    $0xf5,%al
  57ad7b:	3c 01                	cmp    $0x1,%al
  57ad7d:	77 05                	ja     0x57ad84
  57ad7f:	80 fa 0c             	cmp    $0xc,%dl
  57ad82:	75 0b                	jne    0x57ad8f
  57ad84:	80 fa 0a             	cmp    $0xa,%dl
  57ad87:	75 57                	jne    0x57ade0
  57ad89:	83 7b 02 04          	cmpl   $0x4,0x2(%ebx)
  57ad8d:	75 51                	jne    0x57ade0
  57ad8f:	a1 d0 98 5e 00       	mov    0x5e98d0,%eax
  57ad94:	8b 78 1c             	mov    0x1c(%eax),%edi
  57ad97:	c1 e7 04             	shl    $0x4,%edi
  57ad9a:	8b 0d 88 98 5e 00    	mov    0x5e9888,%ecx
  57ada0:	8b 04 39             	mov    (%ecx,%edi,1),%eax
  57ada3:	83 08 08             	orl    $0x8,(%eax)
  57ada6:	8a 03                	mov    (%ebx),%al
  57ada8:	3c 01                	cmp    $0x1,%al
  57adaa:	74 08                	je     0x57adb4
  57adac:	3c 03                	cmp    $0x3,%al
  57adae:	0f 85 7f 01 00 00    	jne    0x57af33
  57adb4:	83 7b 02 08          	cmpl   $0x8,0x2(%ebx)
  57adb8:	0f 85 75 01 00 00    	jne    0x57af33
  57adbe:	a1 60 9b 5e 00       	mov    0x5e9b60,%eax
  57adc3:	8b 70 1c             	mov    0x1c(%eax),%esi
  57adc6:	c1 e6 04             	shl    $0x4,%esi
  57adc9:	8b 15 88 98 5e 00    	mov    0x5e9888,%edx
  57adcf:	8b 04 32             	mov    (%edx,%esi,1),%eax
  57add2:	83 08 10             	orl    $0x10,(%eax)
  57add5:	e9 59 01 00 00       	jmp    0x57af33
  57adda:	8d 80 00 00 00 00    	lea    0x0(%eax),%eax
  57ade0:	80 3d 99 a2 5e 00 04 	cmpb   $0x4,0x5ea299
  57ade7:	75 57                	jne    0x57ae40
  57ade9:	8a 03                	mov    (%ebx),%al
  57adeb:	3c 04                	cmp    $0x4,%al
  57aded:	74 04                	je     0x57adf3
  57adef:	3c 05                	cmp    $0x5,%al
  57adf1:	75 4d                	jne    0x57ae40
  57adf3:	53                   	push   %ebx
  57adf4:	e8 07 58 f4 ff       	call   0x4c0600
  57adf9:	59                   	pop    %ecx
  57adfa:	84 c0                	test   %al,%al
  57adfc:	75 42                	jne    0x57ae40
  57adfe:	a1 d0 98 5e 00       	mov    0x5e98d0,%eax
  57ae03:	8b 78 1c             	mov    0x1c(%eax),%edi
  57ae06:	c1 e7 04             	shl    $0x4,%edi
  57ae09:	8b 0d 88 98 5e 00    	mov    0x5e9888,%ecx
  57ae0f:	8b 04 39             	mov    (%ecx,%edi,1),%eax
  57ae12:	83 08 08             	orl    $0x8,(%eax)
  57ae15:	83 7b 02 04          	cmpl   $0x4,0x2(%ebx)
  57ae19:	0f 8e 14 01 00 00    	jle    0x57af33
  57ae1f:	a1 60 9b 5e 00       	mov    0x5e9b60,%eax
  57ae24:	8b 68 1c             	mov    0x1c(%eax),%ebp
  57ae27:	c1 e5 04             	shl    $0x4,%ebp
  57ae2a:	8b 1d 88 98 5e 00    	mov    0x5e9888,%ebx
  57ae30:	8b 04 2b             	mov    (%ebx,%ebp,1),%eax
  57ae33:	83 08 10             	orl    $0x10,(%eax)
  57ae36:	e9 f8 00 00 00       	jmp    0x57af33
  57ae3b:	89 c0                	mov    %eax,%eax
  57ae3d:	8d 40 00             	lea    0x0(%eax),%eax
  57ae40:	80 3d 99 a2 5e 00 04 	cmpb   $0x4,0x5ea299
  57ae47:	75 57                	jne    0x57aea0
  57ae49:	80 3d 43 48 5e 00 00 	cmpb   $0x0,0x5e4843
  57ae50:	74 4e                	je     0x57aea0
  57ae52:	8a 03                	mov    (%ebx),%al
  57ae54:	3c 02                	cmp    $0x2,%al
  57ae56:	75 48                	jne    0x57aea0
  57ae58:	3c 02                	cmp    $0x2,%al
  57ae5a:	75 06                	jne    0x57ae62
  57ae5c:	80 7b 06 13          	cmpb   $0x13,0x6(%ebx)
  57ae60:	74 3e                	je     0x57aea0
  57ae62:	a1 d0 98 5e 00       	mov    0x5e98d0,%eax
  57ae67:	8b 70 1c             	mov    0x1c(%eax),%esi
  57ae6a:	c1 e6 04             	shl    $0x4,%esi
  57ae6d:	8b 15 88 98 5e 00    	mov    0x5e9888,%edx
  57ae73:	8b 04 32             	mov    (%edx,%esi,1),%eax
  57ae76:	83 08 08             	orl    $0x8,(%eax)
  57ae79:	83 7b 02 08          	cmpl   $0x8,0x2(%ebx)
  57ae7d:	0f 85 b0 00 00 00    	jne    0x57af33
  57ae83:	a1 60 9b 5e 00       	mov    0x5e9b60,%eax
  57ae88:	8b 78 1c             	mov    0x1c(%eax),%edi
  57ae8b:	c1 e7 04             	shl    $0x4,%edi
  57ae8e:	8b 0d 88 98 5e 00    	mov    0x5e9888,%ecx
  57ae94:	8b 04 39             	mov    (%ecx,%edi,1),%eax
  57ae97:	83 08 10             	orl    $0x10,(%eax)
  57ae9a:	e9 94 00 00 00       	jmp    0x57af33
  57ae9f:	90                   	nop
  57aea0:	80 3d 99 a2 5e 00 03 	cmpb   $0x3,0x5ea299
  57aea7:	75 29                	jne    0x57aed2
  57aea9:	8a 03                	mov    (%ebx),%al
  57aeab:	3c 02                	cmp    $0x2,%al
  57aead:	75 23                	jne    0x57aed2
  57aeaf:	3c 02                	cmp    $0x2,%al
  57aeb1:	75 06                	jne    0x57aeb9
  57aeb3:	80 7b 06 13          	cmpb   $0x13,0x6(%ebx)
  57aeb7:	74 19                	je     0x57aed2
  57aeb9:	a1 d0 98 5e 00       	mov    0x5e98d0,%eax
  57aebe:	8b 68 1c             	mov    0x1c(%eax),%ebp
  57aec1:	c1 e5 04             	shl    $0x4,%ebp
  57aec4:	8b 35 88 98 5e 00    	mov    0x5e9888,%esi
  57aeca:	8b 04 2e             	mov    (%esi,%ebp,1),%eax
  57aecd:	83 08 02             	orl    $0x2,(%eax)
  57aed0:	eb 61                	jmp    0x57af33
  57aed2:	80 3d 99 a2 5e 00 03 	cmpb   $0x3,0x5ea299
  57aed9:	75 25                	jne    0x57af00
  57aedb:	80 3b 02             	cmpb   $0x2,(%ebx)
  57aede:	75 20                	jne    0x57af00
  57aee0:	80 7b 06 13          	cmpb   $0x13,0x6(%ebx)
  57aee4:	75 1a                	jne    0x57af00
  57aee6:	a1 d0 98 5e 00       	mov    0x5e98d0,%eax
  57aeeb:	8b 50 1c             	mov    0x1c(%eax),%edx
  57aeee:	c1 e2 04             	shl    $0x4,%edx
  57aef1:	8b 1d 88 98 5e 00    	mov    0x5e9888,%ebx
  57aef7:	8b 04 13             	mov    (%ebx,%edx,1),%eax
  57aefa:	83 08 02             	orl    $0x2,(%eax)
  57aefd:	eb 34                	jmp    0x57af33
  57aeff:	90                   	nop
  57af00:	80 3d 99 a2 5e 00 02 	cmpb   $0x2,0x5ea299
  57af07:	75 2a                	jne    0x57af33
  57af09:	80 3b 04             	cmpb   $0x4,(%ebx)
  57af0c:	75 25                	jne    0x57af33
  57af0e:	0f be 43 0e          	movsbl 0xe(%ebx),%eax
  57af12:	83 f8 04             	cmp    $0x4,%eax
  57af15:	7c 1c                	jl     0x57af33
  57af17:	83 f8 0e             	cmp    $0xe,%eax
  57af1a:	7f 17                	jg     0x57af33
  57af1c:	a1 d0 98 5e 00       	mov    0x5e98d0,%eax
  57af21:	8b 78 1c             	mov    0x1c(%eax),%edi
  57af24:	c1 e7 04             	shl    $0x4,%edi
  57af27:	8b 0d 88 98 5e 00    	mov    0x5e9888,%ecx
  57af2d:	8b 04 39             	mov    (%ecx,%edi,1),%eax
  57af30:	83 08 04             	orl    $0x4,(%eax)
  57af33:	e8 08 00 00 00       	call   0x57af40
  57af38:	83 c4 08             	add    $0x8,%esp
  57af3b:	5d                   	pop    %ebp
  57af3c:	5f                   	pop    %edi
  57af3d:	5e                   	pop    %esi
  57af3e:	5b                   	pop    %ebx
  57af3f:	c3                   	ret
  57af40:	53                   	push   %ebx
  57af41:	56                   	push   %esi
  57af42:	57                   	push   %edi
  57af43:	55                   	push   %ebp
  57af44:	83 ec 18             	sub    $0x18,%esp
  57af47:	0f be 0d 99 a2 5e 00 	movsbl 0x5ea299,%ecx
  57af4e:	8b 04 8d 04 9b 5e 00 	mov    0x5e9b04(,%ecx,4),%eax
  57af55:	89 44 24 14          	mov    %eax,0x14(%esp)
  57af59:	89 44 24 08          	mov    %eax,0x8(%esp)
  57af5d:	83 44 24 08 1f       	addl   $0x1f,0x8(%esp)
  57af62:	c1 6c 24 08 05       	shrl   $0x5,0x8(%esp)
  57af67:	31 ed                	xor    %ebp,%ebp
  57af69:	a1 7c 90 5e 00       	mov    0x5e907c,%eax
  57af6e:	89 44 24 0c          	mov    %eax,0xc(%esp)
  57af72:	85 c0                	test   %eax,%eax
  57af74:	0f 84 d7 00 00 00    	je     0x57b051
  57af7a:	8b 44 24 14          	mov    0x14(%esp),%eax
  57af7e:	89 44 24 10          	mov    %eax,0x10(%esp)
  57af82:	ff 4c 24 0c          	decl   0xc(%esp)
  57af86:	8b 3d c8 99 5e 00    	mov    0x5e99c8,%edi
  57af8c:	8b 44 24 0c          	mov    0xc(%esp),%eax
  57af90:	8b 04 87             	mov    (%edi,%eax,4),%eax
  57af93:	85 c0                	test   %eax,%eax
  57af95:	0f 84 ab 00 00 00    	je     0x57b046
  57af9b:	8b 70 1c             	mov    0x1c(%eax),%esi
  57af9e:	c1 e6 04             	shl    $0x4,%esi
  57afa1:	03 35 88 98 5e 00    	add    0x5e9888,%esi
  57afa7:	8b 58 10             	mov    0x10(%eax),%ebx
  57afaa:	85 db                	test   %ebx,%ebx
  57afac:	74 5c                	je     0x57b00a
  57afae:	8b 46 0c             	mov    0xc(%esi),%eax
  57afb1:	89 44 24 04          	mov    %eax,0x4(%esp)
  57afb5:	ff 74 24 10          	push   0x10(%esp)
  57afb9:	8b 43 04             	mov    0x4(%ebx),%eax
  57afbc:	8b 50 1c             	mov    0x1c(%eax),%edx
  57afbf:	c1 e2 04             	shl    $0x4,%edx
  57afc2:	8b 0d 88 98 5e 00    	mov    0x5e9888,%ecx
  57afc8:	8b 44 11 08          	mov    0x8(%ecx,%edx,1),%eax
  57afcc:	50                   	push   %eax
  57afcd:	ff 74 24 0c          	push   0xc(%esp)
  57afd1:	e8 8a 1f 00 00       	call   0x57cf60
  57afd6:	83 c4 0c             	add    $0xc,%esp
  57afd9:	8b 3b                	mov    (%ebx),%edi
  57afdb:	85 ff                	test   %edi,%edi
  57afdd:	74 2b                	je     0x57b00a
  57afdf:	8b 5c 24 10          	mov    0x10(%esp),%ebx
  57afe3:	53                   	push   %ebx
  57afe4:	8b 47 04             	mov    0x4(%edi),%eax
  57afe7:	8b 50 1c             	mov    0x1c(%eax),%edx
  57afea:	c1 e2 04             	shl    $0x4,%edx
  57afed:	8b 0d 88 98 5e 00    	mov    0x5e9888,%ecx
  57aff3:	8b 44 11 08          	mov    0x8(%ecx,%edx,1),%eax
  57aff7:	50                   	push   %eax
  57aff8:	ff 74 24 0c          	push   0xc(%esp)
  57affc:	e8 6f 1e 00 00       	call   0x57ce70
  57b001:	83 c4 0c             	add    $0xc,%esp
  57b004:	8b 3f                	mov    (%edi),%edi
  57b006:	85 ff                	test   %edi,%edi
  57b008:	75 d9                	jne    0x57afe3
  57b00a:	8b 46 0c             	mov    0xc(%esi),%eax
  57b00d:	8b 56 08             	mov    0x8(%esi),%edx
  57b010:	8b 1e                	mov    (%esi),%ebx
  57b012:	8b 4e 04             	mov    0x4(%esi),%ecx
  57b015:	31 f6                	xor    %esi,%esi
  57b017:	3b 74 24 08          	cmp    0x8(%esp),%esi
  57b01b:	7d 29                	jge    0x57b046
  57b01d:	8d 40 00             	lea    0x0(%eax),%eax
  57b020:	8b 39                	mov    (%ecx),%edi
  57b022:	f7 d7                	not    %edi
  57b024:	23 38                	and    (%eax),%edi
  57b026:	0b 3b                	or     (%ebx),%edi
  57b028:	3b 3a                	cmp    (%edx),%edi
  57b02a:	74 07                	je     0x57b033
  57b02c:	89 3a                	mov    %edi,(%edx)
  57b02e:	bd 01 00 00 00       	mov    $0x1,%ebp
  57b033:	83 c2 04             	add    $0x4,%edx
  57b036:	83 c0 04             	add    $0x4,%eax
  57b039:	83 c3 04             	add    $0x4,%ebx
  57b03c:	83 c1 04             	add    $0x4,%ecx
  57b03f:	46                   	inc    %esi
  57b040:	3b 74 24 08          	cmp    0x8(%esp),%esi
  57b044:	7c da                	jl     0x57b020
  57b046:	83 7c 24 0c 00       	cmpl   $0x0,0xc(%esp)
  57b04b:	0f 85 31 ff ff ff    	jne    0x57af82
  57b051:	85 ed                	test   %ebp,%ebp
  57b053:	0f 85 0e ff ff ff    	jne    0x57af67
  57b059:	83 c4 18             	add    $0x18,%esp
  57b05c:	5d                   	pop    %ebp
  57b05d:	5f                   	pop    %edi
  57b05e:	5e                   	pop    %esi
  57b05f:	5b                   	pop    %ebx
  57b060:	c3                   	ret
	...
  57b06d:	00 00                	add    %al,(%eax)
  57b06f:	00 53 56             	add    %dl,0x56(%ebx)
  57b072:	57                   	push   %edi
  57b073:	55                   	push   %ebp
  57b074:	83 ec 08             	sub    $0x8,%esp
  57b077:	a1 38 98 5e 00       	mov    0x5e9838,%eax
  57b07c:	89 44 24 04          	mov    %eax,0x4(%esp)
  57b080:	85 c0                	test   %eax,%eax
  57b082:	0f 84 e6 00 00 00    	je     0x57b16e
  57b088:	8b 44 24 04          	mov    0x4(%esp),%eax
  57b08c:	8b 40 1c             	mov    0x1c(%eax),%eax
  57b08f:	c1 e0 04             	shl    $0x4,%eax
  57b092:	03 05 88 98 5e 00    	add    0x5e9888,%eax
  57b098:	8b 18                	mov    (%eax),%ebx
  57b09a:	8b 70 04             	mov    0x4(%eax),%esi
  57b09d:	8b 4c 24 04          	mov    0x4(%esp),%ecx
  57b0a1:	8b 41 14             	mov    0x14(%ecx),%eax
  57b0a4:	89 04 24             	mov    %eax,(%esp)
  57b0a7:	85 c0                	test   %eax,%eax
  57b0a9:	0f 84 ad 00 00 00    	je     0x57b15c
  57b0af:	90                   	nop
  57b0b0:	8b 3c 24             	mov    (%esp),%edi
  57b0b3:	83 c7 24             	add    $0x24,%edi
  57b0b6:	8b 04 24             	mov    (%esp),%eax
  57b0b9:	0f bf 68 22          	movswl 0x22(%eax),%ebp
  57b0bd:	83 ed 01             	sub    $0x1,%ebp
  57b0c0:	72 3c                	jb     0x57b0fe
  57b0c2:	80 3f 00             	cmpb   $0x0,(%edi)
  57b0c5:	75 2f                	jne    0x57b0f6
  57b0c7:	8a 57 01             	mov    0x1(%edi),%dl
  57b0ca:	a0 99 a2 5e 00       	mov    0x5ea299,%al
  57b0cf:	38 c2                	cmp    %al,%dl
  57b0d1:	75 23                	jne    0x57b0f6
  57b0d3:	0f b7 47 02          	movzwl 0x2(%edi),%eax
  57b0d7:	83 e0 01             	and    $0x1,%eax
  57b0da:	74 1a                	je     0x57b0f6
  57b0dc:	0f bf 4f 04          	movswl 0x4(%edi),%ecx
  57b0e0:	89 c8                	mov    %ecx,%eax
  57b0e2:	c1 f8 05             	sar    $0x5,%eax
  57b0e5:	ba 01 00 00 00       	mov    $0x1,%edx
  57b0ea:	d3 e2                	shl    %cl,%edx
  57b0ec:	89 d1                	mov    %edx,%ecx
  57b0ee:	23 0c 86             	and    (%esi,%eax,4),%ecx
  57b0f1:	75 03                	jne    0x57b0f6
  57b0f3:	09 14 83             	or     %edx,(%ebx,%eax,4)
  57b0f6:	83 c7 0c             	add    $0xc,%edi
  57b0f9:	83 ed 01             	sub    $0x1,%ebp
  57b0fc:	73 c4                	jae    0x57b0c2
  57b0fe:	8b 3c 24             	mov    (%esp),%edi
  57b101:	83 c7 24             	add    $0x24,%edi
  57b104:	8b 04 24             	mov    (%esp),%eax
  57b107:	0f bf 68 22          	movswl 0x22(%eax),%ebp
  57b10b:	83 ed 01             	sub    $0x1,%ebp
  57b10e:	72 3c                	jb     0x57b14c
  57b110:	80 3f 00             	cmpb   $0x0,(%edi)
  57b113:	75 2f                	jne    0x57b144
  57b115:	8a 57 01             	mov    0x1(%edi),%dl
  57b118:	a0 99 a2 5e 00       	mov    0x5ea299,%al
  57b11d:	38 c2                	cmp    %al,%dl
  57b11f:	75 23                	jne    0x57b144
  57b121:	0f b7 47 02          	movzwl 0x2(%edi),%eax
  57b125:	83 e0 02             	and    $0x2,%eax
  57b128:	74 1a                	je     0x57b144
  57b12a:	0f bf 4f 04          	movswl 0x4(%edi),%ecx
  57b12e:	89 c8                	mov    %ecx,%eax
  57b130:	c1 f8 05             	sar    $0x5,%eax
  57b133:	ba 01 00 00 00       	mov    $0x1,%edx
  57b138:	d3 e2                	shl    %cl,%edx
  57b13a:	89 d1                	mov    %edx,%ecx
  57b13c:	23 0c 83             	and    (%ebx,%eax,4),%ecx
  57b13f:	75 03                	jne    0x57b144
  57b141:	09 14 86             	or     %edx,(%esi,%eax,4)
  57b144:	83 c7 0c             	add    $0xc,%edi
  57b147:	83 ed 01             	sub    $0x1,%ebp
  57b14a:	73 c4                	jae    0x57b110
  57b14c:	8b 0c 24             	mov    (%esp),%ecx
  57b14f:	8b 01                	mov    (%ecx),%eax
  57b151:	89 04 24             	mov    %eax,(%esp)
  57b154:	85 c0                	test   %eax,%eax
  57b156:	0f 85 54 ff ff ff    	jne    0x57b0b0
  57b15c:	8b 4c 24 04          	mov    0x4(%esp),%ecx
  57b160:	8b 01                	mov    (%ecx),%eax
  57b162:	89 44 24 04          	mov    %eax,0x4(%esp)
  57b166:	85 c0                	test   %eax,%eax
  57b168:	0f 85 1a ff ff ff    	jne    0x57b088
  57b16e:	83 c4 08             	add    $0x8,%esp
  57b171:	5d                   	pop    %ebp
  57b172:	5f                   	pop    %edi
  57b173:	5e                   	pop    %esi
  57b174:	5b                   	pop    %ebx
  57b175:	c3                   	ret
	...
  57b17e:	00 00                	add    %al,(%eax)
  57b180:	53                   	push   %ebx
  57b181:	0f be 05 99 a2 5e 00 	movsbl 0x5ea299,%eax
  57b188:	8b 1c 85 04 9b 5e 00 	mov    0x5e9b04(,%eax,4),%ebx
  57b18f:	8b 44 24 08          	mov    0x8(%esp),%eax
  57b193:	50                   	push   %eax
  57b194:	e8 97 fa ff ff       	call   0x57ac30
  57b199:	59                   	pop    %ecx
  57b19a:	e8 41 01 00 00       	call   0x57b2e0
  57b19f:	e8 2c 09 00 00       	call   0x57bad0
  57b1a4:	80 3d 26 48 5e 00 00 	cmpb   $0x0,0x5e4826
  57b1ab:	74 17                	je     0x57b1c4
  57b1ad:	53                   	push   %ebx
  57b1ae:	0f be 0d 99 a2 5e 00 	movsbl 0x5ea299,%ecx
  57b1b5:	8b 04 8d e4 9c 5e 00 	mov    0x5e9ce4(,%ecx,4),%eax
  57b1bc:	50                   	push   %eax
  57b1bd:	e8 ae 5a f8 ff       	call   0x500c70
  57b1c2:	59                   	pop    %ecx
  57b1c3:	59                   	pop    %ecx
  57b1c4:	e8 b7 04 00 00       	call   0x57b680
  57b1c9:	e8 a2 02 00 00       	call   0x57b470
  57b1ce:	e8 0d 00 00 00       	call   0x57b1e0
  57b1d3:	5b                   	pop    %ebx
  57b1d4:	c3                   	ret
	...
  57b1dd:	00 00                	add    %al,(%eax)
  57b1df:	00 53 56             	add    %dl,0x56(%ebx)
  57b1e2:	57                   	push   %edi
  57b1e3:	55                   	push   %ebp
  57b1e4:	83 ec 08             	sub    $0x8,%esp
  57b1e7:	0f be 0d 99 a2 5e 00 	movsbl 0x5ea299,%ecx
  57b1ee:	8b 04 8d 04 9b 5e 00 	mov    0x5e9b04(,%ecx,4),%eax
  57b1f5:	89 44 24 04          	mov    %eax,0x4(%esp)
  57b1f9:	8b 1d 38 98 5e 00    	mov    0x5e9838,%ebx
  57b1ff:	85 db                	test   %ebx,%ebx
  57b201:	0f 84 95 00 00 00    	je     0x57b29c
  57b207:	8b 6b 18             	mov    0x18(%ebx),%ebp
  57b20a:	85 ed                	test   %ebp,%ebp
  57b20c:	0f 84 80 00 00 00    	je     0x57b292
  57b212:	8d 75 24             	lea    0x24(%ebp),%esi
  57b215:	0f bf 55 22          	movswl 0x22(%ebp),%edx
  57b219:	83 ea 01             	sub    $0x1,%edx
  57b21c:	72 6d                	jb     0x57b28b
  57b21e:	89 c0                	mov    %eax,%eax
  57b220:	80 3e 00             	cmpb   $0x0,(%esi)
  57b223:	75 5e                	jne    0x57b283
  57b225:	8a 4e 01             	mov    0x1(%esi),%cl
  57b228:	a0 99 a2 5e 00       	mov    0x5ea299,%al
  57b22d:	38 c1                	cmp    %al,%cl
  57b22f:	75 52                	jne    0x57b283
  57b231:	0f b7 46 02          	movzwl 0x2(%esi),%eax
  57b235:	83 e0 02             	and    $0x2,%eax
  57b238:	74 49                	je     0x57b283
  57b23a:	0f be 05 99 a2 5e 00 	movsbl 0x5ea299,%eax
  57b241:	66 8b 7e 04          	mov    0x4(%esi),%di
  57b245:	0f bf cf             	movswl %di,%ecx
  57b248:	3b 0c 85 00 98 5e 00 	cmp    0x5e9800(,%eax,4),%ecx
  57b24f:	7c 32                	jl     0x57b283
  57b251:	0f bf cf             	movswl %di,%ecx
  57b254:	a1 58 98 5e 00       	mov    0x5e9858,%eax
  57b259:	8b 3c 88             	mov    (%eax,%ecx,4),%edi
  57b25c:	0f b7 47 16          	movzwl 0x16(%edi),%eax
  57b260:	89 c1                	mov    %eax,%ecx
  57b262:	83 e1 30             	and    $0x30,%ecx
  57b265:	75 1c                	jne    0x57b283
  57b267:	83 e0 40             	and    $0x40,%eax
  57b26a:	75 17                	jne    0x57b283
  57b26c:	83 7f 08 00          	cmpl   $0x0,0x8(%edi)
  57b270:	75 05                	jne    0x57b277
  57b272:	89 6f 08             	mov    %ebp,0x8(%edi)
  57b275:	eb 0c                	jmp    0x57b283
  57b277:	c7 47 08 00 00 00 00 	movl   $0x0,0x8(%edi)
  57b27e:	66 83 4f 16 40       	orw    $0x40,0x16(%edi)
  57b283:	83 c6 0c             	add    $0xc,%esi
  57b286:	83 ea 01             	sub    $0x1,%edx
  57b289:	73 95                	jae    0x57b220
  57b28b:	8b 6d 04             	mov    0x4(%ebp),%ebp
  57b28e:	85 ed                	test   %ebp,%ebp
  57b290:	75 80                	jne    0x57b212
  57b292:	8b 1b                	mov    (%ebx),%ebx
  57b294:	85 db                	test   %ebx,%ebx
  57b296:	0f 85 6b ff ff ff    	jne    0x57b207
  57b29c:	31 ff                	xor    %edi,%edi
  57b29e:	39 7c 24 04          	cmp    %edi,0x4(%esp)
  57b2a2:	76 28                	jbe    0x57b2cc
  57b2a4:	a1 58 98 5e 00       	mov    0x5e9858,%eax
  57b2a9:	8b 34 b8             	mov    (%eax,%edi,4),%esi
  57b2ac:	8b 46 08             	mov    0x8(%esi),%eax
  57b2af:	85 c0                	test   %eax,%eax
  57b2b1:	74 12                	je     0x57b2c5
  57b2b3:	50                   	push   %eax
  57b2b4:	e8 a7 ee fa ff       	call   0x52a160
  57b2b9:	59                   	pop    %ecx
  57b2ba:	85 c0                	test   %eax,%eax
  57b2bc:	75 07                	jne    0x57b2c5
  57b2be:	c7 46 08 00 00 00 00 	movl   $0x0,0x8(%esi)
  57b2c5:	47                   	inc    %edi
  57b2c6:	3b 7c 24 04          	cmp    0x4(%esp),%edi
  57b2ca:	72 d8                	jb     0x57b2a4
  57b2cc:	83 c4 08             	add    $0x8,%esp
  57b2cf:	5d                   	pop    %ebp
  57b2d0:	5f                   	pop    %edi
  57b2d1:	5e                   	pop    %esi
  57b2d2:	5b                   	pop    %ebx
  57b2d3:	c3                   	ret
	...
  57b2e0:	53                   	push   %ebx
  57b2e1:	56                   	push   %esi
  57b2e2:	57                   	push   %edi
  57b2e3:	55                   	push   %ebp
  57b2e4:	83 ec 10             	sub    $0x10,%esp
  57b2e7:	0f be 15 99 a2 5e 00 	movsbl 0x5ea299,%edx
  57b2ee:	8b 04 95 04 9b 5e 00 	mov    0x5e9b04(,%edx,4),%eax
  57b2f5:	89 44 24 0c          	mov    %eax,0xc(%esp)
  57b2f9:	83 c0 1f             	add    $0x1f,%eax
  57b2fc:	c1 e8 05             	shr    $0x5,%eax
  57b2ff:	8d 04 85 00 00 00 00 	lea    0x0(,%eax,4),%eax
  57b306:	50                   	push   %eax
  57b307:	e8 d4 59 ec ff       	call   0x440ce0
  57b30c:	59                   	pop    %ecx
  57b30d:	89 c3                	mov    %eax,%ebx
  57b30f:	a1 38 98 5e 00       	mov    0x5e9838,%eax
  57b314:	89 44 24 08          	mov    %eax,0x8(%esp)
  57b318:	85 c0                	test   %eax,%eax
  57b31a:	0f 84 41 01 00 00    	je     0x57b461
  57b320:	ff 74 24 0c          	push   0xc(%esp)
  57b324:	8b 44 24 0c          	mov    0xc(%esp),%eax
  57b328:	8b 50 1c             	mov    0x1c(%eax),%edx
  57b32b:	c1 e2 04             	shl    $0x4,%edx
  57b32e:	8b 2d 88 98 5e 00    	mov    0x5e9888,%ebp
  57b334:	8b 44 15 0c          	mov    0xc(%ebp,%edx,1),%eax
  57b338:	50                   	push   %eax
  57b339:	53                   	push   %ebx
  57b33a:	e8 21 1c 00 00       	call   0x57cf60
  57b33f:	83 c4 0c             	add    $0xc,%esp
  57b342:	8b 4c 24 08          	mov    0x8(%esp),%ecx
  57b346:	8b 41 18             	mov    0x18(%ecx),%eax
  57b349:	89 44 24 04          	mov    %eax,0x4(%esp)
  57b34d:	85 c0                	test   %eax,%eax
  57b34f:	0f 84 fa 00 00 00    	je     0x57b44f
  57b355:	53                   	push   %ebx
  57b356:	a0 99 a2 5e 00       	mov    0x5ea299,%al
  57b35b:	50                   	push   %eax
  57b35c:	ff 74 24 0c          	push   0xc(%esp)
  57b360:	e8 2b f8 ff ff       	call   0x57ab90
  57b365:	83 c4 0c             	add    $0xc,%esp
  57b368:	85 c0                	test   %eax,%eax
  57b36a:	74 14                	je     0x57b380
  57b36c:	ff 74 24 04          	push   0x4(%esp)
  57b370:	e8 ab 1d f6 ff       	call   0x4dd120
  57b375:	59                   	pop    %ecx
  57b376:	e9 c1 00 00 00       	jmp    0x57b43c
  57b37b:	89 c0                	mov    %eax,%eax
  57b37d:	8d 40 00             	lea    0x0(%eax),%eax
  57b380:	8b 74 24 04          	mov    0x4(%esp),%esi
  57b384:	83 c6 24             	add    $0x24,%esi
  57b387:	8b 44 24 04          	mov    0x4(%esp),%eax
  57b38b:	0f bf 50 22          	movswl 0x22(%eax),%edx
  57b38f:	83 ea 01             	sub    $0x1,%edx
  57b392:	72 3e                	jb     0x57b3d2
  57b394:	80 3e 00             	cmpb   $0x0,(%esi)
  57b397:	75 31                	jne    0x57b3ca
  57b399:	8a 4e 01             	mov    0x1(%esi),%cl
  57b39c:	a0 99 a2 5e 00       	mov    0x5ea299,%al
  57b3a1:	38 c1                	cmp    %al,%cl
  57b3a3:	75 25                	jne    0x57b3ca
  57b3a5:	0f b7 46 02          	movzwl 0x2(%esi),%eax
  57b3a9:	83 e0 02             	and    $0x2,%eax
  57b3ac:	74 1c                	je     0x57b3ca
  57b3ae:	66 8b 7e 04          	mov    0x4(%esi),%di
  57b3b2:	89 f8                	mov    %edi,%eax
  57b3b4:	0f bf e8             	movswl %ax,%ebp
  57b3b7:	c1 fd 05             	sar    $0x5,%ebp
  57b3ba:	0f bf cf             	movswl %di,%ecx
  57b3bd:	83 e1 1f             	and    $0x1f,%ecx
  57b3c0:	b8 fe ff ff ff       	mov    $0xfffffffe,%eax
  57b3c5:	d3 c0                	rol    %cl,%eax
  57b3c7:	21 04 ab             	and    %eax,(%ebx,%ebp,4)
  57b3ca:	83 c6 0c             	add    $0xc,%esi
  57b3cd:	83 ea 01             	sub    $0x1,%edx
  57b3d0:	73 c2                	jae    0x57b394
  57b3d2:	8b 74 24 04          	mov    0x4(%esp),%esi
  57b3d6:	83 c6 24             	add    $0x24,%esi
  57b3d9:	8b 44 24 04          	mov    0x4(%esp),%eax
  57b3dd:	0f bf 68 22          	movswl 0x22(%eax),%ebp
  57b3e1:	83 ed 01             	sub    $0x1,%ebp
  57b3e4:	72 56                	jb     0x57b43c
  57b3e6:	80 3e 00             	cmpb   $0x0,(%esi)
  57b3e9:	75 49                	jne    0x57b434
  57b3eb:	8a 56 01             	mov    0x1(%esi),%dl
  57b3ee:	a0 99 a2 5e 00       	mov    0x5ea299,%al
  57b3f3:	38 c2                	cmp    %al,%dl
  57b3f5:	75 3d                	jne    0x57b434
  57b3f7:	0f b7 46 02          	movzwl 0x2(%esi),%eax
  57b3fb:	83 e0 01             	and    $0x1,%eax
  57b3fe:	74 34                	je     0x57b434
  57b400:	66 8b 7e 04          	mov    0x4(%esi),%di
  57b404:	89 f8                	mov    %edi,%eax
  57b406:	0f bf d0             	movswl %ax,%edx
  57b409:	c1 fa 05             	sar    $0x5,%edx
  57b40c:	89 f8                	mov    %edi,%eax
  57b40e:	0f bf c8             	movswl %ax,%ecx
  57b411:	b8 01 00 00 00       	mov    $0x1,%eax
  57b416:	d3 e0                	shl    %cl,%eax
  57b418:	23 04 93             	and    (%ebx,%edx,4),%eax
  57b41b:	75 05                	jne    0x57b422
  57b41d:	66 83 4e 02 04       	orw    $0x4,0x2(%esi)
  57b422:	0f bf cf             	movswl %di,%ecx
  57b425:	89 ca                	mov    %ecx,%edx
  57b427:	c1 fa 05             	sar    $0x5,%edx
  57b42a:	b8 01 00 00 00       	mov    $0x1,%eax
  57b42f:	d3 e0                	shl    %cl,%eax
  57b431:	09 04 93             	or     %eax,(%ebx,%edx,4)
  57b434:	83 c6 0c             	add    $0xc,%esi
  57b437:	83 ed 01             	sub    $0x1,%ebp
  57b43a:	73 aa                	jae    0x57b3e6
  57b43c:	8b 4c 24 04          	mov    0x4(%esp),%ecx
  57b440:	8b 41 04             	mov    0x4(%ecx),%eax
  57b443:	89 44 24 04          	mov    %eax,0x4(%esp)
  57b447:	85 c0                	test   %eax,%eax
  57b449:	0f 85 06 ff ff ff    	jne    0x57b355
  57b44f:	8b 4c 24 08          	mov    0x8(%esp),%ecx
  57b453:	8b 01                	mov    (%ecx),%eax
  57b455:	89 44 24 08          	mov    %eax,0x8(%esp)
  57b459:	85 c0                	test   %eax,%eax
  57b45b:	0f 85 bf fe ff ff    	jne    0x57b320
  57b461:	83 c4 10             	add    $0x10,%esp
  57b464:	5d                   	pop    %ebp
  57b465:	5f                   	pop    %edi
  57b466:	5e                   	pop    %esi
  57b467:	5b                   	pop    %ebx
  57b468:	c3                   	ret
  57b469:	00 00                	add    %al,(%eax)
  57b46b:	00 00                	add    %al,(%eax)
  57b46d:	00 00                	add    %al,(%eax)
  57b46f:	00 53 56             	add    %dl,0x56(%ebx)
  57b472:	57                   	push   %edi
  57b473:	55                   	push   %ebp
  57b474:	83 ec 18             	sub    $0x18,%esp
  57b477:	0f be 15 99 a2 5e 00 	movsbl 0x5ea299,%edx
  57b47e:	8b 04 95 04 9b 5e 00 	mov    0x5e9b04(,%edx,4),%eax
  57b485:	89 44 24 14          	mov    %eax,0x14(%esp)
  57b489:	8d 04 85 00 00 00 00 	lea    0x0(,%eax,4),%eax
  57b490:	50                   	push   %eax
  57b491:	e8 4a 58 ec ff       	call   0x440ce0
  57b496:	59                   	pop    %ecx
  57b497:	a3 58 98 5e 00       	mov    %eax,0x5e9858
  57b49c:	8b 44 24 14          	mov    0x14(%esp),%eax
  57b4a0:	01 c0                	add    %eax,%eax
  57b4a2:	50                   	push   %eax
  57b4a3:	e8 38 58 ec ff       	call   0x440ce0
  57b4a8:	59                   	pop    %ecx
  57b4a9:	89 44 24 08          	mov    %eax,0x8(%esp)
  57b4ad:	c7 44 24 04 00 00 00 	movl   $0x0,0x4(%esp)
  57b4b4:	00 
  57b4b5:	83 7c 24 14 00       	cmpl   $0x0,0x14(%esp)
  57b4ba:	0f 86 b2 01 00 00    	jbe    0x57b672
  57b4c0:	31 db                	xor    %ebx,%ebx
  57b4c2:	31 d2                	xor    %edx,%edx
  57b4c4:	39 54 24 14          	cmp    %edx,0x14(%esp)
  57b4c8:	76 73                	jbe    0x57b53d
  57b4ca:	8b 6c 24 04          	mov    0x4(%esp),%ebp
  57b4ce:	0f af ed             	imul   %ebp,%ebp
  57b4d1:	d1 ed                	shr    $1,%ebp
  57b4d3:	39 54 24 04          	cmp    %edx,0x4(%esp)
  57b4d7:	73 28                	jae    0x57b501
  57b4d9:	89 d1                	mov    %edx,%ecx
  57b4db:	0f af ca             	imul   %edx,%ecx
  57b4de:	d1 e9                	shr    $1,%ecx
  57b4e0:	03 4c 24 04          	add    0x4(%esp),%ecx
  57b4e4:	89 cf                	mov    %ecx,%edi
  57b4e6:	c1 ef 05             	shr    $0x5,%edi
  57b4e9:	8b 35 44 31 5e 00    	mov    0x5e3144,%esi
  57b4ef:	b8 01 00 00 00       	mov    $0x1,%eax
  57b4f4:	d3 e0                	shl    %cl,%eax
  57b4f6:	23 04 be             	and    (%esi,%edi,4),%eax
  57b4f9:	0f 95 c0             	setne  %al
  57b4fc:	83 e0 01             	and    $0x1,%eax
  57b4ff:	eb 27                	jmp    0x57b528
  57b501:	39 54 24 04          	cmp    %edx,0x4(%esp)
  57b505:	76 1f                	jbe    0x57b526
  57b507:	89 ef                	mov    %ebp,%edi
  57b509:	c1 ef 05             	shr    $0x5,%edi
  57b50c:	8b 35 44 31 5e 00    	mov    0x5e3144,%esi
  57b512:	89 e9                	mov    %ebp,%ecx
  57b514:	b8 01 00 00 00       	mov    $0x1,%eax
  57b519:	d3 e0                	shl    %cl,%eax
  57b51b:	23 04 be             	and    (%esi,%edi,4),%eax
  57b51e:	0f 95 c0             	setne  %al
  57b521:	83 e0 01             	and    $0x1,%eax
  57b524:	eb 02                	jmp    0x57b528
  57b526:	31 c0                	xor    %eax,%eax
  57b528:	85 c0                	test   %eax,%eax
  57b52a:	74 09                	je     0x57b535
  57b52c:	8b 44 24 08          	mov    0x8(%esp),%eax
  57b530:	66 89 14 58          	mov    %dx,(%eax,%ebx,2)
  57b534:	43                   	inc    %ebx
  57b535:	45                   	inc    %ebp
  57b536:	42                   	inc    %edx
  57b537:	3b 54 24 14          	cmp    0x14(%esp),%edx
  57b53b:	72 96                	jb     0x57b4d3
  57b53d:	89 de                	mov    %ebx,%esi
  57b53f:	4e                   	dec    %esi
  57b540:	01 f6                	add    %esi,%esi
  57b542:	83 c6 1c             	add    $0x1c,%esi
  57b545:	56                   	push   %esi
  57b546:	e8 95 57 ec ff       	call   0x440ce0
  57b54b:	59                   	pop    %ecx
  57b54c:	8b 15 58 98 5e 00    	mov    0x5e9858,%edx
  57b552:	8b 4c 24 04          	mov    0x4(%esp),%ecx
  57b556:	89 04 8a             	mov    %eax,(%edx,%ecx,4)
  57b559:	8b 4c 24 04          	mov    0x4(%esp),%ecx
  57b55d:	8b 04 8a             	mov    (%edx,%ecx,4),%eax
  57b560:	89 44 24 10          	mov    %eax,0x10(%esp)
  57b564:	56                   	push   %esi
  57b565:	50                   	push   %eax
  57b566:	e8 15 56 ec ff       	call   0x440b80
  57b56b:	59                   	pop    %ecx
  57b56c:	59                   	pop    %ecx
  57b56d:	66 8b 4c 24 04       	mov    0x4(%esp),%cx
  57b572:	8b 44 24 10          	mov    0x10(%esp),%eax
  57b576:	66 89 48 10          	mov    %cx,0x10(%eax)
  57b57a:	8b 44 24 10          	mov    0x10(%esp),%eax
  57b57e:	66 83 48 14 ff       	orw    $0xffff,0x14(%eax)
  57b583:	8b 44 24 10          	mov    0x10(%esp),%eax
  57b587:	66 89 58 18          	mov    %bx,0x18(%eax)
  57b58b:	8b 44 24 10          	mov    0x10(%esp),%eax
  57b58f:	66 8b 50 18          	mov    0x18(%eax),%dx
  57b593:	66 89 50 12          	mov    %dx,0x12(%eax)
  57b597:	8b 44 24 10          	mov    0x10(%esp),%eax
  57b59b:	83 c0 1a             	add    $0x1a,%eax
  57b59e:	8b 4c 24 08          	mov    0x8(%esp),%ecx
  57b5a2:	31 ed                	xor    %ebp,%ebp
  57b5a4:	85 db                	test   %ebx,%ebx
  57b5a6:	76 69                	jbe    0x57b611
  57b5a8:	8d 7b f8             	lea    -0x8(%ebx),%edi
  57b5ab:	83 fb 08             	cmp    $0x8,%ebx
  57b5ae:	76 4b                	jbe    0x57b5fb
  57b5b0:	66 8b 11             	mov    (%ecx),%dx
  57b5b3:	66 89 10             	mov    %dx,(%eax)
  57b5b6:	66 8b 51 02          	mov    0x2(%ecx),%dx
  57b5ba:	66 89 50 02          	mov    %dx,0x2(%eax)
  57b5be:	66 8b 51 04          	mov    0x4(%ecx),%dx
  57b5c2:	66 89 50 04          	mov    %dx,0x4(%eax)
  57b5c6:	66 8b 51 06          	mov    0x6(%ecx),%dx
  57b5ca:	66 89 50 06          	mov    %dx,0x6(%eax)
  57b5ce:	66 8b 51 08          	mov    0x8(%ecx),%dx
  57b5d2:	66 89 50 08          	mov    %dx,0x8(%eax)
  57b5d6:	66 8b 51 0a          	mov    0xa(%ecx),%dx
  57b5da:	66 89 50 0a          	mov    %dx,0xa(%eax)
  57b5de:	66 8b 51 0c          	mov    0xc(%ecx),%dx
  57b5e2:	66 89 50 0c          	mov    %dx,0xc(%eax)
  57b5e6:	66 8b 51 0e          	mov    0xe(%ecx),%dx
  57b5ea:	66 89 50 0e          	mov    %dx,0xe(%eax)
  57b5ee:	83 c1 10             	add    $0x10,%ecx
  57b5f1:	83 c0 10             	add    $0x10,%eax
  57b5f4:	83 c5 08             	add    $0x8,%ebp
  57b5f7:	39 fd                	cmp    %edi,%ebp
  57b5f9:	72 b5                	jb     0x57b5b0
  57b5fb:	39 dd                	cmp    %ebx,%ebp
  57b5fd:	73 12                	jae    0x57b611
  57b5ff:	90                   	nop
  57b600:	66 8b 11             	mov    (%ecx),%dx
  57b603:	66 89 10             	mov    %dx,(%eax)
  57b606:	83 c1 02             	add    $0x2,%ecx
  57b609:	83 c0 02             	add    $0x2,%eax
  57b60c:	45                   	inc    %ebp
  57b60d:	39 dd                	cmp    %ebx,%ebp
  57b60f:	72 ef                	jb     0x57b600
  57b611:	8b 15 40 31 5e 00    	mov    0x5e3140,%edx
  57b617:	8b 44 24 04          	mov    0x4(%esp),%eax
  57b61b:	0f bf 04 42          	movswl (%edx,%eax,2),%eax
  57b61f:	39 44 24 04          	cmp    %eax,0x4(%esp)
  57b623:	74 3b                	je     0x57b660
  57b625:	8b 44 24 10          	mov    0x10(%esp),%eax
  57b629:	66 83 48 16 04       	orw    $0x4,0x16(%eax)
  57b62e:	8b 74 24 04          	mov    0x4(%esp),%esi
  57b632:	eb 02                	jmp    0x57b636
  57b634:	89 c6                	mov    %eax,%esi
  57b636:	0f bf ce             	movswl %si,%ecx
  57b639:	a1 40 31 5e 00       	mov    0x5e3140,%eax
  57b63e:	66 8b 04 48          	mov    (%eax,%ecx,2),%ax
  57b642:	66 39 c6             	cmp    %ax,%si
  57b645:	75 ed                	jne    0x57b634
  57b647:	0f bf fe             	movswl %si,%edi
  57b64a:	8b 15 58 98 5e 00    	mov    0x5e9858,%edx
  57b650:	8b 04 ba             	mov    (%edx,%edi,4),%eax
  57b653:	66 83 48 16 08       	orw    $0x8,0x16(%eax)
  57b658:	8b 44 24 10          	mov    0x10(%esp),%eax
  57b65c:	66 89 78 14          	mov    %di,0x14(%eax)
  57b660:	ff 44 24 04          	incl   0x4(%esp)
  57b664:	8b 44 24 04          	mov    0x4(%esp),%eax
  57b668:	3b 44 24 14          	cmp    0x14(%esp),%eax
  57b66c:	0f 82 4e fe ff ff    	jb     0x57b4c0
  57b672:	83 c4 18             	add    $0x18,%esp
  57b675:	5d                   	pop    %ebp
  57b676:	5f                   	pop    %edi
  57b677:	5e                   	pop    %esi
  57b678:	5b                   	pop    %ebx
  57b679:	c3                   	ret
  57b67a:	00 00                	add    %al,(%eax)
  57b67c:	00 00                	add    %al,(%eax)
	...
